                              1 ;--------------------------------------------------------
                              2 ; File Created by SDCC : FreeWare ANSI-C Compiler
                              3 ; Version 2.2.1 Mon Oct 07 17:57:59 2019
                              4 
                              5 ;--------------------------------------------------------
                              6 	.module lcc107600
                              7 	
                              8 ;--------------------------------------------------------
                              9 ; Public variables in this module
                             10 ;--------------------------------------------------------
                             11 	.globl _SpriteKeys
                             12 	.globl _devil_normal_map
                             13 	.globl _devil_normal_data
                             14 	.globl _devil_angry_map
                             15 	.globl _devil_angry_data
                             16 	.globl _devil_laugh_map
                             17 	.globl _devil_laugh_data
                             18 	.globl _how_to_map
                             19 	.globl _how_to_data
                             20 	.globl _credits_map
                             21 	.globl _credits_data
                             22 	.globl _splash_map
                             23 	.globl _splash_data
                             24 	.globl _main
                             25 	.globl _setSlot3
                             26 	.globl _setSlot2
                             27 	.globl _setSlot1
                             28 	.globl _setupKing
                             29 	.globl _setupJack
                             30 	.globl _setupNine
                             31 	.globl _setupEight
                             32 	.globl _setupSeven
                             33 	.globl _setupSix
                             34 	.globl _setupFive
                             35 	.globl _setupFour
                             36 	.globl _setupThree
                             37 	.globl _setupTwo
                             38 	.globl _setupAce
                             39 	.globl _set_souls
                             40 	.globl _init_numbers
                             41 	.globl _set_background_devil_laugh
                             42 	.globl _set_background_devil_angry
                             43 	.globl _set_background_devil_normal
                             44 	.globl _set_background_howto
                             45 	.globl _set_background_credits
                             46 	.globl _set_background_splash
                             47 	.globl _random_number
                             48 	.globl _performant_delay
                             49 	.globl _arand
                             50 	.globl _initarand
                             51 	.globl _randw
                             52 	.globl _rand
                             53 	.globl _initrand
                             54 	.globl _strncpy
                             55 	.globl _strncmp
                             56 	.globl _strncat
                             57 	.globl _strlen
                             58 	.globl _strcat
                             59 	.globl _reverse
                             60 	.globl _memcpy
                             61 	.globl _strcmp
                             62 	.globl _strcpy
                             63 	.globl _gets
                             64 	.globl _puts
                             65 	.globl _sprintf
                             66 	.globl _printf
                             67 	.globl _putchar
                             68 	.globl _get_tiles
                             69 	.globl _set_tiles
                             70 	.globl _get_data
                             71 	.globl _set_data
                             72 	.globl _scroll_sprite
                             73 	.globl _move_sprite
                             74 	.globl _get_sprite_prop
                             75 	.globl _set_sprite_prop
                             76 	.globl _get_sprite_tile
                             77 	.globl _set_sprite_tile
                             78 	.globl _get_sprite_data
                             79 	.globl _set_sprite_data
                             80 	.globl _scroll_win
                             81 	.globl _move_win
                             82 	.globl _get_win_tiles
                             83 	.globl _set_win_tiles
                             84 	.globl _set_win_data
                             85 	.globl _scroll_bkg
                             86 	.globl _move_bkg
                             87 	.globl _get_bkg_tiles
                             88 	.globl _set_bkg_tiles
                             89 	.globl _set_bkg_data
                             90 	.globl _hiramcpy
                             91 	.globl _display_off
                             92 	.globl _wait_vbl_done
                             93 	.globl _reset
                             94 	.globl _set_interrupts
                             95 	.globl _disable_interrupts
                             96 	.globl _enable_interrupts
                             97 	.globl _waitpadup
                             98 	.globl _waitpad
                             99 	.globl _joypad
                            100 	.globl _delay
                            101 	.globl _receive_byte
                            102 	.globl _send_byte
                            103 	.globl _get_mode
                            104 	.globl _mode
                            105 	.globl _add_TIM
                            106 	.globl _add_LCD
                            107 	.globl _add_VBL
                            108 	.globl _remove_JOY
                            109 	.globl _remove_SIO
                            110 	.globl _remove_TIM
                            111 	.globl _remove_LCD
                            112 	.globl _remove_VBL
                            113 	.globl _cgb_compatibility
                            114 	.globl _cpu_fast
                            115 	.globl _cpu_slow
                            116 	.globl _set_sprite_palette_entry
                            117 	.globl _set_bkg_palette_entry
                            118 	.globl _set_sprite_palette
                            119 	.globl _set_bkg_palette
                            120 	.globl _sgb_check
                            121 	.globl _king
                            122 	.globl _jack
                            123 	.globl _nine
                            124 	.globl _eight
                            125 	.globl _seven
                            126 	.globl _six
                            127 	.globl _five
                            128 	.globl _four
                            129 	.globl _three
                            130 	.globl _two
                            131 	.globl _ace
                            132 ;--------------------------------------------------------
                            133 ; Externals used
                            134 ;--------------------------------------------------------
                            135 	.globl _IE_REG
                            136 	.globl _SVBK_REG
                            137 	.globl _OCPD_REG
                            138 	.globl _OCPS_REG
                            139 	.globl _BCPD_REG
                            140 	.globl _BCPS_REG
                            141 	.globl _RP_REG
                            142 	.globl _HDMA5_REG
                            143 	.globl _HDMA4_REG
                            144 	.globl _HDMA3_REG
                            145 	.globl _HDMA2_REG
                            146 	.globl _HDMA1_REG
                            147 	.globl _VBK_REG
                            148 	.globl _KEY1_REG
                            149 	.globl _WX_REG
                            150 	.globl _WY_REG
                            151 	.globl _OBP1_REG
                            152 	.globl _OBP0_REG
                            153 	.globl _BGP_REG
                            154 	.globl _DMA_REG
                            155 	.globl _LYC_REG
                            156 	.globl _LY_REG
                            157 	.globl _SCX_REG
                            158 	.globl _SCY_REG
                            159 	.globl _STAT_REG
                            160 	.globl _LCDC_REG
                            161 	.globl _NR52_REG
                            162 	.globl _NR51_REG
                            163 	.globl _NR50_REG
                            164 	.globl _NR44_REG
                            165 	.globl _NR43_REG
                            166 	.globl _NR42_REG
                            167 	.globl _NR41_REG
                            168 	.globl _NR34_REG
                            169 	.globl _NR33_REG
                            170 	.globl _NR32_REG
                            171 	.globl _NR31_REG
                            172 	.globl _NR30_REG
                            173 	.globl _NR24_REG
                            174 	.globl _NR23_REG
                            175 	.globl _NR22_REG
                            176 	.globl _NR21_REG
                            177 	.globl _NR14_REG
                            178 	.globl _NR13_REG
                            179 	.globl _NR12_REG
                            180 	.globl _NR11_REG
                            181 	.globl _NR10_REG
                            182 	.globl _IF_REG
                            183 	.globl _TAC_REG
                            184 	.globl _TMA_REG
                            185 	.globl _TIMA_REG
                            186 	.globl _DIV_REG
                            187 	.globl _SC_REG
                            188 	.globl _SB_REG
                            189 	.globl _P1_REG
                            190 	.globl __io_out
                            191 	.globl __io_in
                            192 	.globl __io_status
                            193 	.globl _sys_time
                            194 	.globl __cpu
                            195 ;--------------------------------------------------------
                            196 ; special function registers
                            197 ;--------------------------------------------------------
                            198 ;--------------------------------------------------------
                            199 ; special function bits 
                            200 ;--------------------------------------------------------
                            201 ;--------------------------------------------------------
                            202 ; internal ram data
                            203 ;--------------------------------------------------------
                            204 	.area _DATA
   0000                     205 _ace::
   0000                     206 	.ds 10
   000A                     207 _two::
   000A                     208 	.ds 10
   0014                     209 _three::
   0014                     210 	.ds 10
   001E                     211 _four::
   001E                     212 	.ds 10
   0028                     213 _five::
   0028                     214 	.ds 10
   0032                     215 _six::
   0032                     216 	.ds 10
   003C                     217 _seven::
   003C                     218 	.ds 10
   0046                     219 _eight::
   0046                     220 	.ds 10
   0050                     221 _nine::
   0050                     222 	.ds 10
   005A                     223 _jack::
   005A                     224 	.ds 10
   0064                     225 _king::
   0064                     226 	.ds 10
                            227 ;--------------------------------------------------------
                            228 ; overlayable items in internal ram 
                            229 ;--------------------------------------------------------
                            230 	.area _OVERLAY
                            231 ;--------------------------------------------------------
                            232 ; indirectly addressable internal ram data
                            233 ;--------------------------------------------------------
                            234 	.area _ISEG
                            235 ;--------------------------------------------------------
                            236 ; bit data
                            237 ;--------------------------------------------------------
                            238 	.area _BSEG
                            239 ;--------------------------------------------------------
                            240 ; external ram data
                            241 ;--------------------------------------------------------
                            242 	.area _XSEG
                            243 ;--------------------------------------------------------
                            244 ; global & static initialisations
                            245 ;--------------------------------------------------------
                            246 	.area _GSINIT
                            247 	.area _GSFINAL
                            248 	.area _GSINIT
                            249 ;--------------------------------------------------------
                            250 ; code
                            251 ;--------------------------------------------------------
                            252 	.area _CODE
                            253 ;	util.c 3
                            254 ; genLabel
                            255 ; genFunction
                            256 ;	---------------------------------
                            257 ; Function performant_delay
                            258 ; ---------------------------------
   0000                     259 ___performant_delay_start:
   0000                     260 _performant_delay:
   0000 C5                  261 	push	bc
                            262 ;	util.c 5
                            263 ; genAssign
   0001 0E 00               264 	ld	c,#0x00
                            265 ; genLabel
   0003                     266 00101$:
                            267 ; genCmpLt
                            268 ; AOP_STK for 
   0003 AF                  269 	xor	a,a
   0004 79                  270 	ld	a,c
   0005 F8 04               271 	lda	hl,4(sp)
   0007 9E                  272 	sbc	a,(hl) ; 2
   0008 D2 12 00            273 	jp	nc,00105$
                            274 ;	util.c 7
                            275 ; genCall
   000B CD 00 00            276 	call	_wait_vbl_done
                            277 ;	util.c 5
                            278 ; genPlus
                            279 ; genPlusIncr
   000E 0C                  280 	inc	c
                            281 ; genGoto
   000F C3 03 00            282 	jp	00101$
                            283 ; genLabel
   0012                     284 00105$:
                            285 ; genEndFunction
   0012 C1                  286 	pop	bc
   0013 C9                  287 	ret
   0014                     288 ___performant_delay_end:
                            289 ;	util.c 11
                            290 ; genLabel
                            291 ; genFunction
                            292 ;	---------------------------------
                            293 ; Function random_number
                            294 ; ---------------------------------
   0014                     295 ___random_number_start:
   0014                     296 _random_number:
   0014 C5                  297 	push	bc
                            298 ;	util.c 12
                            299 ; genCall
   0015 CD 00 00            300 	call	_rand
   0018 4B                  301 	ld	c,e
                            302 ; genCast
                            303 ; Removed redundent load
   0019 79                  304 	ld	a,c
                            305 ; genCast: sign extend untested.
   001A 17                  306 	rla	
   001B 9F                  307 	sbc	a,a
   001C 47                  308 	ld	b,a
                            309 ; genIpush
                            310 ; AOP_STK for 
   001D F8 04               311 	lda	hl,4(sp)
   001F 2A                  312 	ld	a,(hl+)
   0020 66                  313 	ld	h,(hl)
   0021 6F                  314 	ld	l,a
   0022 E5                  315 	push	hl
                            316 ; genIpush
   0023 C5                  317 	push	bc
                            318 ; genCall
   0024 CD 00 00            319 	call	__modsint
   0027 42                  320 	ld	b,d
   0028 4B                  321 	ld	c,e
   0029 E8 04               322 	lda	sp,4(sp)
                            323 ; genPlus
                            324 ; genPlusIncr
   002B 03                  325 	inc	bc
                            326 ;	util.c 13
                            327 ; genCmpLt
   002C 78                  328 	ld	a,b
   002D CB 7F               329 	bit	7,a
   002F CA 3E 00            330 	jp	z,00102$
                            331 ;	util.c 14
                            332 ; genIpush
   0032 21 FF FF            333 	ld	hl,#0xFFFFFFFF
   0035 E5                  334 	push	hl
                            335 ; genIpush
   0036 C5                  336 	push	bc
                            337 ; genCall
   0037 CD 00 00            338 	call	__mulsint
   003A 42                  339 	ld	b,d
   003B 4B                  340 	ld	c,e
   003C E8 04               341 	lda	sp,4(sp)
                            342 ; genLabel
   003E                     343 00102$:
                            344 ;	util.c 16
                            345 ; genRet
   003E 59                  346 	ld	e,c
   003F 50                  347 	ld	d,b
                            348 ; genLabel
   0040                     349 00103$:
                            350 ; genEndFunction
   0040 C1                  351 	pop	bc
   0041 C9                  352 	ret
   0042                     353 ___random_number_end:
                            354 ;	background.c 15
                            355 ; genLabel
                            356 ; genFunction
                            357 ;	---------------------------------
                            358 ; Function set_background_splash
                            359 ; ---------------------------------
   0042                     360 ___set_background_splash_start:
   0042                     361 _set_background_splash:
   0042 C5                  362 	push	bc
                            363 ;	background.c 16
                            364 ; genIpush
   0043 21 5B 0F            365 	ld	hl,#_splash_data + 0
   0046 E5                  366 	push	hl
                            367 ; genIpush
   0047 3E D5               368 	ld	a,#0xD5
   0049 F5                  369 	push	af
   004A 33                  370 	inc	sp
                            371 ; genIpush
   004B 3E 00               372 	ld	a,#0x00
   004D F5                  373 	push	af
   004E 33                  374 	inc	sp
                            375 ; genCall
   004F CD 00 00            376 	call	_set_bkg_data
   0052 E8 04               377 	lda	sp,4(sp)
                            378 ;	background.c 17
                            379 ; genIpush
   0054 21 AB 1C            380 	ld	hl,#_splash_map + 0
   0057 E5                  381 	push	hl
                            382 ; genIpush
   0058 3E 12               383 	ld	a,#0x12
   005A F5                  384 	push	af
   005B 33                  385 	inc	sp
                            386 ; genIpush
   005C 3E 14               387 	ld	a,#0x14
   005E F5                  388 	push	af
   005F 33                  389 	inc	sp
                            390 ; genIpush
   0060 3E 00               391 	ld	a,#0x00
   0062 F5                  392 	push	af
   0063 33                  393 	inc	sp
                            394 ; genIpush
   0064 3E 00               395 	ld	a,#0x00
   0066 F5                  396 	push	af
   0067 33                  397 	inc	sp
                            398 ; genCall
   0068 CD 00 00            399 	call	_set_bkg_tiles
   006B E8 06               400 	lda	sp,6(sp)
                            401 ; genLabel
   006D                     402 00101$:
                            403 ; genEndFunction
   006D C1                  404 	pop	bc
   006E C9                  405 	ret
   006F                     406 ___set_background_splash_end:
                            407 ;	background.c 20
                            408 ; genLabel
                            409 ; genFunction
                            410 ;	---------------------------------
                            411 ; Function set_background_credits
                            412 ; ---------------------------------
   006F                     413 ___set_background_credits_start:
   006F                     414 _set_background_credits:
   006F C5                  415 	push	bc
                            416 ;	background.c 21
                            417 ; genIpush
   0070 21 13 1E            418 	ld	hl,#_credits_data + 0
   0073 E5                  419 	push	hl
                            420 ; genIpush
   0074 3E 92               421 	ld	a,#0x92
   0076 F5                  422 	push	af
   0077 33                  423 	inc	sp
                            424 ; genIpush
   0078 3E 00               425 	ld	a,#0x00
   007A F5                  426 	push	af
   007B 33                  427 	inc	sp
                            428 ; genCall
   007C CD 00 00            429 	call	_set_bkg_data
   007F E8 04               430 	lda	sp,4(sp)
                            431 ;	background.c 22
                            432 ; genIpush
   0081 21 33 27            433 	ld	hl,#_credits_map + 0
   0084 E5                  434 	push	hl
                            435 ; genIpush
   0085 3E 12               436 	ld	a,#0x12
   0087 F5                  437 	push	af
   0088 33                  438 	inc	sp
                            439 ; genIpush
   0089 3E 14               440 	ld	a,#0x14
   008B F5                  441 	push	af
   008C 33                  442 	inc	sp
                            443 ; genIpush
   008D 3E 00               444 	ld	a,#0x00
   008F F5                  445 	push	af
   0090 33                  446 	inc	sp
                            447 ; genIpush
   0091 3E 00               448 	ld	a,#0x00
   0093 F5                  449 	push	af
   0094 33                  450 	inc	sp
                            451 ; genCall
   0095 CD 00 00            452 	call	_set_bkg_tiles
   0098 E8 06               453 	lda	sp,6(sp)
                            454 ; genLabel
   009A                     455 00101$:
                            456 ; genEndFunction
   009A C1                  457 	pop	bc
   009B C9                  458 	ret
   009C                     459 ___set_background_credits_end:
                            460 ;	background.c 25
                            461 ; genLabel
                            462 ; genFunction
                            463 ;	---------------------------------
                            464 ; Function set_background_howto
                            465 ; ---------------------------------
   009C                     466 ___set_background_howto_start:
   009C                     467 _set_background_howto:
   009C C5                  468 	push	bc
                            469 ;	background.c 26
                            470 ; genIpush
   009D 21 9B 28            471 	ld	hl,#_how_to_data + 0
   00A0 E5                  472 	push	hl
                            473 ; genIpush
   00A1 3E 51               474 	ld	a,#0x51
   00A3 F5                  475 	push	af
   00A4 33                  476 	inc	sp
                            477 ; genIpush
   00A5 3E 00               478 	ld	a,#0x00
   00A7 F5                  479 	push	af
   00A8 33                  480 	inc	sp
                            481 ; genCall
   00A9 CD 00 00            482 	call	_set_bkg_data
   00AC E8 04               483 	lda	sp,4(sp)
                            484 ;	background.c 27
                            485 ; genIpush
   00AE 21 AB 2D            486 	ld	hl,#_how_to_map + 0
   00B1 E5                  487 	push	hl
                            488 ; genIpush
   00B2 3E 12               489 	ld	a,#0x12
   00B4 F5                  490 	push	af
   00B5 33                  491 	inc	sp
                            492 ; genIpush
   00B6 3E 14               493 	ld	a,#0x14
   00B8 F5                  494 	push	af
   00B9 33                  495 	inc	sp
                            496 ; genIpush
   00BA 3E 00               497 	ld	a,#0x00
   00BC F5                  498 	push	af
   00BD 33                  499 	inc	sp
                            500 ; genIpush
   00BE 3E 00               501 	ld	a,#0x00
   00C0 F5                  502 	push	af
   00C1 33                  503 	inc	sp
                            504 ; genCall
   00C2 CD 00 00            505 	call	_set_bkg_tiles
   00C5 E8 06               506 	lda	sp,6(sp)
                            507 ; genLabel
   00C7                     508 00101$:
                            509 ; genEndFunction
   00C7 C1                  510 	pop	bc
   00C8 C9                  511 	ret
   00C9                     512 ___set_background_howto_end:
                            513 ;	background.c 30
                            514 ; genLabel
                            515 ; genFunction
                            516 ;	---------------------------------
                            517 ; Function set_background_devil_normal
                            518 ; ---------------------------------
   00C9                     519 ___set_background_devil_normal_start:
   00C9                     520 _set_background_devil_normal:
   00C9 C5                  521 	push	bc
                            522 ;	background.c 31
                            523 ; genIpush
   00CA 21 63 44            524 	ld	hl,#_devil_normal_data + 0
   00CD E5                  525 	push	hl
                            526 ; genIpush
   00CE 3E 82               527 	ld	a,#0x82
   00D0 F5                  528 	push	af
   00D1 33                  529 	inc	sp
                            530 ; genIpush
   00D2 3E 00               531 	ld	a,#0x00
   00D4 F5                  532 	push	af
   00D5 33                  533 	inc	sp
                            534 ; genCall
   00D6 CD 00 00            535 	call	_set_bkg_data
   00D9 E8 04               536 	lda	sp,4(sp)
                            537 ;	background.c 32
                            538 ; genIpush
   00DB 21 83 4C            539 	ld	hl,#_devil_normal_map + 0
   00DE E5                  540 	push	hl
                            541 ; genIpush
   00DF 3E 12               542 	ld	a,#0x12
   00E1 F5                  543 	push	af
   00E2 33                  544 	inc	sp
                            545 ; genIpush
   00E3 3E 14               546 	ld	a,#0x14
   00E5 F5                  547 	push	af
   00E6 33                  548 	inc	sp
                            549 ; genIpush
   00E7 3E 00               550 	ld	a,#0x00
   00E9 F5                  551 	push	af
   00EA 33                  552 	inc	sp
                            553 ; genIpush
   00EB 3E 00               554 	ld	a,#0x00
   00ED F5                  555 	push	af
   00EE 33                  556 	inc	sp
                            557 ; genCall
   00EF CD 00 00            558 	call	_set_bkg_tiles
   00F2 E8 06               559 	lda	sp,6(sp)
                            560 ; genLabel
   00F4                     561 00101$:
                            562 ; genEndFunction
   00F4 C1                  563 	pop	bc
   00F5 C9                  564 	ret
   00F6                     565 ___set_background_devil_normal_end:
                            566 ;	background.c 35
                            567 ; genLabel
                            568 ; genFunction
                            569 ;	---------------------------------
                            570 ; Function set_background_devil_angry
                            571 ; ---------------------------------
   00F6                     572 ___set_background_devil_angry_start:
   00F6                     573 _set_background_devil_angry:
   00F6 C5                  574 	push	bc
                            575 ;	background.c 36
                            576 ; genIpush
   00F7 21 7B 3A            577 	ld	hl,#_devil_angry_data + 0
   00FA E5                  578 	push	hl
                            579 ; genIpush
   00FB 3E 88               580 	ld	a,#0x88
   00FD F5                  581 	push	af
   00FE 33                  582 	inc	sp
                            583 ; genIpush
   00FF 3E 00               584 	ld	a,#0x00
   0101 F5                  585 	push	af
   0102 33                  586 	inc	sp
                            587 ; genCall
   0103 CD 00 00            588 	call	_set_bkg_data
   0106 E8 04               589 	lda	sp,4(sp)
                            590 ;	background.c 37
                            591 ; genIpush
   0108 21 FB 42            592 	ld	hl,#_devil_angry_map + 0
   010B E5                  593 	push	hl
                            594 ; genIpush
   010C 3E 12               595 	ld	a,#0x12
   010E F5                  596 	push	af
   010F 33                  597 	inc	sp
                            598 ; genIpush
   0110 3E 14               599 	ld	a,#0x14
   0112 F5                  600 	push	af
   0113 33                  601 	inc	sp
                            602 ; genIpush
   0114 3E 00               603 	ld	a,#0x00
   0116 F5                  604 	push	af
   0117 33                  605 	inc	sp
                            606 ; genIpush
   0118 3E 00               607 	ld	a,#0x00
   011A F5                  608 	push	af
   011B 33                  609 	inc	sp
                            610 ; genCall
   011C CD 00 00            611 	call	_set_bkg_tiles
   011F E8 06               612 	lda	sp,6(sp)
                            613 ; genLabel
   0121                     614 00101$:
                            615 ; genEndFunction
   0121 C1                  616 	pop	bc
   0122 C9                  617 	ret
   0123                     618 ___set_background_devil_angry_end:
                            619 ;	background.c 40
                            620 ; genLabel
                            621 ; genFunction
                            622 ;	---------------------------------
                            623 ; Function set_background_devil_laugh
                            624 ; ---------------------------------
   0123                     625 ___set_background_devil_laugh_start:
   0123                     626 _set_background_devil_laugh:
   0123 C5                  627 	push	bc
                            628 ;	background.c 41
                            629 ; genIpush
   0124 21 13 2F            630 	ld	hl,#_devil_laugh_data + 0
   0127 E5                  631 	push	hl
                            632 ; genIpush
   0128 3E A0               633 	ld	a,#0xA0
   012A F5                  634 	push	af
   012B 33                  635 	inc	sp
                            636 ; genIpush
   012C 3E 00               637 	ld	a,#0x00
   012E F5                  638 	push	af
   012F 33                  639 	inc	sp
                            640 ; genCall
   0130 CD 00 00            641 	call	_set_bkg_data
   0133 E8 04               642 	lda	sp,4(sp)
                            643 ;	background.c 42
                            644 ; genIpush
   0135 21 13 39            645 	ld	hl,#_devil_laugh_map + 0
   0138 E5                  646 	push	hl
                            647 ; genIpush
   0139 3E 12               648 	ld	a,#0x12
   013B F5                  649 	push	af
   013C 33                  650 	inc	sp
                            651 ; genIpush
   013D 3E 14               652 	ld	a,#0x14
   013F F5                  653 	push	af
   0140 33                  654 	inc	sp
                            655 ; genIpush
   0141 3E 00               656 	ld	a,#0x00
   0143 F5                  657 	push	af
   0144 33                  658 	inc	sp
                            659 ; genIpush
   0145 3E 00               660 	ld	a,#0x00
   0147 F5                  661 	push	af
   0148 33                  662 	inc	sp
                            663 ; genCall
   0149 CD 00 00            664 	call	_set_bkg_tiles
   014C E8 06               665 	lda	sp,6(sp)
                            666 ; genLabel
   014E                     667 00101$:
                            668 ; genEndFunction
   014E C1                  669 	pop	bc
   014F C9                  670 	ret
   0150                     671 ___set_background_devil_laugh_end:
                            672 ;	ui.c 3
                            673 ; genLabel
                            674 ; genFunction
                            675 ;	---------------------------------
                            676 ; Function init_numbers
                            677 ; ---------------------------------
   0150                     678 ___init_numbers_start:
   0150                     679 _init_numbers:
   0150 C5                  680 	push	bc
                            681 ;	ui.c 6
                            682 ; genIpush
   0151 3E 00               683 	ld	a,#0x00
   0153 F5                  684 	push	af
   0154 33                  685 	inc	sp
                            686 ; genIpush
   0155 3E 00               687 	ld	a,#0x00
   0157 F5                  688 	push	af
   0158 33                  689 	inc	sp
                            690 ; genCall
   0159 CD 00 00            691 	call	_set_sprite_tile
   015C E8 02               692 	lda	sp,2(sp)
                            693 ;	ui.c 7
                            694 ; genIpush
   015E 3E 00               695 	ld	a,#0x00
   0160 F5                  696 	push	af
   0161 33                  697 	inc	sp
                            698 ; genIpush
   0162 3E 01               699 	ld	a,#0x01
   0164 F5                  700 	push	af
   0165 33                  701 	inc	sp
                            702 ; genCall
   0166 CD 00 00            703 	call	_set_sprite_tile
   0169 E8 02               704 	lda	sp,2(sp)
                            705 ;	ui.c 8
                            706 ; genIpush
   016B 3E 00               707 	ld	a,#0x00
   016D F5                  708 	push	af
   016E 33                  709 	inc	sp
                            710 ; genIpush
   016F 3E 02               711 	ld	a,#0x02
   0171 F5                  712 	push	af
   0172 33                  713 	inc	sp
                            714 ; genCall
   0173 CD 00 00            715 	call	_set_sprite_tile
   0176 E8 02               716 	lda	sp,2(sp)
                            717 ;	ui.c 9
                            718 ; genIpush
   0178 3E 0B               719 	ld	a,#0x0B
   017A F5                  720 	push	af
   017B 33                  721 	inc	sp
                            722 ; genIpush
   017C 3E 06               723 	ld	a,#0x06
   017E F5                  724 	push	af
   017F 33                  725 	inc	sp
                            726 ; genCall
   0180 CD 00 00            727 	call	_set_sprite_tile
   0183 E8 02               728 	lda	sp,2(sp)
                            729 ;	ui.c 18
                            730 ; genIpush
   0185 3E 14               731 	ld	a,#0x14
   0187 F5                  732 	push	af
   0188 33                  733 	inc	sp
                            734 ; genIpush
   0189 3E 0A               735 	ld	a,#0x0A
   018B F5                  736 	push	af
   018C 33                  737 	inc	sp
                            738 ; genIpush
   018D 3E 00               739 	ld	a,#0x00
   018F F5                  740 	push	af
   0190 33                  741 	inc	sp
                            742 ; genCall
   0191 CD 00 00            743 	call	_move_sprite
   0194 E8 03               744 	lda	sp,3(sp)
                            745 ;	ui.c 19
                            746 ; genIpush
   0196 3E 14               747 	ld	a,#0x14
   0198 F5                  748 	push	af
   0199 33                  749 	inc	sp
                            750 ; genIpush
   019A 3E 12               751 	ld	a,#0x12
   019C F5                  752 	push	af
   019D 33                  753 	inc	sp
                            754 ; genIpush
   019E 3E 01               755 	ld	a,#0x01
   01A0 F5                  756 	push	af
   01A1 33                  757 	inc	sp
                            758 ; genCall
   01A2 CD 00 00            759 	call	_move_sprite
   01A5 E8 03               760 	lda	sp,3(sp)
                            761 ;	ui.c 20
                            762 ; genIpush
   01A7 3E 14               763 	ld	a,#0x14
   01A9 F5                  764 	push	af
   01AA 33                  765 	inc	sp
                            766 ; genIpush
   01AB 3E 1A               767 	ld	a,#0x1A
   01AD F5                  768 	push	af
   01AE 33                  769 	inc	sp
                            770 ; genIpush
   01AF 3E 02               771 	ld	a,#0x02
   01B1 F5                  772 	push	af
   01B2 33                  773 	inc	sp
                            774 ; genCall
   01B3 CD 00 00            775 	call	_move_sprite
   01B6 E8 03               776 	lda	sp,3(sp)
                            777 ;	ui.c 21
                            778 ; genIpush
   01B8 3E 14               779 	ld	a,#0x14
   01BA F5                  780 	push	af
   01BB 33                  781 	inc	sp
                            782 ; genIpush
   01BC 3E 23               783 	ld	a,#0x23
   01BE F5                  784 	push	af
   01BF 33                  785 	inc	sp
                            786 ; genIpush
   01C0 3E 06               787 	ld	a,#0x06
   01C2 F5                  788 	push	af
   01C3 33                  789 	inc	sp
                            790 ; genCall
   01C4 CD 00 00            791 	call	_move_sprite
   01C7 E8 03               792 	lda	sp,3(sp)
                            793 ; genLabel
   01C9                     794 00101$:
                            795 ; genEndFunction
   01C9 C1                  796 	pop	bc
   01CA C9                  797 	ret
   01CB                     798 ___init_numbers_end:
                            799 ;	ui.c 30
                            800 ; genLabel
                            801 ; genFunction
                            802 ;	---------------------------------
                            803 ; Function set_souls
                            804 ; ---------------------------------
   01CB                     805 ___set_souls_start:
   01CB                     806 _set_souls:
   01CB C5                  807 	push	bc
   01CC E8 FA               808 	lda sp,-6(sp)
                            809 ;	ui.c 31
                            810 ; genIpush
   01CE 21 64 00            811 	ld	hl,#0x0064
   01D1 E5                  812 	push	hl
                            813 ; genIpush
                            814 ; AOP_STK for 
   01D2 F8 0C               815 	lda	hl,12(sp)
   01D4 2A                  816 	ld	a,(hl+)
   01D5 66                  817 	ld	h,(hl)
   01D6 6F                  818 	ld	l,a
   01D7 E5                  819 	push	hl
                            820 ; genCall
   01D8 CD 00 00            821 	call	__divsint
   01DB 42                  822 	ld	b,d
   01DC 4B                  823 	ld	c,e
   01DD E8 04               824 	lda	sp,4(sp)
                            825 ; genIpush
   01DF 21 0A 00            826 	ld	hl,#0x000A
   01E2 E5                  827 	push	hl
                            828 ; genIpush
   01E3 C5                  829 	push	bc
                            830 ; genCall
   01E4 CD 00 00            831 	call	__modsint
                            832 ; AOP_STK for _set_souls_hundreds_1_1
   01E7 F8 09               833 	lda	hl,9(sp)
   01E9 72                  834 	ld	(hl),d ; 3
   01EA 2B                  835 	dec	hl
   01EB 73                  836 	ld	(hl),e ; 3
   01EC E8 04               837 	lda	sp,4(sp)
                            838 ;	ui.c 32
                            839 ; genIpush
   01EE 21 0A 00            840 	ld	hl,#0x000A
   01F1 E5                  841 	push	hl
                            842 ; genIpush
                            843 ; AOP_STK for 
   01F2 F8 0C               844 	lda	hl,12(sp)
   01F4 2A                  845 	ld	a,(hl+)
   01F5 66                  846 	ld	h,(hl)
   01F6 6F                  847 	ld	l,a
   01F7 E5                  848 	push	hl
                            849 ; genCall
   01F8 CD 00 00            850 	call	__divsint
   01FB 42                  851 	ld	b,d
   01FC 4B                  852 	ld	c,e
   01FD E8 04               853 	lda	sp,4(sp)
                            854 ; genIpush
   01FF 21 0A 00            855 	ld	hl,#0x000A
   0202 E5                  856 	push	hl
                            857 ; genIpush
   0203 C5                  858 	push	bc
                            859 ; genCall
   0204 CD 00 00            860 	call	__modsint
                            861 ; AOP_STK for _set_souls_tens_1_1
   0207 F8 07               862 	lda	hl,7(sp)
   0209 72                  863 	ld	(hl),d ; 3
   020A 2B                  864 	dec	hl
   020B 73                  865 	ld	(hl),e ; 3
   020C E8 04               866 	lda	sp,4(sp)
                            867 ;	ui.c 33
                            868 ; genIpush
   020E 21 0A 00            869 	ld	hl,#0x000A
   0211 E5                  870 	push	hl
                            871 ; genIpush
                            872 ; AOP_STK for 
   0212 F8 0C               873 	lda	hl,12(sp)
   0214 2A                  874 	ld	a,(hl+)
   0215 66                  875 	ld	h,(hl)
   0216 6F                  876 	ld	l,a
   0217 E5                  877 	push	hl
                            878 ; genCall
   0218 CD 00 00            879 	call	__modsint
                            880 ; AOP_STK for _set_souls_ones_1_1
   021B F8 05               881 	lda	hl,5(sp)
   021D 72                  882 	ld	(hl),d ; 3
   021E 2B                  883 	dec	hl
   021F 73                  884 	ld	(hl),e ; 3
   0220 E8 04               885 	lda	sp,4(sp)
                            886 ;	ui.c 35
                            887 ; genCast
                            888 ; AOP_STK for _set_souls_hundreds_1_1
   0222 F8 04               889 	lda	hl,4(sp)
   0224 4E                  890 	ld	c,(hl)
                            891 ; genIpush
   0225 79                  892 	ld	a,c
   0226 F5                  893 	push	af
   0227 33                  894 	inc	sp
                            895 ; genIpush
   0228 3E 00               896 	ld	a,#0x00
   022A F5                  897 	push	af
   022B 33                  898 	inc	sp
                            899 ; genCall
   022C CD 00 00            900 	call	_set_sprite_tile
   022F E8 02               901 	lda	sp,2(sp)
                            902 ;	ui.c 36
                            903 ; genCast
                            904 ; AOP_STK for _set_souls_tens_1_1
   0231 F8 02               905 	lda	hl,2(sp)
   0233 4E                  906 	ld	c,(hl)
                            907 ; genIpush
   0234 79                  908 	ld	a,c
   0235 F5                  909 	push	af
   0236 33                  910 	inc	sp
                            911 ; genIpush
   0237 3E 01               912 	ld	a,#0x01
   0239 F5                  913 	push	af
   023A 33                  914 	inc	sp
                            915 ; genCall
   023B CD 00 00            916 	call	_set_sprite_tile
   023E E8 02               917 	lda	sp,2(sp)
                            918 ;	ui.c 37
                            919 ; genCast
                            920 ; AOP_STK for _set_souls_ones_1_1
   0240 F8 00               921 	lda	hl,0(sp)
   0242 4E                  922 	ld	c,(hl)
                            923 ; genIpush
   0243 79                  924 	ld	a,c
   0244 F5                  925 	push	af
   0245 33                  926 	inc	sp
                            927 ; genIpush
   0246 3E 02               928 	ld	a,#0x02
   0248 F5                  929 	push	af
   0249 33                  930 	inc	sp
                            931 ; genCall
   024A CD 00 00            932 	call	_set_sprite_tile
   024D E8 02               933 	lda	sp,2(sp)
                            934 ; genLabel
   024F                     935 00101$:
                            936 ; genEndFunction
   024F E8 06               937 	lda	sp,6(sp)
   0251 C1                  938 	pop bc
   0252 C9                  939 	ret
   0253                     940 ___set_souls_end:
                            941 ;	main.c 24
                            942 ; genLabel
                            943 ; genFunction
                            944 ;	---------------------------------
                            945 ; Function setupAce
                            946 ; ---------------------------------
   0253                     947 ___setupAce_start:
   0253                     948 _setupAce:
   0253 C5                  949 	push	bc
                            950 ;	main.c 26
                            951 ; genAssign (pointer)
   0254 11 00 00            952 	ld	de,#_ace + 0
   0257 3E 0C               953 	ld	a,#0x0C
   0259 12                  954 	ld	(de),a
                            955 ;	main.c 27
                            956 ; genPlus
                            957 ; genPlusIncr
   025A 11 01 00            958 	ld	de,#_ace + 1
                            959 ; genAssign (pointer)
   025D 3E 0D               960 	ld	a,#0x0D
   025F 12                  961 	ld	(de),a
                            962 ;	main.c 28
                            963 ; genPlus
                            964 ; genPlusIncr
   0260 11 02 00            965 	ld	de,#_ace + 2
                            966 ; genAssign (pointer)
   0263 3E 0E               967 	ld	a,#0x0E
   0265 12                  968 	ld	(de),a
                            969 ;	main.c 29
                            970 ; genPlus
                            971 ; genPlusIncr
   0266 11 03 00            972 	ld	de,#_ace + 3
                            973 ; genAssign (pointer)
   0269 3E 0F               974 	ld	a,#0x0F
   026B 12                  975 	ld	(de),a
                            976 ;	main.c 30
                            977 ; genPlus
                            978 ; genPlusIncr
   026C 11 04 00            979 	ld	de,#_ace + 4
                            980 ; genAssign (pointer)
   026F 3E 10               981 	ld	a,#0x10
   0271 12                  982 	ld	(de),a
                            983 ;	main.c 31
                            984 ; genPlus
                            985 ; genPlusIncr
   0272 11 05 00            986 	ld	de,#_ace + 5
                            987 ; genAssign (pointer)
   0275 3E 11               988 	ld	a,#0x11
   0277 12                  989 	ld	(de),a
                            990 ;	main.c 32
                            991 ; genPlus
                            992 ; genPlusIncr
   0278 11 06 00            993 	ld	de,#_ace + 6
                            994 ; genAssign (pointer)
   027B 3E 12               995 	ld	a,#0x12
   027D 12                  996 	ld	(de),a
                            997 ;	main.c 33
                            998 ; genPlus
                            999 ; genPlusIncr
   027E 11 07 00           1000 	ld	de,#_ace + 7
                           1001 ; genAssign (pointer)
   0281 3E 13              1002 	ld	a,#0x13
   0283 12                 1003 	ld	(de),a
                           1004 ; genLabel
   0284                    1005 00101$:
                           1006 ; genEndFunction
   0284 C1                 1007 	pop	bc
   0285 C9                 1008 	ret
   0286                    1009 ___setupAce_end:
                           1010 ;	main.c 36
                           1011 ; genLabel
                           1012 ; genFunction
                           1013 ;	---------------------------------
                           1014 ; Function setupTwo
                           1015 ; ---------------------------------
   0286                    1016 ___setupTwo_start:
   0286                    1017 _setupTwo:
   0286 C5                 1018 	push	bc
                           1019 ;	main.c 38
                           1020 ; genAssign (pointer)
   0287 11 0A 00           1021 	ld	de,#_two + 0
   028A 3E 14              1022 	ld	a,#0x14
   028C 12                 1023 	ld	(de),a
                           1024 ;	main.c 39
                           1025 ; genPlus
                           1026 ; genPlusIncr
   028D 11 0B 00           1027 	ld	de,#_two + 1
                           1028 ; genAssign (pointer)
   0290 3E 0D              1029 	ld	a,#0x0D
   0292 12                 1030 	ld	(de),a
                           1031 ;	main.c 40
                           1032 ; genPlus
                           1033 ; genPlusIncr
   0293 11 0C 00           1034 	ld	de,#_two + 2
                           1035 ; genAssign (pointer)
   0296 3E 15              1036 	ld	a,#0x15
   0298 12                 1037 	ld	(de),a
                           1038 ;	main.c 41
                           1039 ; genPlus
                           1040 ; genPlusIncr
   0299 11 0D 00           1041 	ld	de,#_two + 3
                           1042 ; genAssign (pointer)
   029C 3E 16              1043 	ld	a,#0x16
   029E 12                 1044 	ld	(de),a
                           1045 ;	main.c 42
                           1046 ; genPlus
                           1047 ; genPlusIncr
   029F 11 0E 00           1048 	ld	de,#_two + 4
                           1049 ; genAssign (pointer)
   02A2 3E 17              1050 	ld	a,#0x17
   02A4 12                 1051 	ld	(de),a
                           1052 ;	main.c 43
                           1053 ; genPlus
                           1054 ; genPlusIncr
   02A5 11 0F 00           1055 	ld	de,#_two + 5
                           1056 ; genAssign (pointer)
   02A8 3E 18              1057 	ld	a,#0x18
   02AA 12                 1058 	ld	(de),a
                           1059 ;	main.c 44
                           1060 ; genPlus
                           1061 ; genPlusIncr
   02AB 11 10 00           1062 	ld	de,#_two + 6
                           1063 ; genAssign (pointer)
   02AE 3E 12              1064 	ld	a,#0x12
   02B0 12                 1065 	ld	(de),a
                           1066 ;	main.c 45
                           1067 ; genPlus
                           1068 ; genPlusIncr
   02B1 11 11 00           1069 	ld	de,#_two + 7
                           1070 ; genAssign (pointer)
   02B4 3E 19              1071 	ld	a,#0x19
   02B6 12                 1072 	ld	(de),a
                           1073 ; genLabel
   02B7                    1074 00101$:
                           1075 ; genEndFunction
   02B7 C1                 1076 	pop	bc
   02B8 C9                 1077 	ret
   02B9                    1078 ___setupTwo_end:
                           1079 ;	main.c 48
                           1080 ; genLabel
                           1081 ; genFunction
                           1082 ;	---------------------------------
                           1083 ; Function setupThree
                           1084 ; ---------------------------------
   02B9                    1085 ___setupThree_start:
   02B9                    1086 _setupThree:
   02B9 C5                 1087 	push	bc
                           1088 ;	main.c 50
                           1089 ; genAssign (pointer)
   02BA 11 14 00           1090 	ld	de,#_three + 0
   02BD 3E 1A              1091 	ld	a,#0x1A
   02BF 12                 1092 	ld	(de),a
                           1093 ;	main.c 51
                           1094 ; genPlus
                           1095 ; genPlusIncr
   02C0 11 15 00           1096 	ld	de,#_three + 1
                           1097 ; genAssign (pointer)
   02C3 3E 0D              1098 	ld	a,#0x0D
   02C5 12                 1099 	ld	(de),a
                           1100 ;	main.c 52
                           1101 ; genPlus
                           1102 ; genPlusIncr
   02C6 11 16 00           1103 	ld	de,#_three + 2
                           1104 ; genAssign (pointer)
   02C9 3E 1B              1105 	ld	a,#0x1B
   02CB 12                 1106 	ld	(de),a
                           1107 ;	main.c 53
                           1108 ; genPlus
                           1109 ; genPlusIncr
   02CC 11 17 00           1110 	ld	de,#_three + 3
                           1111 ; genAssign (pointer)
   02CF 3E 1C              1112 	ld	a,#0x1C
   02D1 12                 1113 	ld	(de),a
                           1114 ;	main.c 54
                           1115 ; genPlus
                           1116 ; genPlusIncr
   02D2 11 18 00           1117 	ld	de,#_three + 4
                           1118 ; genAssign (pointer)
   02D5 3E 1D              1119 	ld	a,#0x1D
   02D7 12                 1120 	ld	(de),a
                           1121 ;	main.c 55
                           1122 ; genPlus
                           1123 ; genPlusIncr
   02D8 11 19 00           1124 	ld	de,#_three + 5
                           1125 ; genAssign (pointer)
   02DB 3E 1E              1126 	ld	a,#0x1E
   02DD 12                 1127 	ld	(de),a
                           1128 ;	main.c 56
                           1129 ; genPlus
                           1130 ; genPlusIncr
   02DE 11 1A 00           1131 	ld	de,#_three + 6
                           1132 ; genAssign (pointer)
   02E1 3E 12              1133 	ld	a,#0x12
   02E3 12                 1134 	ld	(de),a
                           1135 ;	main.c 57
                           1136 ; genPlus
                           1137 ; genPlusIncr
   02E4 11 1B 00           1138 	ld	de,#_three + 7
                           1139 ; genAssign (pointer)
   02E7 3E 1F              1140 	ld	a,#0x1F
   02E9 12                 1141 	ld	(de),a
                           1142 ; genLabel
   02EA                    1143 00101$:
                           1144 ; genEndFunction
   02EA C1                 1145 	pop	bc
   02EB C9                 1146 	ret
   02EC                    1147 ___setupThree_end:
                           1148 ;	main.c 60
                           1149 ; genLabel
                           1150 ; genFunction
                           1151 ;	---------------------------------
                           1152 ; Function setupFour
                           1153 ; ---------------------------------
   02EC                    1154 ___setupFour_start:
   02EC                    1155 _setupFour:
   02EC C5                 1156 	push	bc
                           1157 ;	main.c 62
                           1158 ; genAssign (pointer)
   02ED 11 1E 00           1159 	ld	de,#_four + 0
   02F0 3E 20              1160 	ld	a,#0x20
   02F2 12                 1161 	ld	(de),a
                           1162 ;	main.c 63
                           1163 ; genPlus
                           1164 ; genPlusIncr
   02F3 11 1F 00           1165 	ld	de,#_four + 1
                           1166 ; genAssign (pointer)
   02F6 3E 0D              1167 	ld	a,#0x0D
   02F8 12                 1168 	ld	(de),a
                           1169 ;	main.c 64
                           1170 ; genPlus
                           1171 ; genPlusIncr
   02F9 11 20 00           1172 	ld	de,#_four + 2
                           1173 ; genAssign (pointer)
   02FC 3E 21              1174 	ld	a,#0x21
   02FE 12                 1175 	ld	(de),a
                           1176 ;	main.c 65
                           1177 ; genPlus
                           1178 ; genPlusIncr
   02FF 11 21 00           1179 	ld	de,#_four + 3
                           1180 ; genAssign (pointer)
   0302 3E 22              1181 	ld	a,#0x22
   0304 12                 1182 	ld	(de),a
                           1183 ;	main.c 66
                           1184 ; genPlus
                           1185 ; genPlusIncr
   0305 11 22 00           1186 	ld	de,#_four + 4
                           1187 ; genAssign (pointer)
   0308 3E 21              1188 	ld	a,#0x21
   030A 12                 1189 	ld	(de),a
                           1190 ;	main.c 67
                           1191 ; genPlus
                           1192 ; genPlusIncr
   030B 11 23 00           1193 	ld	de,#_four + 5
                           1194 ; genAssign (pointer)
   030E 3E 22              1195 	ld	a,#0x22
   0310 12                 1196 	ld	(de),a
                           1197 ;	main.c 68
                           1198 ; genPlus
                           1199 ; genPlusIncr
   0311 11 24 00           1200 	ld	de,#_four + 6
                           1201 ; genAssign (pointer)
   0314 3E 12              1202 	ld	a,#0x12
   0316 12                 1203 	ld	(de),a
                           1204 ;	main.c 69
                           1205 ; genPlus
                           1206 ; genPlusIncr
   0317 11 25 00           1207 	ld	de,#_four + 7
                           1208 ; genAssign (pointer)
   031A 3E 23              1209 	ld	a,#0x23
   031C 12                 1210 	ld	(de),a
                           1211 ; genLabel
   031D                    1212 00101$:
                           1213 ; genEndFunction
   031D C1                 1214 	pop	bc
   031E C9                 1215 	ret
   031F                    1216 ___setupFour_end:
                           1217 ;	main.c 72
                           1218 ; genLabel
                           1219 ; genFunction
                           1220 ;	---------------------------------
                           1221 ; Function setupFive
                           1222 ; ---------------------------------
   031F                    1223 ___setupFive_start:
   031F                    1224 _setupFive:
   031F C5                 1225 	push	bc
                           1226 ;	main.c 74
                           1227 ; genAssign (pointer)
   0320 11 28 00           1228 	ld	de,#_five + 0
   0323 3E 24              1229 	ld	a,#0x24
   0325 12                 1230 	ld	(de),a
                           1231 ;	main.c 75
                           1232 ; genPlus
                           1233 ; genPlusIncr
   0326 11 29 00           1234 	ld	de,#_five + 1
                           1235 ; genAssign (pointer)
   0329 3E 25              1236 	ld	a,#0x25
   032B 12                 1237 	ld	(de),a
                           1238 ;	main.c 76
                           1239 ; genPlus
                           1240 ; genPlusIncr
   032C 11 2A 00           1241 	ld	de,#_five + 2
                           1242 ; genAssign (pointer)
   032F 3E 26              1243 	ld	a,#0x26
   0331 12                 1244 	ld	(de),a
                           1245 ;	main.c 77
                           1246 ; genPlus
                           1247 ; genPlusIncr
   0332 11 2B 00           1248 	ld	de,#_five + 3
                           1249 ; genAssign (pointer)
   0335 3E 27              1250 	ld	a,#0x27
   0337 12                 1251 	ld	(de),a
                           1252 ;	main.c 78
                           1253 ; genPlus
                           1254 ; genPlusIncr
   0338 11 2C 00           1255 	ld	de,#_five + 4
                           1256 ; genAssign (pointer)
   033B 3E 28              1257 	ld	a,#0x28
   033D 12                 1258 	ld	(de),a
                           1259 ;	main.c 79
                           1260 ; genPlus
                           1261 ; genPlusIncr
   033E 11 2D 00           1262 	ld	de,#_five + 5
                           1263 ; genAssign (pointer)
   0341 3E 29              1264 	ld	a,#0x29
   0343 12                 1265 	ld	(de),a
                           1266 ;	main.c 80
                           1267 ; genPlus
                           1268 ; genPlusIncr
   0344 11 2E 00           1269 	ld	de,#_five + 6
                           1270 ; genAssign (pointer)
   0347 3E 2A              1271 	ld	a,#0x2A
   0349 12                 1272 	ld	(de),a
                           1273 ;	main.c 81
                           1274 ; genPlus
                           1275 ; genPlusIncr
   034A 11 2F 00           1276 	ld	de,#_five + 7
                           1277 ; genAssign (pointer)
   034D 3E 2B              1278 	ld	a,#0x2B
   034F 12                 1279 	ld	(de),a
                           1280 ; genLabel
   0350                    1281 00101$:
                           1282 ; genEndFunction
   0350 C1                 1283 	pop	bc
   0351 C9                 1284 	ret
   0352                    1285 ___setupFive_end:
                           1286 ;	main.c 84
                           1287 ; genLabel
                           1288 ; genFunction
                           1289 ;	---------------------------------
                           1290 ; Function setupSix
                           1291 ; ---------------------------------
   0352                    1292 ___setupSix_start:
   0352                    1293 _setupSix:
   0352 C5                 1294 	push	bc
                           1295 ;	main.c 86
                           1296 ; genAssign (pointer)
   0353 11 32 00           1297 	ld	de,#_six + 0
   0356 3E 2C              1298 	ld	a,#0x2C
   0358 12                 1299 	ld	(de),a
                           1300 ;	main.c 87
                           1301 ; genPlus
                           1302 ; genPlusIncr
   0359 11 33 00           1303 	ld	de,#_six + 1
                           1304 ; genAssign (pointer)
   035C 3E 25              1305 	ld	a,#0x25
   035E 12                 1306 	ld	(de),a
                           1307 ;	main.c 88
                           1308 ; genPlus
                           1309 ; genPlusIncr
   035F 11 34 00           1310 	ld	de,#_six + 2
                           1311 ; genAssign (pointer)
   0362 3E 2D              1312 	ld	a,#0x2D
   0364 12                 1313 	ld	(de),a
                           1314 ;	main.c 89
                           1315 ; genPlus
                           1316 ; genPlusIncr
   0365 11 35 00           1317 	ld	de,#_six + 3
                           1318 ; genAssign (pointer)
   0368 3E 2E              1319 	ld	a,#0x2E
   036A 12                 1320 	ld	(de),a
                           1321 ;	main.c 90
                           1322 ; genPlus
                           1323 ; genPlusIncr
   036B 11 36 00           1324 	ld	de,#_six + 4
                           1325 ; genAssign (pointer)
   036E 3E 2F              1326 	ld	a,#0x2F
   0370 12                 1327 	ld	(de),a
                           1328 ;	main.c 91
                           1329 ; genPlus
                           1330 ; genPlusIncr
   0371 11 37 00           1331 	ld	de,#_six + 5
                           1332 ; genAssign (pointer)
   0374 3E 30              1333 	ld	a,#0x30
   0376 12                 1334 	ld	(de),a
                           1335 ;	main.c 92
                           1336 ; genPlus
                           1337 ; genPlusIncr
   0377 11 38 00           1338 	ld	de,#_six + 6
                           1339 ; genAssign (pointer)
   037A 3E 2A              1340 	ld	a,#0x2A
   037C 12                 1341 	ld	(de),a
                           1342 ;	main.c 93
                           1343 ; genPlus
                           1344 ; genPlusIncr
   037D 11 39 00           1345 	ld	de,#_six + 7
                           1346 ; genAssign (pointer)
   0380 3E 31              1347 	ld	a,#0x31
   0382 12                 1348 	ld	(de),a
                           1349 ; genLabel
   0383                    1350 00101$:
                           1351 ; genEndFunction
   0383 C1                 1352 	pop	bc
   0384 C9                 1353 	ret
   0385                    1354 ___setupSix_end:
                           1355 ;	main.c 96
                           1356 ; genLabel
                           1357 ; genFunction
                           1358 ;	---------------------------------
                           1359 ; Function setupSeven
                           1360 ; ---------------------------------
   0385                    1361 ___setupSeven_start:
   0385                    1362 _setupSeven:
   0385 C5                 1363 	push	bc
                           1364 ;	main.c 98
                           1365 ; genAssign (pointer)
   0386 11 3C 00           1366 	ld	de,#_seven + 0
   0389 3E 32              1367 	ld	a,#0x32
   038B 12                 1368 	ld	(de),a
                           1369 ;	main.c 99
                           1370 ; genPlus
                           1371 ; genPlusIncr
   038C 11 3D 00           1372 	ld	de,#_seven + 1
                           1373 ; genAssign (pointer)
   038F 3E 33              1374 	ld	a,#0x33
   0391 12                 1375 	ld	(de),a
                           1376 ;	main.c 100
                           1377 ; genPlus
                           1378 ; genPlusIncr
   0392 11 3E 00           1379 	ld	de,#_seven + 2
                           1380 ; genAssign (pointer)
   0395 3E 34              1381 	ld	a,#0x34
   0397 12                 1382 	ld	(de),a
                           1383 ;	main.c 101
                           1384 ; genPlus
                           1385 ; genPlusIncr
   0398 11 3F 00           1386 	ld	de,#_seven + 3
                           1387 ; genAssign (pointer)
   039B 3E 35              1388 	ld	a,#0x35
   039D 12                 1389 	ld	(de),a
                           1390 ;	main.c 102
                           1391 ; genPlus
                           1392 ; genPlusIncr
   039E 11 40 00           1393 	ld	de,#_seven + 4
                           1394 ; genAssign (pointer)
   03A1 3E 36              1395 	ld	a,#0x36
   03A3 12                 1396 	ld	(de),a
                           1397 ;	main.c 103
                           1398 ; genPlus
                           1399 ; genPlusIncr
   03A4 11 41 00           1400 	ld	de,#_seven + 5
                           1401 ; genAssign (pointer)
   03A7 3E 37              1402 	ld	a,#0x37
   03A9 12                 1403 	ld	(de),a
                           1404 ;	main.c 104
                           1405 ; genPlus
                           1406 ; genPlusIncr
   03AA 11 42 00           1407 	ld	de,#_seven + 6
                           1408 ; genAssign (pointer)
   03AD 3E 2A              1409 	ld	a,#0x2A
   03AF 12                 1410 	ld	(de),a
                           1411 ;	main.c 105
                           1412 ; genPlus
                           1413 ; genPlusIncr
   03B0 11 43 00           1414 	ld	de,#_seven + 7
                           1415 ; genAssign (pointer)
   03B3 3E 38              1416 	ld	a,#0x38
   03B5 12                 1417 	ld	(de),a
                           1418 ; genLabel
   03B6                    1419 00101$:
                           1420 ; genEndFunction
   03B6 C1                 1421 	pop	bc
   03B7 C9                 1422 	ret
   03B8                    1423 ___setupSeven_end:
                           1424 ;	main.c 108
                           1425 ; genLabel
                           1426 ; genFunction
                           1427 ;	---------------------------------
                           1428 ; Function setupEight
                           1429 ; ---------------------------------
   03B8                    1430 ___setupEight_start:
   03B8                    1431 _setupEight:
   03B8 C5                 1432 	push	bc
                           1433 ;	main.c 110
                           1434 ; genAssign (pointer)
   03B9 11 46 00           1435 	ld	de,#_eight + 0
   03BC 3E 39              1436 	ld	a,#0x39
   03BE 12                 1437 	ld	(de),a
                           1438 ;	main.c 111
                           1439 ; genPlus
                           1440 ; genPlusIncr
   03BF 11 47 00           1441 	ld	de,#_eight + 1
                           1442 ; genAssign (pointer)
   03C2 3E 3A              1443 	ld	a,#0x3A
   03C4 12                 1444 	ld	(de),a
                           1445 ;	main.c 112
                           1446 ; genPlus
                           1447 ; genPlusIncr
   03C5 11 48 00           1448 	ld	de,#_eight + 2
                           1449 ; genAssign (pointer)
   03C8 3E 3B              1450 	ld	a,#0x3B
   03CA 12                 1451 	ld	(de),a
                           1452 ;	main.c 113
                           1453 ; genPlus
                           1454 ; genPlusIncr
   03CB 11 49 00           1455 	ld	de,#_eight + 3
                           1456 ; genAssign (pointer)
   03CE 3E 3C              1457 	ld	a,#0x3C
   03D0 12                 1458 	ld	(de),a
                           1459 ;	main.c 114
                           1460 ; genPlus
                           1461 ; genPlusIncr
   03D1 11 4A 00           1462 	ld	de,#_eight + 4
                           1463 ; genAssign (pointer)
   03D4 3E 3D              1464 	ld	a,#0x3D
   03D6 12                 1465 	ld	(de),a
                           1466 ;	main.c 115
                           1467 ; genPlus
                           1468 ; genPlusIncr
   03D7 11 4B 00           1469 	ld	de,#_eight + 5
                           1470 ; genAssign (pointer)
   03DA 3E 3E              1471 	ld	a,#0x3E
   03DC 12                 1472 	ld	(de),a
                           1473 ;	main.c 116
                           1474 ; genPlus
                           1475 ; genPlusIncr
   03DD 11 4C 00           1476 	ld	de,#_eight + 6
                           1477 ; genAssign (pointer)
   03E0 3E 2A              1478 	ld	a,#0x2A
   03E2 12                 1479 	ld	(de),a
                           1480 ;	main.c 117
                           1481 ; genPlus
                           1482 ; genPlusIncr
   03E3 11 4D 00           1483 	ld	de,#_eight + 7
                           1484 ; genAssign (pointer)
   03E6 3E 3F              1485 	ld	a,#0x3F
   03E8 12                 1486 	ld	(de),a
                           1487 ; genLabel
   03E9                    1488 00101$:
                           1489 ; genEndFunction
   03E9 C1                 1490 	pop	bc
   03EA C9                 1491 	ret
   03EB                    1492 ___setupEight_end:
                           1493 ;	main.c 120
                           1494 ; genLabel
                           1495 ; genFunction
                           1496 ;	---------------------------------
                           1497 ; Function setupNine
                           1498 ; ---------------------------------
   03EB                    1499 ___setupNine_start:
   03EB                    1500 _setupNine:
   03EB C5                 1501 	push	bc
                           1502 ;	main.c 122
                           1503 ; genAssign (pointer)
   03EC 11 50 00           1504 	ld	de,#_nine + 0
   03EF 3E 40              1505 	ld	a,#0x40
   03F1 12                 1506 	ld	(de),a
                           1507 ;	main.c 123
                           1508 ; genPlus
                           1509 ; genPlusIncr
   03F2 11 51 00           1510 	ld	de,#_nine + 1
                           1511 ; genAssign (pointer)
   03F5 3E 41              1512 	ld	a,#0x41
   03F7 12                 1513 	ld	(de),a
                           1514 ;	main.c 124
                           1515 ; genPlus
                           1516 ; genPlusIncr
   03F8 11 52 00           1517 	ld	de,#_nine + 2
                           1518 ; genAssign (pointer)
   03FB 3E 42              1519 	ld	a,#0x42
   03FD 12                 1520 	ld	(de),a
                           1521 ;	main.c 125
                           1522 ; genPlus
                           1523 ; genPlusIncr
   03FE 11 53 00           1524 	ld	de,#_nine + 3
                           1525 ; genAssign (pointer)
   0401 3E 43              1526 	ld	a,#0x43
   0403 12                 1527 	ld	(de),a
                           1528 ;	main.c 126
                           1529 ; genPlus
                           1530 ; genPlusIncr
   0404 11 54 00           1531 	ld	de,#_nine + 4
                           1532 ; genAssign (pointer)
   0407 3E 44              1533 	ld	a,#0x44
   0409 12                 1534 	ld	(de),a
                           1535 ;	main.c 127
                           1536 ; genPlus
                           1537 ; genPlusIncr
   040A 11 55 00           1538 	ld	de,#_nine + 5
                           1539 ; genAssign (pointer)
   040D 3E 45              1540 	ld	a,#0x45
   040F 12                 1541 	ld	(de),a
                           1542 ;	main.c 128
                           1543 ; genPlus
                           1544 ; genPlusIncr
   0410 11 56 00           1545 	ld	de,#_nine + 6
                           1546 ; genAssign (pointer)
   0413 3E 46              1547 	ld	a,#0x46
   0415 12                 1548 	ld	(de),a
                           1549 ;	main.c 129
                           1550 ; genPlus
                           1551 ; genPlusIncr
   0416 11 57 00           1552 	ld	de,#_nine + 7
                           1553 ; genAssign (pointer)
   0419 3E 47              1554 	ld	a,#0x47
   041B 12                 1555 	ld	(de),a
                           1556 ; genLabel
   041C                    1557 00101$:
                           1558 ; genEndFunction
   041C C1                 1559 	pop	bc
   041D C9                 1560 	ret
   041E                    1561 ___setupNine_end:
                           1562 ;	main.c 132
                           1563 ; genLabel
                           1564 ; genFunction
                           1565 ;	---------------------------------
                           1566 ; Function setupJack
                           1567 ; ---------------------------------
   041E                    1568 ___setupJack_start:
   041E                    1569 _setupJack:
   041E C5                 1570 	push	bc
                           1571 ;	main.c 134
                           1572 ; genAssign (pointer)
   041F 11 5A 00           1573 	ld	de,#_jack + 0
   0422 3E 48              1574 	ld	a,#0x48
   0424 12                 1575 	ld	(de),a
                           1576 ;	main.c 135
                           1577 ; genPlus
                           1578 ; genPlusIncr
   0425 11 5B 00           1579 	ld	de,#_jack + 1
                           1580 ; genAssign (pointer)
   0428 3E 49              1581 	ld	a,#0x49
   042A 12                 1582 	ld	(de),a
                           1583 ;	main.c 136
                           1584 ; genPlus
                           1585 ; genPlusIncr
   042B 11 5C 00           1586 	ld	de,#_jack + 2
                           1587 ; genAssign (pointer)
   042E 3E 4A              1588 	ld	a,#0x4A
   0430 12                 1589 	ld	(de),a
                           1590 ;	main.c 137
                           1591 ; genPlus
                           1592 ; genPlusIncr
   0431 11 5D 00           1593 	ld	de,#_jack + 3
                           1594 ; genAssign (pointer)
   0434 3E 4B              1595 	ld	a,#0x4B
   0436 12                 1596 	ld	(de),a
                           1597 ;	main.c 138
                           1598 ; genPlus
                           1599 ; genPlusIncr
   0437 11 5E 00           1600 	ld	de,#_jack + 4
                           1601 ; genAssign (pointer)
   043A 3E 4C              1602 	ld	a,#0x4C
   043C 12                 1603 	ld	(de),a
                           1604 ;	main.c 139
                           1605 ; genPlus
                           1606 ; genPlusIncr
   043D 11 5F 00           1607 	ld	de,#_jack + 5
                           1608 ; genAssign (pointer)
   0440 3E 4D              1609 	ld	a,#0x4D
   0442 12                 1610 	ld	(de),a
                           1611 ;	main.c 140
                           1612 ; genPlus
                           1613 ; genPlusIncr
   0443 11 60 00           1614 	ld	de,#_jack + 6
                           1615 ; genAssign (pointer)
   0446 3E 4E              1616 	ld	a,#0x4E
   0448 12                 1617 	ld	(de),a
                           1618 ;	main.c 141
                           1619 ; genPlus
                           1620 ; genPlusIncr
   0449 11 61 00           1621 	ld	de,#_jack + 7
                           1622 ; genAssign (pointer)
   044C 3E 4F              1623 	ld	a,#0x4F
   044E 12                 1624 	ld	(de),a
                           1625 ; genLabel
   044F                    1626 00101$:
                           1627 ; genEndFunction
   044F C1                 1628 	pop	bc
   0450 C9                 1629 	ret
   0451                    1630 ___setupJack_end:
                           1631 ;	main.c 144
                           1632 ; genLabel
                           1633 ; genFunction
                           1634 ;	---------------------------------
                           1635 ; Function setupKing
                           1636 ; ---------------------------------
   0451                    1637 ___setupKing_start:
   0451                    1638 _setupKing:
   0451 C5                 1639 	push	bc
                           1640 ;	main.c 146
                           1641 ; genAssign (pointer)
   0452 11 64 00           1642 	ld	de,#_king + 0
   0455 3E 50              1643 	ld	a,#0x50
   0457 12                 1644 	ld	(de),a
                           1645 ;	main.c 147
                           1646 ; genPlus
                           1647 ; genPlusIncr
   0458 11 65 00           1648 	ld	de,#_king + 1
                           1649 ; genAssign (pointer)
   045B 3E 51              1650 	ld	a,#0x51
   045D 12                 1651 	ld	(de),a
                           1652 ;	main.c 148
                           1653 ; genPlus
                           1654 ; genPlusIncr
   045E 11 66 00           1655 	ld	de,#_king + 2
                           1656 ; genAssign (pointer)
   0461 3E 52              1657 	ld	a,#0x52
   0463 12                 1658 	ld	(de),a
                           1659 ;	main.c 149
                           1660 ; genPlus
                           1661 ; genPlusIncr
   0464 11 67 00           1662 	ld	de,#_king + 3
                           1663 ; genAssign (pointer)
   0467 3E 53              1664 	ld	a,#0x53
   0469 12                 1665 	ld	(de),a
                           1666 ;	main.c 150
                           1667 ; genPlus
                           1668 ; genPlusIncr
   046A 11 68 00           1669 	ld	de,#_king + 4
                           1670 ; genAssign (pointer)
   046D 3E 54              1671 	ld	a,#0x54
   046F 12                 1672 	ld	(de),a
                           1673 ;	main.c 151
                           1674 ; genPlus
                           1675 ; genPlusIncr
   0470 11 69 00           1676 	ld	de,#_king + 5
                           1677 ; genAssign (pointer)
   0473 3E 55              1678 	ld	a,#0x55
   0475 12                 1679 	ld	(de),a
                           1680 ;	main.c 152
                           1681 ; genPlus
                           1682 ; genPlusIncr
   0476 11 6A 00           1683 	ld	de,#_king + 6
                           1684 ; genAssign (pointer)
   0479 3E 56              1685 	ld	a,#0x56
   047B 12                 1686 	ld	(de),a
                           1687 ;	main.c 153
                           1688 ; genPlus
                           1689 ; genPlusIncr
   047C 11 6B 00           1690 	ld	de,#_king + 7
                           1691 ; genAssign (pointer)
   047F 3E 57              1692 	ld	a,#0x57
   0481 12                 1693 	ld	(de),a
                           1694 ; genLabel
   0482                    1695 00101$:
                           1696 ; genEndFunction
   0482 C1                 1697 	pop	bc
   0483 C9                 1698 	ret
   0484                    1699 ___setupKing_end:
                           1700 ;	main.c 156
                           1701 ; genLabel
                           1702 ; genFunction
                           1703 ;	---------------------------------
                           1704 ; Function setSlot1
                           1705 ; ---------------------------------
   0484                    1706 ___setSlot1_start:
   0484                    1707 _setSlot1:
   0484 C5                 1708 	push	bc
   0485 E8 FD              1709 	lda sp,-3(sp)
                           1710 ;	main.c 162
                           1711 ; genAssign
                           1712 ; AOP_STK for 
                           1713 ; AOP_STK for _setSlot1_sloc1_1_0
   0487 F8 07              1714 	lda	hl,7(sp)
   0489 2A                 1715 	ld	a,(hl+)
   048A 5E                 1716 	ld	e,(hl)
   048B F8 00              1717 	lda	hl,0(sp)
   048D 77                 1718 	ld	(hl),a ; 3
   048E 23                 1719 	inc	hl
   048F 73                 1720 	ld	(hl),e ; 3
                           1721 ; genPointerGet
                           1722 ; AOP_STK for _setSlot1_sloc1_1_0
                           1723 ; AOP_STK for _setSlot1_sloc0_1_0
   0490 2B                 1724 	dec	hl
   0491 5E                 1725 	ld	e,(hl)
   0492 23                 1726 	inc	hl
   0493 56                 1727 	ld	d,(hl)
   0494 1A                 1728 	ld	a,(de)
   0495 23                 1729 	inc	hl
   0496 77                 1730 	ld	(hl),a ; 3
                           1731 ; genIpush
                           1732 ; AOP_STK for _setSlot1_sloc0_1_0
   0497 7E                 1733 	ld	a,(hl)
   0498 F5                 1734 	push	af
   0499 33                 1735 	inc	sp
                           1736 ; genIpush
   049A 3E 08              1737 	ld	a,#0x08
   049C F5                 1738 	push	af
   049D 33                 1739 	inc	sp
                           1740 ; genCall
   049E CD 00 00           1741 	call	_set_sprite_tile
   04A1 E8 02              1742 	lda	sp,2(sp)
                           1743 ;	main.c 163
                           1744 ; genPlus
                           1745 ; AOP_STK for _setSlot1_sloc1_1_0
                           1746 ; genPlusIncr
   04A3 F8 00              1747 	lda	hl,0(sp)
   04A5 5E                 1748 	ld	e,(hl)
   04A6 23                 1749 	inc	hl
   04A7 56                 1750 	ld	d,(hl)
   04A8 13                 1751 	inc	de
                           1752 ; genPointerGet
   04A9 1A                 1753 	ld	a,(de)
   04AA 4F                 1754 	ld	c,a
                           1755 ; genIpush
   04AB 79                 1756 	ld	a,c
   04AC F5                 1757 	push	af
   04AD 33                 1758 	inc	sp
                           1759 ; genIpush
   04AE 3E 09              1760 	ld	a,#0x09
   04B0 F5                 1761 	push	af
   04B1 33                 1762 	inc	sp
                           1763 ; genCall
   04B2 CD 00 00           1764 	call	_set_sprite_tile
   04B5 E8 02              1765 	lda	sp,2(sp)
                           1766 ;	main.c 164
                           1767 ; genPlus
                           1768 ; AOP_STK for _setSlot1_sloc1_1_0
                           1769 ; genPlusIncr
   04B7 F8 00              1770 	lda	hl,0(sp)
   04B9 5E                 1771 	ld	e,(hl)
   04BA 23                 1772 	inc	hl
   04BB 56                 1773 	ld	d,(hl)
   04BC 13                 1774 	inc	de
   04BD 13                 1775 	inc	de
                           1776 ; genPointerGet
   04BE 1A                 1777 	ld	a,(de)
   04BF 4F                 1778 	ld	c,a
                           1779 ; genIpush
   04C0 79                 1780 	ld	a,c
   04C1 F5                 1781 	push	af
   04C2 33                 1782 	inc	sp
                           1783 ; genIpush
   04C3 3E 0A              1784 	ld	a,#0x0A
   04C5 F5                 1785 	push	af
   04C6 33                 1786 	inc	sp
                           1787 ; genCall
   04C7 CD 00 00           1788 	call	_set_sprite_tile
   04CA E8 02              1789 	lda	sp,2(sp)
                           1790 ;	main.c 165
                           1791 ; genPlus
                           1792 ; AOP_STK for _setSlot1_sloc1_1_0
                           1793 ; genPlusIncr
   04CC F8 00              1794 	lda	hl,0(sp)
   04CE 7E                 1795 	ld	a,(hl)
   04CF C6 03              1796 	add	a,#0x03
   04D1 5F                 1797 	ld	e,a
   04D2 23                 1798 	inc	hl
   04D3 7E                 1799 	ld	a,(hl)
   04D4 CE 00              1800 	adc	a,#0x00
   04D6 57                 1801 	ld	d,a
                           1802 ; genPointerGet
   04D7 1A                 1803 	ld	a,(de)
   04D8 4F                 1804 	ld	c,a
                           1805 ; genIpush
   04D9 79                 1806 	ld	a,c
   04DA F5                 1807 	push	af
   04DB 33                 1808 	inc	sp
                           1809 ; genIpush
   04DC 3E 0B              1810 	ld	a,#0x0B
   04DE F5                 1811 	push	af
   04DF 33                 1812 	inc	sp
                           1813 ; genCall
   04E0 CD 00 00           1814 	call	_set_sprite_tile
   04E3 E8 02              1815 	lda	sp,2(sp)
                           1816 ;	main.c 166
                           1817 ; genPlus
                           1818 ; AOP_STK for _setSlot1_sloc1_1_0
                           1819 ; genPlusIncr
   04E5 F8 00              1820 	lda	hl,0(sp)
   04E7 7E                 1821 	ld	a,(hl)
   04E8 C6 04              1822 	add	a,#0x04
   04EA 5F                 1823 	ld	e,a
   04EB 23                 1824 	inc	hl
   04EC 7E                 1825 	ld	a,(hl)
   04ED CE 00              1826 	adc	a,#0x00
   04EF 57                 1827 	ld	d,a
                           1828 ; genPointerGet
   04F0 1A                 1829 	ld	a,(de)
   04F1 4F                 1830 	ld	c,a
                           1831 ; genIpush
   04F2 79                 1832 	ld	a,c
   04F3 F5                 1833 	push	af
   04F4 33                 1834 	inc	sp
                           1835 ; genIpush
   04F5 3E 0C              1836 	ld	a,#0x0C
   04F7 F5                 1837 	push	af
   04F8 33                 1838 	inc	sp
                           1839 ; genCall
   04F9 CD 00 00           1840 	call	_set_sprite_tile
   04FC E8 02              1841 	lda	sp,2(sp)
                           1842 ;	main.c 167
                           1843 ; genPlus
                           1844 ; AOP_STK for _setSlot1_sloc1_1_0
                           1845 ; genPlusIncr
   04FE F8 00              1846 	lda	hl,0(sp)
   0500 7E                 1847 	ld	a,(hl)
   0501 C6 05              1848 	add	a,#0x05
   0503 5F                 1849 	ld	e,a
   0504 23                 1850 	inc	hl
   0505 7E                 1851 	ld	a,(hl)
   0506 CE 00              1852 	adc	a,#0x00
   0508 57                 1853 	ld	d,a
                           1854 ; genPointerGet
   0509 1A                 1855 	ld	a,(de)
   050A 4F                 1856 	ld	c,a
                           1857 ; genIpush
   050B 79                 1858 	ld	a,c
   050C F5                 1859 	push	af
   050D 33                 1860 	inc	sp
                           1861 ; genIpush
   050E 3E 0D              1862 	ld	a,#0x0D
   0510 F5                 1863 	push	af
   0511 33                 1864 	inc	sp
                           1865 ; genCall
   0512 CD 00 00           1866 	call	_set_sprite_tile
   0515 E8 02              1867 	lda	sp,2(sp)
                           1868 ;	main.c 168
                           1869 ; genPlus
                           1870 ; AOP_STK for _setSlot1_sloc1_1_0
                           1871 ; genPlusIncr
   0517 F8 00              1872 	lda	hl,0(sp)
   0519 7E                 1873 	ld	a,(hl)
   051A C6 06              1874 	add	a,#0x06
   051C 5F                 1875 	ld	e,a
   051D 23                 1876 	inc	hl
   051E 7E                 1877 	ld	a,(hl)
   051F CE 00              1878 	adc	a,#0x00
   0521 57                 1879 	ld	d,a
                           1880 ; genPointerGet
   0522 1A                 1881 	ld	a,(de)
   0523 4F                 1882 	ld	c,a
                           1883 ; genIpush
   0524 79                 1884 	ld	a,c
   0525 F5                 1885 	push	af
   0526 33                 1886 	inc	sp
                           1887 ; genIpush
   0527 3E 0E              1888 	ld	a,#0x0E
   0529 F5                 1889 	push	af
   052A 33                 1890 	inc	sp
                           1891 ; genCall
   052B CD 00 00           1892 	call	_set_sprite_tile
   052E E8 02              1893 	lda	sp,2(sp)
                           1894 ;	main.c 169
                           1895 ; genPlus
                           1896 ; AOP_STK for _setSlot1_sloc1_1_0
                           1897 ; genPlusIncr
   0530 F8 00              1898 	lda	hl,0(sp)
   0532 7E                 1899 	ld	a,(hl)
   0533 C6 07              1900 	add	a,#0x07
   0535 5F                 1901 	ld	e,a
   0536 23                 1902 	inc	hl
   0537 7E                 1903 	ld	a,(hl)
   0538 CE 00              1904 	adc	a,#0x00
   053A 57                 1905 	ld	d,a
                           1906 ; genPointerGet
   053B 1A                 1907 	ld	a,(de)
   053C 4F                 1908 	ld	c,a
                           1909 ; genIpush
   053D 79                 1910 	ld	a,c
   053E F5                 1911 	push	af
   053F 33                 1912 	inc	sp
                           1913 ; genIpush
   0540 3E 0F              1914 	ld	a,#0x0F
   0542 F5                 1915 	push	af
   0543 33                 1916 	inc	sp
                           1917 ; genCall
   0544 CD 00 00           1918 	call	_set_sprite_tile
   0547 E8 02              1919 	lda	sp,2(sp)
                           1920 ;	main.c 171
                           1921 ; genIpush
   0549 3E 78              1922 	ld	a,#0x78
   054B F5                 1923 	push	af
   054C 33                 1924 	inc	sp
                           1925 ; genIpush
   054D 3E 38              1926 	ld	a,#0x38
   054F F5                 1927 	push	af
   0550 33                 1928 	inc	sp
                           1929 ; genIpush
   0551 3E 08              1930 	ld	a,#0x08
   0553 F5                 1931 	push	af
   0554 33                 1932 	inc	sp
                           1933 ; genCall
   0555 CD 00 00           1934 	call	_move_sprite
   0558 E8 03              1935 	lda	sp,3(sp)
                           1936 ;	main.c 172
                           1937 ; genIpush
   055A 3E 78              1938 	ld	a,#0x78
   055C F5                 1939 	push	af
   055D 33                 1940 	inc	sp
                           1941 ; genIpush
   055E 3E 40              1942 	ld	a,#0x40
   0560 F5                 1943 	push	af
   0561 33                 1944 	inc	sp
                           1945 ; genIpush
   0562 3E 09              1946 	ld	a,#0x09
   0564 F5                 1947 	push	af
   0565 33                 1948 	inc	sp
                           1949 ; genCall
   0566 CD 00 00           1950 	call	_move_sprite
   0569 E8 03              1951 	lda	sp,3(sp)
                           1952 ;	main.c 173
                           1953 ; genIpush
   056B 3E 80              1954 	ld	a,#0x80
   056D F5                 1955 	push	af
   056E 33                 1956 	inc	sp
                           1957 ; genIpush
   056F 3E 38              1958 	ld	a,#0x38
   0571 F5                 1959 	push	af
   0572 33                 1960 	inc	sp
                           1961 ; genIpush
   0573 3E 0A              1962 	ld	a,#0x0A
   0575 F5                 1963 	push	af
   0576 33                 1964 	inc	sp
                           1965 ; genCall
   0577 CD 00 00           1966 	call	_move_sprite
   057A E8 03              1967 	lda	sp,3(sp)
                           1968 ;	main.c 174
                           1969 ; genIpush
   057C 3E 80              1970 	ld	a,#0x80
   057E F5                 1971 	push	af
   057F 33                 1972 	inc	sp
                           1973 ; genIpush
   0580 3E 40              1974 	ld	a,#0x40
   0582 F5                 1975 	push	af
   0583 33                 1976 	inc	sp
                           1977 ; genIpush
   0584 3E 0B              1978 	ld	a,#0x0B
   0586 F5                 1979 	push	af
   0587 33                 1980 	inc	sp
                           1981 ; genCall
   0588 CD 00 00           1982 	call	_move_sprite
   058B E8 03              1983 	lda	sp,3(sp)
                           1984 ;	main.c 175
                           1985 ; genIpush
   058D 3E 88              1986 	ld	a,#0x88
   058F F5                 1987 	push	af
   0590 33                 1988 	inc	sp
                           1989 ; genIpush
   0591 3E 38              1990 	ld	a,#0x38
   0593 F5                 1991 	push	af
   0594 33                 1992 	inc	sp
                           1993 ; genIpush
   0595 3E 0C              1994 	ld	a,#0x0C
   0597 F5                 1995 	push	af
   0598 33                 1996 	inc	sp
                           1997 ; genCall
   0599 CD 00 00           1998 	call	_move_sprite
   059C E8 03              1999 	lda	sp,3(sp)
                           2000 ;	main.c 176
                           2001 ; genIpush
   059E 3E 88              2002 	ld	a,#0x88
   05A0 F5                 2003 	push	af
   05A1 33                 2004 	inc	sp
                           2005 ; genIpush
   05A2 3E 40              2006 	ld	a,#0x40
   05A4 F5                 2007 	push	af
   05A5 33                 2008 	inc	sp
                           2009 ; genIpush
   05A6 3E 0D              2010 	ld	a,#0x0D
   05A8 F5                 2011 	push	af
   05A9 33                 2012 	inc	sp
                           2013 ; genCall
   05AA CD 00 00           2014 	call	_move_sprite
   05AD E8 03              2015 	lda	sp,3(sp)
                           2016 ;	main.c 177
                           2017 ; genIpush
   05AF 3E 90              2018 	ld	a,#0x90
   05B1 F5                 2019 	push	af
   05B2 33                 2020 	inc	sp
                           2021 ; genIpush
   05B3 3E 38              2022 	ld	a,#0x38
   05B5 F5                 2023 	push	af
   05B6 33                 2024 	inc	sp
                           2025 ; genIpush
   05B7 3E 0E              2026 	ld	a,#0x0E
   05B9 F5                 2027 	push	af
   05BA 33                 2028 	inc	sp
                           2029 ; genCall
   05BB CD 00 00           2030 	call	_move_sprite
   05BE E8 03              2031 	lda	sp,3(sp)
                           2032 ;	main.c 178
                           2033 ; genIpush
   05C0 3E 90              2034 	ld	a,#0x90
   05C2 F5                 2035 	push	af
   05C3 33                 2036 	inc	sp
                           2037 ; genIpush
   05C4 3E 40              2038 	ld	a,#0x40
   05C6 F5                 2039 	push	af
   05C7 33                 2040 	inc	sp
                           2041 ; genIpush
   05C8 3E 0F              2042 	ld	a,#0x0F
   05CA F5                 2043 	push	af
   05CB 33                 2044 	inc	sp
                           2045 ; genCall
   05CC CD 00 00           2046 	call	_move_sprite
   05CF E8 03              2047 	lda	sp,3(sp)
                           2048 ; genLabel
   05D1                    2049 00101$:
                           2050 ; genEndFunction
   05D1 E8 03              2051 	lda	sp,3(sp)
   05D3 C1                 2052 	pop bc
   05D4 C9                 2053 	ret
   05D5                    2054 ___setSlot1_end:
                           2055 ;	main.c 181
                           2056 ; genLabel
                           2057 ; genFunction
                           2058 ;	---------------------------------
                           2059 ; Function setSlot2
                           2060 ; ---------------------------------
   05D5                    2061 ___setSlot2_start:
   05D5                    2062 _setSlot2:
   05D5 C5                 2063 	push	bc
   05D6 E8 FD              2064 	lda sp,-3(sp)
                           2065 ;	main.c 187
                           2066 ; genAssign
                           2067 ; AOP_STK for 
                           2068 ; AOP_STK for _setSlot2_sloc1_1_0
   05D8 F8 07              2069 	lda	hl,7(sp)
   05DA 2A                 2070 	ld	a,(hl+)
   05DB 5E                 2071 	ld	e,(hl)
   05DC F8 00              2072 	lda	hl,0(sp)
   05DE 77                 2073 	ld	(hl),a ; 3
   05DF 23                 2074 	inc	hl
   05E0 73                 2075 	ld	(hl),e ; 3
                           2076 ; genPointerGet
                           2077 ; AOP_STK for _setSlot2_sloc1_1_0
                           2078 ; AOP_STK for _setSlot2_sloc0_1_0
   05E1 2B                 2079 	dec	hl
   05E2 5E                 2080 	ld	e,(hl)
   05E3 23                 2081 	inc	hl
   05E4 56                 2082 	ld	d,(hl)
   05E5 1A                 2083 	ld	a,(de)
   05E6 23                 2084 	inc	hl
   05E7 77                 2085 	ld	(hl),a ; 3
                           2086 ; genIpush
                           2087 ; AOP_STK for _setSlot2_sloc0_1_0
   05E8 7E                 2088 	ld	a,(hl)
   05E9 F5                 2089 	push	af
   05EA 33                 2090 	inc	sp
                           2091 ; genIpush
   05EB 3E 10              2092 	ld	a,#0x10
   05ED F5                 2093 	push	af
   05EE 33                 2094 	inc	sp
                           2095 ; genCall
   05EF CD 00 00           2096 	call	_set_sprite_tile
   05F2 E8 02              2097 	lda	sp,2(sp)
                           2098 ;	main.c 188
                           2099 ; genPlus
                           2100 ; AOP_STK for _setSlot2_sloc1_1_0
                           2101 ; genPlusIncr
   05F4 F8 00              2102 	lda	hl,0(sp)
   05F6 5E                 2103 	ld	e,(hl)
   05F7 23                 2104 	inc	hl
   05F8 56                 2105 	ld	d,(hl)
   05F9 13                 2106 	inc	de
                           2107 ; genPointerGet
   05FA 1A                 2108 	ld	a,(de)
   05FB 4F                 2109 	ld	c,a
                           2110 ; genIpush
   05FC 79                 2111 	ld	a,c
   05FD F5                 2112 	push	af
   05FE 33                 2113 	inc	sp
                           2114 ; genIpush
   05FF 3E 11              2115 	ld	a,#0x11
   0601 F5                 2116 	push	af
   0602 33                 2117 	inc	sp
                           2118 ; genCall
   0603 CD 00 00           2119 	call	_set_sprite_tile
   0606 E8 02              2120 	lda	sp,2(sp)
                           2121 ;	main.c 189
                           2122 ; genPlus
                           2123 ; AOP_STK for _setSlot2_sloc1_1_0
                           2124 ; genPlusIncr
   0608 F8 00              2125 	lda	hl,0(sp)
   060A 5E                 2126 	ld	e,(hl)
   060B 23                 2127 	inc	hl
   060C 56                 2128 	ld	d,(hl)
   060D 13                 2129 	inc	de
   060E 13                 2130 	inc	de
                           2131 ; genPointerGet
   060F 1A                 2132 	ld	a,(de)
   0610 4F                 2133 	ld	c,a
                           2134 ; genIpush
   0611 79                 2135 	ld	a,c
   0612 F5                 2136 	push	af
   0613 33                 2137 	inc	sp
                           2138 ; genIpush
   0614 3E 12              2139 	ld	a,#0x12
   0616 F5                 2140 	push	af
   0617 33                 2141 	inc	sp
                           2142 ; genCall
   0618 CD 00 00           2143 	call	_set_sprite_tile
   061B E8 02              2144 	lda	sp,2(sp)
                           2145 ;	main.c 190
                           2146 ; genPlus
                           2147 ; AOP_STK for _setSlot2_sloc1_1_0
                           2148 ; genPlusIncr
   061D F8 00              2149 	lda	hl,0(sp)
   061F 7E                 2150 	ld	a,(hl)
   0620 C6 03              2151 	add	a,#0x03
   0622 5F                 2152 	ld	e,a
   0623 23                 2153 	inc	hl
   0624 7E                 2154 	ld	a,(hl)
   0625 CE 00              2155 	adc	a,#0x00
   0627 57                 2156 	ld	d,a
                           2157 ; genPointerGet
   0628 1A                 2158 	ld	a,(de)
   0629 4F                 2159 	ld	c,a
                           2160 ; genIpush
   062A 79                 2161 	ld	a,c
   062B F5                 2162 	push	af
   062C 33                 2163 	inc	sp
                           2164 ; genIpush
   062D 3E 13              2165 	ld	a,#0x13
   062F F5                 2166 	push	af
   0630 33                 2167 	inc	sp
                           2168 ; genCall
   0631 CD 00 00           2169 	call	_set_sprite_tile
   0634 E8 02              2170 	lda	sp,2(sp)
                           2171 ;	main.c 191
                           2172 ; genPlus
                           2173 ; AOP_STK for _setSlot2_sloc1_1_0
                           2174 ; genPlusIncr
   0636 F8 00              2175 	lda	hl,0(sp)
   0638 7E                 2176 	ld	a,(hl)
   0639 C6 04              2177 	add	a,#0x04
   063B 5F                 2178 	ld	e,a
   063C 23                 2179 	inc	hl
   063D 7E                 2180 	ld	a,(hl)
   063E CE 00              2181 	adc	a,#0x00
   0640 57                 2182 	ld	d,a
                           2183 ; genPointerGet
   0641 1A                 2184 	ld	a,(de)
   0642 4F                 2185 	ld	c,a
                           2186 ; genIpush
   0643 79                 2187 	ld	a,c
   0644 F5                 2188 	push	af
   0645 33                 2189 	inc	sp
                           2190 ; genIpush
   0646 3E 14              2191 	ld	a,#0x14
   0648 F5                 2192 	push	af
   0649 33                 2193 	inc	sp
                           2194 ; genCall
   064A CD 00 00           2195 	call	_set_sprite_tile
   064D E8 02              2196 	lda	sp,2(sp)
                           2197 ;	main.c 192
                           2198 ; genPlus
                           2199 ; AOP_STK for _setSlot2_sloc1_1_0
                           2200 ; genPlusIncr
   064F F8 00              2201 	lda	hl,0(sp)
   0651 7E                 2202 	ld	a,(hl)
   0652 C6 05              2203 	add	a,#0x05
   0654 5F                 2204 	ld	e,a
   0655 23                 2205 	inc	hl
   0656 7E                 2206 	ld	a,(hl)
   0657 CE 00              2207 	adc	a,#0x00
   0659 57                 2208 	ld	d,a
                           2209 ; genPointerGet
   065A 1A                 2210 	ld	a,(de)
   065B 4F                 2211 	ld	c,a
                           2212 ; genIpush
   065C 79                 2213 	ld	a,c
   065D F5                 2214 	push	af
   065E 33                 2215 	inc	sp
                           2216 ; genIpush
   065F 3E 15              2217 	ld	a,#0x15
   0661 F5                 2218 	push	af
   0662 33                 2219 	inc	sp
                           2220 ; genCall
   0663 CD 00 00           2221 	call	_set_sprite_tile
   0666 E8 02              2222 	lda	sp,2(sp)
                           2223 ;	main.c 193
                           2224 ; genPlus
                           2225 ; AOP_STK for _setSlot2_sloc1_1_0
                           2226 ; genPlusIncr
   0668 F8 00              2227 	lda	hl,0(sp)
   066A 7E                 2228 	ld	a,(hl)
   066B C6 06              2229 	add	a,#0x06
   066D 5F                 2230 	ld	e,a
   066E 23                 2231 	inc	hl
   066F 7E                 2232 	ld	a,(hl)
   0670 CE 00              2233 	adc	a,#0x00
   0672 57                 2234 	ld	d,a
                           2235 ; genPointerGet
   0673 1A                 2236 	ld	a,(de)
   0674 4F                 2237 	ld	c,a
                           2238 ; genIpush
   0675 79                 2239 	ld	a,c
   0676 F5                 2240 	push	af
   0677 33                 2241 	inc	sp
                           2242 ; genIpush
   0678 3E 16              2243 	ld	a,#0x16
   067A F5                 2244 	push	af
   067B 33                 2245 	inc	sp
                           2246 ; genCall
   067C CD 00 00           2247 	call	_set_sprite_tile
   067F E8 02              2248 	lda	sp,2(sp)
                           2249 ;	main.c 194
                           2250 ; genPlus
                           2251 ; AOP_STK for _setSlot2_sloc1_1_0
                           2252 ; genPlusIncr
   0681 F8 00              2253 	lda	hl,0(sp)
   0683 7E                 2254 	ld	a,(hl)
   0684 C6 07              2255 	add	a,#0x07
   0686 5F                 2256 	ld	e,a
   0687 23                 2257 	inc	hl
   0688 7E                 2258 	ld	a,(hl)
   0689 CE 00              2259 	adc	a,#0x00
   068B 57                 2260 	ld	d,a
                           2261 ; genPointerGet
   068C 1A                 2262 	ld	a,(de)
   068D 4F                 2263 	ld	c,a
                           2264 ; genIpush
   068E 79                 2265 	ld	a,c
   068F F5                 2266 	push	af
   0690 33                 2267 	inc	sp
                           2268 ; genIpush
   0691 3E 17              2269 	ld	a,#0x17
   0693 F5                 2270 	push	af
   0694 33                 2271 	inc	sp
                           2272 ; genCall
   0695 CD 00 00           2273 	call	_set_sprite_tile
   0698 E8 02              2274 	lda	sp,2(sp)
                           2275 ;	main.c 196
                           2276 ; genIpush
   069A 3E 78              2277 	ld	a,#0x78
   069C F5                 2278 	push	af
   069D 33                 2279 	inc	sp
                           2280 ; genIpush
   069E 3E 50              2281 	ld	a,#0x50
   06A0 F5                 2282 	push	af
   06A1 33                 2283 	inc	sp
                           2284 ; genIpush
   06A2 3E 10              2285 	ld	a,#0x10
   06A4 F5                 2286 	push	af
   06A5 33                 2287 	inc	sp
                           2288 ; genCall
   06A6 CD 00 00           2289 	call	_move_sprite
   06A9 E8 03              2290 	lda	sp,3(sp)
                           2291 ;	main.c 197
                           2292 ; genIpush
   06AB 3E 78              2293 	ld	a,#0x78
   06AD F5                 2294 	push	af
   06AE 33                 2295 	inc	sp
                           2296 ; genIpush
   06AF 3E 58              2297 	ld	a,#0x58
   06B1 F5                 2298 	push	af
   06B2 33                 2299 	inc	sp
                           2300 ; genIpush
   06B3 3E 11              2301 	ld	a,#0x11
   06B5 F5                 2302 	push	af
   06B6 33                 2303 	inc	sp
                           2304 ; genCall
   06B7 CD 00 00           2305 	call	_move_sprite
   06BA E8 03              2306 	lda	sp,3(sp)
                           2307 ;	main.c 198
                           2308 ; genIpush
   06BC 3E 80              2309 	ld	a,#0x80
   06BE F5                 2310 	push	af
   06BF 33                 2311 	inc	sp
                           2312 ; genIpush
   06C0 3E 50              2313 	ld	a,#0x50
   06C2 F5                 2314 	push	af
   06C3 33                 2315 	inc	sp
                           2316 ; genIpush
   06C4 3E 12              2317 	ld	a,#0x12
   06C6 F5                 2318 	push	af
   06C7 33                 2319 	inc	sp
                           2320 ; genCall
   06C8 CD 00 00           2321 	call	_move_sprite
   06CB E8 03              2322 	lda	sp,3(sp)
                           2323 ;	main.c 199
                           2324 ; genIpush
   06CD 3E 80              2325 	ld	a,#0x80
   06CF F5                 2326 	push	af
   06D0 33                 2327 	inc	sp
                           2328 ; genIpush
   06D1 3E 58              2329 	ld	a,#0x58
   06D3 F5                 2330 	push	af
   06D4 33                 2331 	inc	sp
                           2332 ; genIpush
   06D5 3E 13              2333 	ld	a,#0x13
   06D7 F5                 2334 	push	af
   06D8 33                 2335 	inc	sp
                           2336 ; genCall
   06D9 CD 00 00           2337 	call	_move_sprite
   06DC E8 03              2338 	lda	sp,3(sp)
                           2339 ;	main.c 200
                           2340 ; genIpush
   06DE 3E 88              2341 	ld	a,#0x88
   06E0 F5                 2342 	push	af
   06E1 33                 2343 	inc	sp
                           2344 ; genIpush
   06E2 3E 50              2345 	ld	a,#0x50
   06E4 F5                 2346 	push	af
   06E5 33                 2347 	inc	sp
                           2348 ; genIpush
   06E6 3E 14              2349 	ld	a,#0x14
   06E8 F5                 2350 	push	af
   06E9 33                 2351 	inc	sp
                           2352 ; genCall
   06EA CD 00 00           2353 	call	_move_sprite
   06ED E8 03              2354 	lda	sp,3(sp)
                           2355 ;	main.c 201
                           2356 ; genIpush
   06EF 3E 88              2357 	ld	a,#0x88
   06F1 F5                 2358 	push	af
   06F2 33                 2359 	inc	sp
                           2360 ; genIpush
   06F3 3E 58              2361 	ld	a,#0x58
   06F5 F5                 2362 	push	af
   06F6 33                 2363 	inc	sp
                           2364 ; genIpush
   06F7 3E 15              2365 	ld	a,#0x15
   06F9 F5                 2366 	push	af
   06FA 33                 2367 	inc	sp
                           2368 ; genCall
   06FB CD 00 00           2369 	call	_move_sprite
   06FE E8 03              2370 	lda	sp,3(sp)
                           2371 ;	main.c 202
                           2372 ; genIpush
   0700 3E 90              2373 	ld	a,#0x90
   0702 F5                 2374 	push	af
   0703 33                 2375 	inc	sp
                           2376 ; genIpush
   0704 3E 50              2377 	ld	a,#0x50
   0706 F5                 2378 	push	af
   0707 33                 2379 	inc	sp
                           2380 ; genIpush
   0708 3E 16              2381 	ld	a,#0x16
   070A F5                 2382 	push	af
   070B 33                 2383 	inc	sp
                           2384 ; genCall
   070C CD 00 00           2385 	call	_move_sprite
   070F E8 03              2386 	lda	sp,3(sp)
                           2387 ;	main.c 203
                           2388 ; genIpush
   0711 3E 90              2389 	ld	a,#0x90
   0713 F5                 2390 	push	af
   0714 33                 2391 	inc	sp
                           2392 ; genIpush
   0715 3E 58              2393 	ld	a,#0x58
   0717 F5                 2394 	push	af
   0718 33                 2395 	inc	sp
                           2396 ; genIpush
   0719 3E 17              2397 	ld	a,#0x17
   071B F5                 2398 	push	af
   071C 33                 2399 	inc	sp
                           2400 ; genCall
   071D CD 00 00           2401 	call	_move_sprite
   0720 E8 03              2402 	lda	sp,3(sp)
                           2403 ; genLabel
   0722                    2404 00101$:
                           2405 ; genEndFunction
   0722 E8 03              2406 	lda	sp,3(sp)
   0724 C1                 2407 	pop bc
   0725 C9                 2408 	ret
   0726                    2409 ___setSlot2_end:
                           2410 ;	main.c 206
                           2411 ; genLabel
                           2412 ; genFunction
                           2413 ;	---------------------------------
                           2414 ; Function setSlot3
                           2415 ; ---------------------------------
   0726                    2416 ___setSlot3_start:
   0726                    2417 _setSlot3:
   0726 C5                 2418 	push	bc
   0727 E8 FD              2419 	lda sp,-3(sp)
                           2420 ;	main.c 212
                           2421 ; genAssign
                           2422 ; AOP_STK for 
                           2423 ; AOP_STK for _setSlot3_sloc1_1_0
   0729 F8 07              2424 	lda	hl,7(sp)
   072B 2A                 2425 	ld	a,(hl+)
   072C 5E                 2426 	ld	e,(hl)
   072D F8 00              2427 	lda	hl,0(sp)
   072F 77                 2428 	ld	(hl),a ; 3
   0730 23                 2429 	inc	hl
   0731 73                 2430 	ld	(hl),e ; 3
                           2431 ; genPointerGet
                           2432 ; AOP_STK for _setSlot3_sloc1_1_0
                           2433 ; AOP_STK for _setSlot3_sloc0_1_0
   0732 2B                 2434 	dec	hl
   0733 5E                 2435 	ld	e,(hl)
   0734 23                 2436 	inc	hl
   0735 56                 2437 	ld	d,(hl)
   0736 1A                 2438 	ld	a,(de)
   0737 23                 2439 	inc	hl
   0738 77                 2440 	ld	(hl),a ; 3
                           2441 ; genIpush
                           2442 ; AOP_STK for _setSlot3_sloc0_1_0
   0739 7E                 2443 	ld	a,(hl)
   073A F5                 2444 	push	af
   073B 33                 2445 	inc	sp
                           2446 ; genIpush
   073C 3E 18              2447 	ld	a,#0x18
   073E F5                 2448 	push	af
   073F 33                 2449 	inc	sp
                           2450 ; genCall
   0740 CD 00 00           2451 	call	_set_sprite_tile
   0743 E8 02              2452 	lda	sp,2(sp)
                           2453 ;	main.c 213
                           2454 ; genPlus
                           2455 ; AOP_STK for _setSlot3_sloc1_1_0
                           2456 ; genPlusIncr
   0745 F8 00              2457 	lda	hl,0(sp)
   0747 5E                 2458 	ld	e,(hl)
   0748 23                 2459 	inc	hl
   0749 56                 2460 	ld	d,(hl)
   074A 13                 2461 	inc	de
                           2462 ; genPointerGet
   074B 1A                 2463 	ld	a,(de)
   074C 4F                 2464 	ld	c,a
                           2465 ; genIpush
   074D 79                 2466 	ld	a,c
   074E F5                 2467 	push	af
   074F 33                 2468 	inc	sp
                           2469 ; genIpush
   0750 3E 19              2470 	ld	a,#0x19
   0752 F5                 2471 	push	af
   0753 33                 2472 	inc	sp
                           2473 ; genCall
   0754 CD 00 00           2474 	call	_set_sprite_tile
   0757 E8 02              2475 	lda	sp,2(sp)
                           2476 ;	main.c 214
                           2477 ; genPlus
                           2478 ; AOP_STK for _setSlot3_sloc1_1_0
                           2479 ; genPlusIncr
   0759 F8 00              2480 	lda	hl,0(sp)
   075B 5E                 2481 	ld	e,(hl)
   075C 23                 2482 	inc	hl
   075D 56                 2483 	ld	d,(hl)
   075E 13                 2484 	inc	de
   075F 13                 2485 	inc	de
                           2486 ; genPointerGet
   0760 1A                 2487 	ld	a,(de)
   0761 4F                 2488 	ld	c,a
                           2489 ; genIpush
   0762 79                 2490 	ld	a,c
   0763 F5                 2491 	push	af
   0764 33                 2492 	inc	sp
                           2493 ; genIpush
   0765 3E 1A              2494 	ld	a,#0x1A
   0767 F5                 2495 	push	af
   0768 33                 2496 	inc	sp
                           2497 ; genCall
   0769 CD 00 00           2498 	call	_set_sprite_tile
   076C E8 02              2499 	lda	sp,2(sp)
                           2500 ;	main.c 215
                           2501 ; genPlus
                           2502 ; AOP_STK for _setSlot3_sloc1_1_0
                           2503 ; genPlusIncr
   076E F8 00              2504 	lda	hl,0(sp)
   0770 7E                 2505 	ld	a,(hl)
   0771 C6 03              2506 	add	a,#0x03
   0773 5F                 2507 	ld	e,a
   0774 23                 2508 	inc	hl
   0775 7E                 2509 	ld	a,(hl)
   0776 CE 00              2510 	adc	a,#0x00
   0778 57                 2511 	ld	d,a
                           2512 ; genPointerGet
   0779 1A                 2513 	ld	a,(de)
   077A 4F                 2514 	ld	c,a
                           2515 ; genIpush
   077B 79                 2516 	ld	a,c
   077C F5                 2517 	push	af
   077D 33                 2518 	inc	sp
                           2519 ; genIpush
   077E 3E 1B              2520 	ld	a,#0x1B
   0780 F5                 2521 	push	af
   0781 33                 2522 	inc	sp
                           2523 ; genCall
   0782 CD 00 00           2524 	call	_set_sprite_tile
   0785 E8 02              2525 	lda	sp,2(sp)
                           2526 ;	main.c 216
                           2527 ; genPlus
                           2528 ; AOP_STK for _setSlot3_sloc1_1_0
                           2529 ; genPlusIncr
   0787 F8 00              2530 	lda	hl,0(sp)
   0789 7E                 2531 	ld	a,(hl)
   078A C6 04              2532 	add	a,#0x04
   078C 5F                 2533 	ld	e,a
   078D 23                 2534 	inc	hl
   078E 7E                 2535 	ld	a,(hl)
   078F CE 00              2536 	adc	a,#0x00
   0791 57                 2537 	ld	d,a
                           2538 ; genPointerGet
   0792 1A                 2539 	ld	a,(de)
   0793 4F                 2540 	ld	c,a
                           2541 ; genIpush
   0794 79                 2542 	ld	a,c
   0795 F5                 2543 	push	af
   0796 33                 2544 	inc	sp
                           2545 ; genIpush
   0797 3E 1C              2546 	ld	a,#0x1C
   0799 F5                 2547 	push	af
   079A 33                 2548 	inc	sp
                           2549 ; genCall
   079B CD 00 00           2550 	call	_set_sprite_tile
   079E E8 02              2551 	lda	sp,2(sp)
                           2552 ;	main.c 217
                           2553 ; genPlus
                           2554 ; AOP_STK for _setSlot3_sloc1_1_0
                           2555 ; genPlusIncr
   07A0 F8 00              2556 	lda	hl,0(sp)
   07A2 7E                 2557 	ld	a,(hl)
   07A3 C6 05              2558 	add	a,#0x05
   07A5 5F                 2559 	ld	e,a
   07A6 23                 2560 	inc	hl
   07A7 7E                 2561 	ld	a,(hl)
   07A8 CE 00              2562 	adc	a,#0x00
   07AA 57                 2563 	ld	d,a
                           2564 ; genPointerGet
   07AB 1A                 2565 	ld	a,(de)
   07AC 4F                 2566 	ld	c,a
                           2567 ; genIpush
   07AD 79                 2568 	ld	a,c
   07AE F5                 2569 	push	af
   07AF 33                 2570 	inc	sp
                           2571 ; genIpush
   07B0 3E 1D              2572 	ld	a,#0x1D
   07B2 F5                 2573 	push	af
   07B3 33                 2574 	inc	sp
                           2575 ; genCall
   07B4 CD 00 00           2576 	call	_set_sprite_tile
   07B7 E8 02              2577 	lda	sp,2(sp)
                           2578 ;	main.c 218
                           2579 ; genPlus
                           2580 ; AOP_STK for _setSlot3_sloc1_1_0
                           2581 ; genPlusIncr
   07B9 F8 00              2582 	lda	hl,0(sp)
   07BB 7E                 2583 	ld	a,(hl)
   07BC C6 06              2584 	add	a,#0x06
   07BE 5F                 2585 	ld	e,a
   07BF 23                 2586 	inc	hl
   07C0 7E                 2587 	ld	a,(hl)
   07C1 CE 00              2588 	adc	a,#0x00
   07C3 57                 2589 	ld	d,a
                           2590 ; genPointerGet
   07C4 1A                 2591 	ld	a,(de)
   07C5 4F                 2592 	ld	c,a
                           2593 ; genIpush
   07C6 79                 2594 	ld	a,c
   07C7 F5                 2595 	push	af
   07C8 33                 2596 	inc	sp
                           2597 ; genIpush
   07C9 3E 1E              2598 	ld	a,#0x1E
   07CB F5                 2599 	push	af
   07CC 33                 2600 	inc	sp
                           2601 ; genCall
   07CD CD 00 00           2602 	call	_set_sprite_tile
   07D0 E8 02              2603 	lda	sp,2(sp)
                           2604 ;	main.c 219
                           2605 ; genPlus
                           2606 ; AOP_STK for _setSlot3_sloc1_1_0
                           2607 ; genPlusIncr
   07D2 F8 00              2608 	lda	hl,0(sp)
   07D4 7E                 2609 	ld	a,(hl)
   07D5 C6 07              2610 	add	a,#0x07
   07D7 5F                 2611 	ld	e,a
   07D8 23                 2612 	inc	hl
   07D9 7E                 2613 	ld	a,(hl)
   07DA CE 00              2614 	adc	a,#0x00
   07DC 57                 2615 	ld	d,a
                           2616 ; genPointerGet
   07DD 1A                 2617 	ld	a,(de)
   07DE 4F                 2618 	ld	c,a
                           2619 ; genIpush
   07DF 79                 2620 	ld	a,c
   07E0 F5                 2621 	push	af
   07E1 33                 2622 	inc	sp
                           2623 ; genIpush
   07E2 3E 1F              2624 	ld	a,#0x1F
   07E4 F5                 2625 	push	af
   07E5 33                 2626 	inc	sp
                           2627 ; genCall
   07E6 CD 00 00           2628 	call	_set_sprite_tile
   07E9 E8 02              2629 	lda	sp,2(sp)
                           2630 ;	main.c 221
                           2631 ; genIpush
   07EB 3E 78              2632 	ld	a,#0x78
   07ED F5                 2633 	push	af
   07EE 33                 2634 	inc	sp
                           2635 ; genIpush
   07EF 3E 68              2636 	ld	a,#0x68
   07F1 F5                 2637 	push	af
   07F2 33                 2638 	inc	sp
                           2639 ; genIpush
   07F3 3E 18              2640 	ld	a,#0x18
   07F5 F5                 2641 	push	af
   07F6 33                 2642 	inc	sp
                           2643 ; genCall
   07F7 CD 00 00           2644 	call	_move_sprite
   07FA E8 03              2645 	lda	sp,3(sp)
                           2646 ;	main.c 222
                           2647 ; genIpush
   07FC 3E 78              2648 	ld	a,#0x78
   07FE F5                 2649 	push	af
   07FF 33                 2650 	inc	sp
                           2651 ; genIpush
   0800 3E 70              2652 	ld	a,#0x70
   0802 F5                 2653 	push	af
   0803 33                 2654 	inc	sp
                           2655 ; genIpush
   0804 3E 19              2656 	ld	a,#0x19
   0806 F5                 2657 	push	af
   0807 33                 2658 	inc	sp
                           2659 ; genCall
   0808 CD 00 00           2660 	call	_move_sprite
   080B E8 03              2661 	lda	sp,3(sp)
                           2662 ;	main.c 223
                           2663 ; genIpush
   080D 3E 80              2664 	ld	a,#0x80
   080F F5                 2665 	push	af
   0810 33                 2666 	inc	sp
                           2667 ; genIpush
   0811 3E 68              2668 	ld	a,#0x68
   0813 F5                 2669 	push	af
   0814 33                 2670 	inc	sp
                           2671 ; genIpush
   0815 3E 1A              2672 	ld	a,#0x1A
   0817 F5                 2673 	push	af
   0818 33                 2674 	inc	sp
                           2675 ; genCall
   0819 CD 00 00           2676 	call	_move_sprite
   081C E8 03              2677 	lda	sp,3(sp)
                           2678 ;	main.c 224
                           2679 ; genIpush
   081E 3E 80              2680 	ld	a,#0x80
   0820 F5                 2681 	push	af
   0821 33                 2682 	inc	sp
                           2683 ; genIpush
   0822 3E 70              2684 	ld	a,#0x70
   0824 F5                 2685 	push	af
   0825 33                 2686 	inc	sp
                           2687 ; genIpush
   0826 3E 1B              2688 	ld	a,#0x1B
   0828 F5                 2689 	push	af
   0829 33                 2690 	inc	sp
                           2691 ; genCall
   082A CD 00 00           2692 	call	_move_sprite
   082D E8 03              2693 	lda	sp,3(sp)
                           2694 ;	main.c 225
                           2695 ; genIpush
   082F 3E 88              2696 	ld	a,#0x88
   0831 F5                 2697 	push	af
   0832 33                 2698 	inc	sp
                           2699 ; genIpush
   0833 3E 68              2700 	ld	a,#0x68
   0835 F5                 2701 	push	af
   0836 33                 2702 	inc	sp
                           2703 ; genIpush
   0837 3E 1C              2704 	ld	a,#0x1C
   0839 F5                 2705 	push	af
   083A 33                 2706 	inc	sp
                           2707 ; genCall
   083B CD 00 00           2708 	call	_move_sprite
   083E E8 03              2709 	lda	sp,3(sp)
                           2710 ;	main.c 226
                           2711 ; genIpush
   0840 3E 88              2712 	ld	a,#0x88
   0842 F5                 2713 	push	af
   0843 33                 2714 	inc	sp
                           2715 ; genIpush
   0844 3E 70              2716 	ld	a,#0x70
   0846 F5                 2717 	push	af
   0847 33                 2718 	inc	sp
                           2719 ; genIpush
   0848 3E 1D              2720 	ld	a,#0x1D
   084A F5                 2721 	push	af
   084B 33                 2722 	inc	sp
                           2723 ; genCall
   084C CD 00 00           2724 	call	_move_sprite
   084F E8 03              2725 	lda	sp,3(sp)
                           2726 ;	main.c 227
                           2727 ; genIpush
   0851 3E 90              2728 	ld	a,#0x90
   0853 F5                 2729 	push	af
   0854 33                 2730 	inc	sp
                           2731 ; genIpush
   0855 3E 68              2732 	ld	a,#0x68
   0857 F5                 2733 	push	af
   0858 33                 2734 	inc	sp
                           2735 ; genIpush
   0859 3E 1E              2736 	ld	a,#0x1E
   085B F5                 2737 	push	af
   085C 33                 2738 	inc	sp
                           2739 ; genCall
   085D CD 00 00           2740 	call	_move_sprite
   0860 E8 03              2741 	lda	sp,3(sp)
                           2742 ;	main.c 228
                           2743 ; genIpush
   0862 3E 90              2744 	ld	a,#0x90
   0864 F5                 2745 	push	af
   0865 33                 2746 	inc	sp
                           2747 ; genIpush
   0866 3E 70              2748 	ld	a,#0x70
   0868 F5                 2749 	push	af
   0869 33                 2750 	inc	sp
                           2751 ; genIpush
   086A 3E 1F              2752 	ld	a,#0x1F
   086C F5                 2753 	push	af
   086D 33                 2754 	inc	sp
                           2755 ; genCall
   086E CD 00 00           2756 	call	_move_sprite
   0871 E8 03              2757 	lda	sp,3(sp)
                           2758 ; genLabel
   0873                    2759 00101$:
                           2760 ; genEndFunction
   0873 E8 03              2761 	lda	sp,3(sp)
   0875 C1                 2762 	pop bc
   0876 C9                 2763 	ret
   0877                    2764 ___setSlot3_end:
                           2765 ;	main.c 231
                           2766 ; genLabel
                           2767 ; genFunction
                           2768 ;	---------------------------------
                           2769 ; Function main
                           2770 ; ---------------------------------
   0877                    2771 ___main_start:
   0877                    2772 _main:
   0877 C5                 2773 	push	bc
   0878 E8 E8              2774 	lda sp,-24(sp)
                           2775 ;	main.c 233
                           2776 ; genAssign
                           2777 ; AOP_STK for _main_souls_1_1
   087A F8 16              2778 	lda	hl,22(sp)
   087C 36 0A              2779 	ld	(hl),#0x0A ; 3
   087E 23                 2780 	inc	hl
   087F 36 00              2781 	ld	(hl),#0x00 ; 3
                           2782 ;	main.c 234
                           2783 ; genAssign
                           2784 ; AOP_STK for _main_answered_1_1
   0881 F8 14              2785 	lda	hl,20(sp)
   0883 36 00              2786 	ld	(hl),#0x00 ; 3
   0885 23                 2787 	inc	hl
   0886 36 00              2788 	ld	(hl),#0x00 ; 3
                           2789 ;	main.c 235
                           2790 ; genAssign
                           2791 ; AOP_STK for _main_usernumber_1_1
   0888 F8 12              2792 	lda	hl,18(sp)
   088A 36 00              2793 	ld	(hl),#0x00 ; 3
   088C 23                 2794 	inc	hl
   088D 36 00              2795 	ld	(hl),#0x00 ; 3
                           2796 ;	main.c 240
                           2797 ; genAssign
                           2798 ; AOP_STK for _main_won_1_1
   088F F8 08              2799 	lda	hl,8(sp)
   0891 36 00              2800 	ld	(hl),#0x00 ; 3
   0893 23                 2801 	inc	hl
   0894 36 00              2802 	ld	(hl),#0x00 ; 3
                           2803 ;	main.c 241
                           2804 ; genAssign
                           2805 ; AOP_STK for _main_lose_1_1
   0896 F8 06              2806 	lda	hl,6(sp)
   0898 36 00              2807 	ld	(hl),#0x00 ; 3
   089A 23                 2808 	inc	hl
   089B 36 00              2809 	ld	(hl),#0x00 ; 3
                           2810 ;	main.c 243
                           2811 ; genCall
   089D CD 42 00           2812 	call	_set_background_splash
                           2813 ;	main.c 245
                           2814 ; genOr
                           2815 ; AOP_SFR for _LCDC_REG
                           2816 ; Type res[4] = l[4]&r[1]
                           2817 ; Size res[1] = l[1]&r[1]
   08A0 F0 00              2818 	ldh	a,(_LCDC_REG+0) ; x
   08A2 F6 01              2819 	or	a,#0x01
   08A4 E0 00              2820 	ldh	(_LCDC_REG+0),a
                           2821 ;	main.c 246
                           2822 ; genOr
                           2823 ; AOP_SFR for _LCDC_REG
                           2824 ; Type res[4] = l[4]&r[1]
                           2825 ; Size res[1] = l[1]&r[1]
   08A6 F0 00              2826 	ldh	a,(_LCDC_REG+0) ; x
   08A8 F6 80              2827 	or	a,#0x80
   08AA E0 00              2828 	ldh	(_LCDC_REG+0),a
                           2829 ;	main.c 248
                           2830 ; genIpush
   08AC 3E 80              2831 	ld	a,#0x80
   08AE F5                 2832 	push	af
   08AF 33                 2833 	inc	sp
                           2834 ; genCall
   08B0 CD 00 00           2835 	call	_waitpad
   08B3 E8 01              2836 	lda	sp,1(sp)
                           2837 ;	main.c 250
                           2838 ; genCall
   08B5 CD 6F 00           2839 	call	_set_background_credits
                           2840 ;	main.c 252
                           2841 ; genIpush
   08B8 3E EE              2842 	ld	a,#0xEE
   08BA F5                 2843 	push	af
   08BB 33                 2844 	inc	sp
                           2845 ; genCall
   08BC CD 00 00           2846 	call	_performant_delay
   08BF E8 01              2847 	lda	sp,1(sp)
                           2848 ;	main.c 254
                           2849 ; genCall
   08C1 CD 9C 00           2850 	call	_set_background_howto
                           2851 ;	main.c 256
                           2852 ; genIpush
   08C4 3E EE              2853 	ld	a,#0xEE
   08C6 F5                 2854 	push	af
   08C7 33                 2855 	inc	sp
                           2856 ; genCall
   08C8 CD 00 00           2857 	call	_performant_delay
   08CB E8 01              2858 	lda	sp,1(sp)
                           2859 ;	main.c 258
                           2860 ; genIpush
   08CD 21 EB 4D           2861 	ld	hl,#_SpriteKeys + 0
   08D0 E5                 2862 	push	hl
                           2863 ; genIpush
   08D1 3E 59              2864 	ld	a,#0x59
   08D3 F5                 2865 	push	af
   08D4 33                 2866 	inc	sp
                           2867 ; genIpush
   08D5 3E 00              2868 	ld	a,#0x00
   08D7 F5                 2869 	push	af
   08D8 33                 2870 	inc	sp
                           2871 ; genCall
   08D9 CD 00 00           2872 	call	_set_sprite_data
   08DC E8 04              2873 	lda	sp,4(sp)
                           2874 ;	main.c 260
                           2875 ; genCall
   08DE CD 50 01           2876 	call	_init_numbers
                           2877 ;	main.c 261
                           2878 ; genOr
                           2879 ; AOP_SFR for _LCDC_REG
                           2880 ; Type res[4] = l[4]&r[1]
                           2881 ; Size res[1] = l[1]&r[1]
   08E1 F0 00              2882 	ldh	a,(_LCDC_REG+0) ; x
   08E3 F6 02              2883 	or	a,#0x02
   08E5 E0 00              2884 	ldh	(_LCDC_REG+0),a
                           2885 ;	main.c 263
                           2886 ; genCall
   08E7 CD C9 00           2887 	call	_set_background_devil_normal
                           2888 ;	main.c 265
                           2889 ; genCall
   08EA CD 53 02           2890 	call	_setupAce
                           2891 ;	main.c 266
                           2892 ; genCall
   08ED CD 86 02           2893 	call	_setupTwo
                           2894 ;	main.c 267
                           2895 ; genCall
   08F0 CD B9 02           2896 	call	_setupThree
                           2897 ;	main.c 268
                           2898 ; genCall
   08F3 CD EC 02           2899 	call	_setupFour
                           2900 ;	main.c 269
                           2901 ; genCall
   08F6 CD 1F 03           2902 	call	_setupFive
                           2903 ;	main.c 270
                           2904 ; genCall
   08F9 CD 52 03           2905 	call	_setupSix
                           2906 ;	main.c 271
                           2907 ; genCall
   08FC CD 85 03           2908 	call	_setupSeven
                           2909 ;	main.c 272
                           2910 ; genCall
   08FF CD B8 03           2911 	call	_setupEight
                           2912 ;	main.c 273
                           2913 ; genCall
   0902 CD EB 03           2914 	call	_setupNine
                           2915 ;	main.c 274
                           2916 ; genCall
   0905 CD 1E 04           2917 	call	_setupJack
                           2918 ;	main.c 275
                           2919 ; genCall
   0908 CD 51 04           2920 	call	_setupKing
                           2921 ;	main.c 277
                           2922 ; genIpush
   090B 21 0A 00           2923 	ld	hl,#0x000A
   090E E5                 2924 	push	hl
                           2925 ; genCall
   090F CD CB 01           2926 	call	_set_souls
   0912 E8 02              2927 	lda	sp,2(sp)
                           2928 ;	main.c 279
                           2929 ; genIpush
   0914 3E 0A              2930 	ld	a,#0x0A
   0916 F5                 2931 	push	af
   0917 33                 2932 	inc	sp
                           2933 ; genCall
   0918 CD 00 00           2934 	call	_performant_delay
   091B E8 01              2935 	lda	sp,1(sp)
                           2936 ;	main.c 281
                           2937 ; genLabel
   091D                    2938 00225$:
                           2939 ; genCmpEq
                           2940 ; AOP_STK for _main_won_1_1
   091D F8 08              2941 	lda	hl,8(sp)
   091F 2A                 2942 	ld	a,(hl+)
   0920 B6                 2943 	or	a,(hl)
   0921 C2 26 09           2944 	jp	nz,00283$
   0924 18 03              2945 	jr	00284$
   0926                    2946 00283$:
   0926 C3 13 0F           2947 	jp	00227$
   0929                    2948 00284$:
                           2949 ; genCmpEq
                           2950 ; AOP_STK for _main_lose_1_1
   0929 F8 06              2951 	lda	hl,6(sp)
   092B 2A                 2952 	ld	a,(hl+)
   092C B6                 2953 	or	a,(hl)
   092D C2 32 09           2954 	jp	nz,00285$
   0930 18 03              2955 	jr	00286$
   0932                    2956 00285$:
   0932 C3 13 0F           2957 	jp	00227$
   0935                    2958 00286$:
                           2959 ;	main.c 283
                           2960 ; genIpush
   0935 21 02 00           2961 	ld	hl,#0x0002
   0938 E5                 2962 	push	hl
                           2963 ; genCall
   0939 CD 14 00           2964 	call	_random_number
                           2965 ; AOP_STK for _main_higher_1_1
   093C F8 13              2966 	lda	hl,19(sp)
   093E 72                 2967 	ld	(hl),d ; 3
   093F 2B                 2968 	dec	hl
   0940 73                 2969 	ld	(hl),e ; 3
   0941 E8 02              2970 	lda	sp,2(sp)
                           2971 ;	main.c 284
                           2972 ; genIpush
   0943 21 0B 00           2973 	ld	hl,#0x000B
   0946 E5                 2974 	push	hl
                           2975 ; genCall
   0947 CD 14 00           2976 	call	_random_number
                           2977 ; AOP_STK for _main_card1_1_1
   094A F8 11              2978 	lda	hl,17(sp)
   094C 72                 2979 	ld	(hl),d ; 3
   094D 2B                 2980 	dec	hl
   094E 73                 2981 	ld	(hl),e ; 3
   094F E8 02              2982 	lda	sp,2(sp)
                           2983 ;	main.c 285
                           2984 ; genIpush
   0951 21 0B 00           2985 	ld	hl,#0x000B
   0954 E5                 2986 	push	hl
                           2987 ; genCall
   0955 CD 14 00           2988 	call	_random_number
                           2989 ; AOP_STK for _main_card2_1_1
   0958 F8 0F              2990 	lda	hl,15(sp)
   095A 72                 2991 	ld	(hl),d ; 3
   095B 2B                 2992 	dec	hl
   095C 73                 2993 	ld	(hl),e ; 3
   095D E8 02              2994 	lda	sp,2(sp)
                           2995 ;	main.c 286
                           2996 ; genIpush
   095F 21 0B 00           2997 	ld	hl,#0x000B
   0962 E5                 2998 	push	hl
                           2999 ; genCall
   0963 CD 14 00           3000 	call	_random_number
                           3001 ; AOP_STK for _main_card3_1_1
   0966 F8 0D              3002 	lda	hl,13(sp)
   0968 72                 3003 	ld	(hl),d ; 3
   0969 2B                 3004 	dec	hl
   096A 73                 3005 	ld	(hl),e ; 3
   096B E8 02              3006 	lda	sp,2(sp)
                           3007 ;	main.c 288
                           3008 ; genCmpEq
                           3009 ; AOP_STK for _main_higher_1_1
                           3010 ; AOP_STK for _main_sloc1_1_0
   096D F8 10              3011 	lda	hl,16(sp)
   096F 7E                 3012 	ld	a,(hl) ; 2
   0970 FE 01              3013 	cp	a,#0x01
   0972 C2 7F 09           3014 	jp	nz,00287$
   0975 23                 3015 	inc	hl
   0976 7E                 3016 	ld	a,(hl) ; 2
                           3017 ; Rule 3
   0977 B7                 3018 	or	a,a
   0978 C2 7F 09           3019 	jp	nz,00287$
   097B 3E 01              3020 	ld	a,#0x01
   097D 18 01              3021 	jr	00288$
   097F                    3022 00287$:
   097F AF                 3023 	xor	a,a
   0980                    3024 00288$:
   0980 F8 04              3025 	lda	hl,4(sp)
   0982 77                 3026 	ld	(hl),a ; 3
                           3027 ; genIfx
                           3028 ; AOP_STK for _main_sloc1_1_0
                           3029 ; Removed redundent or a,a
   0983 AF                 3030 	xor	a,a
   0984 B6                 3031 	or	a,(hl)
   0985 CA A9 09           3032 	jp	z,00102$
                           3033 ;	main.c 289
                           3034 ; genIpush
   0988 3E 0A              3035 	ld	a,#0x0A
   098A F5                 3036 	push	af
   098B 33                 3037 	inc	sp
                           3038 ; genIpush
   098C 3E 07              3039 	ld	a,#0x07
   098E F5                 3040 	push	af
   098F 33                 3041 	inc	sp
                           3042 ; genCall
   0990 CD 00 00           3043 	call	_set_sprite_tile
   0993 E8 02              3044 	lda	sp,2(sp)
                           3045 ;	main.c 290
                           3046 ; genIpush
   0995 3E 14              3047 	ld	a,#0x14
   0997 F5                 3048 	push	af
   0998 33                 3049 	inc	sp
                           3050 ; genIpush
   0999 3E 9E              3051 	ld	a,#0x9E
   099B F5                 3052 	push	af
   099C 33                 3053 	inc	sp
                           3054 ; genIpush
   099D 3E 07              3055 	ld	a,#0x07
   099F F5                 3056 	push	af
   09A0 33                 3057 	inc	sp
                           3058 ; genCall
   09A1 CD 00 00           3059 	call	_move_sprite
   09A4 E8 03              3060 	lda	sp,3(sp)
                           3061 ; genGoto
   09A6 C3 C7 09           3062 	jp	00103$
                           3063 ; genLabel
   09A9                    3064 00102$:
                           3065 ;	main.c 292
                           3066 ; genIpush
   09A9 3E 58              3067 	ld	a,#0x58
   09AB F5                 3068 	push	af
   09AC 33                 3069 	inc	sp
                           3070 ; genIpush
   09AD 3E 07              3071 	ld	a,#0x07
   09AF F5                 3072 	push	af
   09B0 33                 3073 	inc	sp
                           3074 ; genCall
   09B1 CD 00 00           3075 	call	_set_sprite_tile
   09B4 E8 02              3076 	lda	sp,2(sp)
                           3077 ;	main.c 293
                           3078 ; genIpush
   09B6 3E 14              3079 	ld	a,#0x14
   09B8 F5                 3080 	push	af
   09B9 33                 3081 	inc	sp
                           3082 ; genIpush
   09BA 3E 9E              3083 	ld	a,#0x9E
   09BC F5                 3084 	push	af
   09BD 33                 3085 	inc	sp
                           3086 ; genIpush
   09BE 3E 07              3087 	ld	a,#0x07
   09C0 F5                 3088 	push	af
   09C1 33                 3089 	inc	sp
                           3090 ; genCall
   09C2 CD 00 00           3091 	call	_move_sprite
   09C5 E8 03              3092 	lda	sp,3(sp)
                           3093 ; genLabel
   09C7                    3094 00103$:
                           3095 ;	main.c 296
                           3096 ; genCmpEq
                           3097 ; AOP_STK for _main_card1_1_1
   09C7 F8 0E              3098 	lda	hl,14(sp)
   09C9 7E                 3099 	ld	a,(hl) ; 2
   09CA FE 01              3100 	cp	a,#0x01
   09CC C2 D7 09           3101 	jp	nz,00289$
   09CF 23                 3102 	inc	hl
   09D0 7E                 3103 	ld	a,(hl) ; 2
                           3104 ; Rule 3
   09D1 B7                 3105 	or	a,a
   09D2 C2 D7 09           3106 	jp	nz,00289$
   09D5 18 03              3107 	jr	00290$
   09D7                    3108 00289$:
   09D7 C3 E6 09           3109 	jp	00134$
   09DA                    3110 00290$:
                           3111 ;	main.c 298
                           3112 ; genIpush
   09DA 21 00 00           3113 	ld	hl,#_ace + 0
   09DD E5                 3114 	push	hl
                           3115 ; genCall
   09DE CD 84 04           3116 	call	_setSlot1
   09E1 E8 02              3117 	lda	sp,2(sp)
                           3118 ; genGoto
   09E3 C3 19 0B           3119 	jp	00135$
                           3120 ; genLabel
   09E6                    3121 00134$:
                           3122 ;	main.c 300
                           3123 ; genCmpEq
                           3124 ; AOP_STK for _main_card1_1_1
   09E6 F8 0E              3125 	lda	hl,14(sp)
   09E8 7E                 3126 	ld	a,(hl) ; 2
   09E9 FE 02              3127 	cp	a,#0x02
   09EB C2 F6 09           3128 	jp	nz,00291$
   09EE 23                 3129 	inc	hl
   09EF 7E                 3130 	ld	a,(hl) ; 2
                           3131 ; Rule 3
   09F0 B7                 3132 	or	a,a
   09F1 C2 F6 09           3133 	jp	nz,00291$
   09F4 18 03              3134 	jr	00292$
   09F6                    3135 00291$:
   09F6 C3 05 0A           3136 	jp	00131$
   09F9                    3137 00292$:
                           3138 ;	main.c 302
                           3139 ; genIpush
   09F9 21 0A 00           3140 	ld	hl,#_two + 0
   09FC E5                 3141 	push	hl
                           3142 ; genCall
   09FD CD 84 04           3143 	call	_setSlot1
   0A00 E8 02              3144 	lda	sp,2(sp)
                           3145 ; genGoto
   0A02 C3 19 0B           3146 	jp	00135$
                           3147 ; genLabel
   0A05                    3148 00131$:
                           3149 ;	main.c 304
                           3150 ; genCmpEq
                           3151 ; AOP_STK for _main_card1_1_1
   0A05 F8 0E              3152 	lda	hl,14(sp)
   0A07 7E                 3153 	ld	a,(hl) ; 2
   0A08 FE 03              3154 	cp	a,#0x03
   0A0A C2 15 0A           3155 	jp	nz,00293$
   0A0D 23                 3156 	inc	hl
   0A0E 7E                 3157 	ld	a,(hl) ; 2
                           3158 ; Rule 3
   0A0F B7                 3159 	or	a,a
   0A10 C2 15 0A           3160 	jp	nz,00293$
   0A13 18 03              3161 	jr	00294$
   0A15                    3162 00293$:
   0A15 C3 24 0A           3163 	jp	00128$
   0A18                    3164 00294$:
                           3165 ;	main.c 306
                           3166 ; genIpush
   0A18 21 14 00           3167 	ld	hl,#_three + 0
   0A1B E5                 3168 	push	hl
                           3169 ; genCall
   0A1C CD 84 04           3170 	call	_setSlot1
   0A1F E8 02              3171 	lda	sp,2(sp)
                           3172 ; genGoto
   0A21 C3 19 0B           3173 	jp	00135$
                           3174 ; genLabel
   0A24                    3175 00128$:
                           3176 ;	main.c 308
                           3177 ; genCmpEq
                           3178 ; AOP_STK for _main_card1_1_1
   0A24 F8 0E              3179 	lda	hl,14(sp)
   0A26 7E                 3180 	ld	a,(hl) ; 2
   0A27 FE 04              3181 	cp	a,#0x04
   0A29 C2 34 0A           3182 	jp	nz,00295$
   0A2C 23                 3183 	inc	hl
   0A2D 7E                 3184 	ld	a,(hl) ; 2
                           3185 ; Rule 3
   0A2E B7                 3186 	or	a,a
   0A2F C2 34 0A           3187 	jp	nz,00295$
   0A32 18 03              3188 	jr	00296$
   0A34                    3189 00295$:
   0A34 C3 43 0A           3190 	jp	00125$
   0A37                    3191 00296$:
                           3192 ;	main.c 310
                           3193 ; genIpush
   0A37 21 1E 00           3194 	ld	hl,#_four + 0
   0A3A E5                 3195 	push	hl
                           3196 ; genCall
   0A3B CD 84 04           3197 	call	_setSlot1
   0A3E E8 02              3198 	lda	sp,2(sp)
                           3199 ; genGoto
   0A40 C3 19 0B           3200 	jp	00135$
                           3201 ; genLabel
   0A43                    3202 00125$:
                           3203 ;	main.c 312
                           3204 ; genCmpEq
                           3205 ; AOP_STK for _main_card1_1_1
   0A43 F8 0E              3206 	lda	hl,14(sp)
   0A45 7E                 3207 	ld	a,(hl) ; 2
   0A46 FE 05              3208 	cp	a,#0x05
   0A48 C2 53 0A           3209 	jp	nz,00297$
   0A4B 23                 3210 	inc	hl
   0A4C 7E                 3211 	ld	a,(hl) ; 2
                           3212 ; Rule 3
   0A4D B7                 3213 	or	a,a
   0A4E C2 53 0A           3214 	jp	nz,00297$
   0A51 18 03              3215 	jr	00298$
   0A53                    3216 00297$:
   0A53 C3 62 0A           3217 	jp	00122$
   0A56                    3218 00298$:
                           3219 ;	main.c 314
                           3220 ; genIpush
   0A56 21 28 00           3221 	ld	hl,#_five + 0
   0A59 E5                 3222 	push	hl
                           3223 ; genCall
   0A5A CD 84 04           3224 	call	_setSlot1
   0A5D E8 02              3225 	lda	sp,2(sp)
                           3226 ; genGoto
   0A5F C3 19 0B           3227 	jp	00135$
                           3228 ; genLabel
   0A62                    3229 00122$:
                           3230 ;	main.c 316
                           3231 ; genCmpEq
                           3232 ; AOP_STK for _main_card1_1_1
   0A62 F8 0E              3233 	lda	hl,14(sp)
   0A64 7E                 3234 	ld	a,(hl) ; 2
   0A65 FE 06              3235 	cp	a,#0x06
   0A67 C2 72 0A           3236 	jp	nz,00299$
   0A6A 23                 3237 	inc	hl
   0A6B 7E                 3238 	ld	a,(hl) ; 2
                           3239 ; Rule 3
   0A6C B7                 3240 	or	a,a
   0A6D C2 72 0A           3241 	jp	nz,00299$
   0A70 18 03              3242 	jr	00300$
   0A72                    3243 00299$:
   0A72 C3 81 0A           3244 	jp	00119$
   0A75                    3245 00300$:
                           3246 ;	main.c 318
                           3247 ; genIpush
   0A75 21 32 00           3248 	ld	hl,#_six + 0
   0A78 E5                 3249 	push	hl
                           3250 ; genCall
   0A79 CD 84 04           3251 	call	_setSlot1
   0A7C E8 02              3252 	lda	sp,2(sp)
                           3253 ; genGoto
   0A7E C3 19 0B           3254 	jp	00135$
                           3255 ; genLabel
   0A81                    3256 00119$:
                           3257 ;	main.c 320
                           3258 ; genCmpEq
                           3259 ; AOP_STK for _main_card1_1_1
   0A81 F8 0E              3260 	lda	hl,14(sp)
   0A83 7E                 3261 	ld	a,(hl) ; 2
   0A84 FE 07              3262 	cp	a,#0x07
   0A86 C2 91 0A           3263 	jp	nz,00301$
   0A89 23                 3264 	inc	hl
   0A8A 7E                 3265 	ld	a,(hl) ; 2
                           3266 ; Rule 3
   0A8B B7                 3267 	or	a,a
   0A8C C2 91 0A           3268 	jp	nz,00301$
   0A8F 18 03              3269 	jr	00302$
   0A91                    3270 00301$:
   0A91 C3 A0 0A           3271 	jp	00116$
   0A94                    3272 00302$:
                           3273 ;	main.c 322
                           3274 ; genIpush
   0A94 21 3C 00           3275 	ld	hl,#_seven + 0
   0A97 E5                 3276 	push	hl
                           3277 ; genCall
   0A98 CD 84 04           3278 	call	_setSlot1
   0A9B E8 02              3279 	lda	sp,2(sp)
                           3280 ; genGoto
   0A9D C3 19 0B           3281 	jp	00135$
                           3282 ; genLabel
   0AA0                    3283 00116$:
                           3284 ;	main.c 324
                           3285 ; genCmpEq
                           3286 ; AOP_STK for _main_card1_1_1
   0AA0 F8 0E              3287 	lda	hl,14(sp)
   0AA2 7E                 3288 	ld	a,(hl) ; 2
   0AA3 FE 08              3289 	cp	a,#0x08
   0AA5 C2 B0 0A           3290 	jp	nz,00303$
   0AA8 23                 3291 	inc	hl
   0AA9 7E                 3292 	ld	a,(hl) ; 2
                           3293 ; Rule 3
   0AAA B7                 3294 	or	a,a
   0AAB C2 B0 0A           3295 	jp	nz,00303$
   0AAE 18 03              3296 	jr	00304$
   0AB0                    3297 00303$:
   0AB0 C3 BF 0A           3298 	jp	00113$
   0AB3                    3299 00304$:
                           3300 ;	main.c 326
                           3301 ; genIpush
   0AB3 21 46 00           3302 	ld	hl,#_eight + 0
   0AB6 E5                 3303 	push	hl
                           3304 ; genCall
   0AB7 CD 84 04           3305 	call	_setSlot1
   0ABA E8 02              3306 	lda	sp,2(sp)
                           3307 ; genGoto
   0ABC C3 19 0B           3308 	jp	00135$
                           3309 ; genLabel
   0ABF                    3310 00113$:
                           3311 ;	main.c 328
                           3312 ; genCmpEq
                           3313 ; AOP_STK for _main_card1_1_1
   0ABF F8 0E              3314 	lda	hl,14(sp)
   0AC1 7E                 3315 	ld	a,(hl) ; 2
   0AC2 FE 09              3316 	cp	a,#0x09
   0AC4 C2 CF 0A           3317 	jp	nz,00305$
   0AC7 23                 3318 	inc	hl
   0AC8 7E                 3319 	ld	a,(hl) ; 2
                           3320 ; Rule 3
   0AC9 B7                 3321 	or	a,a
   0ACA C2 CF 0A           3322 	jp	nz,00305$
   0ACD 18 03              3323 	jr	00306$
   0ACF                    3324 00305$:
   0ACF C3 DE 0A           3325 	jp	00110$
   0AD2                    3326 00306$:
                           3327 ;	main.c 330
                           3328 ; genIpush
   0AD2 21 50 00           3329 	ld	hl,#_nine + 0
   0AD5 E5                 3330 	push	hl
                           3331 ; genCall
   0AD6 CD 84 04           3332 	call	_setSlot1
   0AD9 E8 02              3333 	lda	sp,2(sp)
                           3334 ; genGoto
   0ADB C3 19 0B           3335 	jp	00135$
                           3336 ; genLabel
   0ADE                    3337 00110$:
                           3338 ;	main.c 332
                           3339 ; genCmpEq
                           3340 ; AOP_STK for _main_card1_1_1
   0ADE F8 0E              3341 	lda	hl,14(sp)
   0AE0 7E                 3342 	ld	a,(hl) ; 2
   0AE1 FE 0A              3343 	cp	a,#0x0A
   0AE3 C2 EE 0A           3344 	jp	nz,00307$
   0AE6 23                 3345 	inc	hl
   0AE7 7E                 3346 	ld	a,(hl) ; 2
                           3347 ; Rule 3
   0AE8 B7                 3348 	or	a,a
   0AE9 C2 EE 0A           3349 	jp	nz,00307$
   0AEC 18 03              3350 	jr	00308$
   0AEE                    3351 00307$:
   0AEE C3 FD 0A           3352 	jp	00107$
   0AF1                    3353 00308$:
                           3354 ;	main.c 334
                           3355 ; genIpush
   0AF1 21 5A 00           3356 	ld	hl,#_jack + 0
   0AF4 E5                 3357 	push	hl
                           3358 ; genCall
   0AF5 CD 84 04           3359 	call	_setSlot1
   0AF8 E8 02              3360 	lda	sp,2(sp)
                           3361 ; genGoto
   0AFA C3 19 0B           3362 	jp	00135$
                           3363 ; genLabel
   0AFD                    3364 00107$:
                           3365 ;	main.c 336
                           3366 ; genCmpEq
                           3367 ; AOP_STK for _main_card1_1_1
   0AFD F8 0E              3368 	lda	hl,14(sp)
   0AFF 7E                 3369 	ld	a,(hl) ; 2
   0B00 FE 0B              3370 	cp	a,#0x0B
   0B02 C2 0D 0B           3371 	jp	nz,00309$
   0B05 23                 3372 	inc	hl
   0B06 7E                 3373 	ld	a,(hl) ; 2
                           3374 ; Rule 3
   0B07 B7                 3375 	or	a,a
   0B08 C2 0D 0B           3376 	jp	nz,00309$
   0B0B 18 03              3377 	jr	00310$
   0B0D                    3378 00309$:
   0B0D C3 19 0B           3379 	jp	00135$
   0B10                    3380 00310$:
                           3381 ;	main.c 338
                           3382 ; genIpush
   0B10 21 64 00           3383 	ld	hl,#_king + 0
   0B13 E5                 3384 	push	hl
                           3385 ; genCall
   0B14 CD 84 04           3386 	call	_setSlot1
   0B17 E8 02              3387 	lda	sp,2(sp)
                           3388 ; genLabel
   0B19                    3389 00135$:
                           3390 ;	main.c 341
                           3391 ; genCmpEq
                           3392 ; AOP_STK for _main_card2_1_1
   0B19 F8 0C              3393 	lda	hl,12(sp)
   0B1B 7E                 3394 	ld	a,(hl) ; 2
   0B1C FE 01              3395 	cp	a,#0x01
   0B1E C2 29 0B           3396 	jp	nz,00311$
   0B21 23                 3397 	inc	hl
   0B22 7E                 3398 	ld	a,(hl) ; 2
                           3399 ; Rule 3
   0B23 B7                 3400 	or	a,a
   0B24 C2 29 0B           3401 	jp	nz,00311$
   0B27 18 03              3402 	jr	00312$
   0B29                    3403 00311$:
   0B29 C3 38 0B           3404 	jp	00166$
   0B2C                    3405 00312$:
                           3406 ;	main.c 343
                           3407 ; genIpush
   0B2C 21 00 00           3408 	ld	hl,#_ace + 0
   0B2F E5                 3409 	push	hl
                           3410 ; genCall
   0B30 CD D5 05           3411 	call	_setSlot2
   0B33 E8 02              3412 	lda	sp,2(sp)
                           3413 ; genGoto
   0B35 C3 6B 0C           3414 	jp	00167$
                           3415 ; genLabel
   0B38                    3416 00166$:
                           3417 ;	main.c 345
                           3418 ; genCmpEq
                           3419 ; AOP_STK for _main_card2_1_1
   0B38 F8 0C              3420 	lda	hl,12(sp)
   0B3A 7E                 3421 	ld	a,(hl) ; 2
   0B3B FE 02              3422 	cp	a,#0x02
   0B3D C2 48 0B           3423 	jp	nz,00313$
   0B40 23                 3424 	inc	hl
   0B41 7E                 3425 	ld	a,(hl) ; 2
                           3426 ; Rule 3
   0B42 B7                 3427 	or	a,a
   0B43 C2 48 0B           3428 	jp	nz,00313$
   0B46 18 03              3429 	jr	00314$
   0B48                    3430 00313$:
   0B48 C3 57 0B           3431 	jp	00163$
   0B4B                    3432 00314$:
                           3433 ;	main.c 347
                           3434 ; genIpush
   0B4B 21 0A 00           3435 	ld	hl,#_two + 0
   0B4E E5                 3436 	push	hl
                           3437 ; genCall
   0B4F CD D5 05           3438 	call	_setSlot2
   0B52 E8 02              3439 	lda	sp,2(sp)
                           3440 ; genGoto
   0B54 C3 6B 0C           3441 	jp	00167$
                           3442 ; genLabel
   0B57                    3443 00163$:
                           3444 ;	main.c 349
                           3445 ; genCmpEq
                           3446 ; AOP_STK for _main_card2_1_1
   0B57 F8 0C              3447 	lda	hl,12(sp)
   0B59 7E                 3448 	ld	a,(hl) ; 2
   0B5A FE 03              3449 	cp	a,#0x03
   0B5C C2 67 0B           3450 	jp	nz,00315$
   0B5F 23                 3451 	inc	hl
   0B60 7E                 3452 	ld	a,(hl) ; 2
                           3453 ; Rule 3
   0B61 B7                 3454 	or	a,a
   0B62 C2 67 0B           3455 	jp	nz,00315$
   0B65 18 03              3456 	jr	00316$
   0B67                    3457 00315$:
   0B67 C3 76 0B           3458 	jp	00160$
   0B6A                    3459 00316$:
                           3460 ;	main.c 351
                           3461 ; genIpush
   0B6A 21 14 00           3462 	ld	hl,#_three + 0
   0B6D E5                 3463 	push	hl
                           3464 ; genCall
   0B6E CD D5 05           3465 	call	_setSlot2
   0B71 E8 02              3466 	lda	sp,2(sp)
                           3467 ; genGoto
   0B73 C3 6B 0C           3468 	jp	00167$
                           3469 ; genLabel
   0B76                    3470 00160$:
                           3471 ;	main.c 353
                           3472 ; genCmpEq
                           3473 ; AOP_STK for _main_card2_1_1
   0B76 F8 0C              3474 	lda	hl,12(sp)
   0B78 7E                 3475 	ld	a,(hl) ; 2
   0B79 FE 04              3476 	cp	a,#0x04
   0B7B C2 86 0B           3477 	jp	nz,00317$
   0B7E 23                 3478 	inc	hl
   0B7F 7E                 3479 	ld	a,(hl) ; 2
                           3480 ; Rule 3
   0B80 B7                 3481 	or	a,a
   0B81 C2 86 0B           3482 	jp	nz,00317$
   0B84 18 03              3483 	jr	00318$
   0B86                    3484 00317$:
   0B86 C3 95 0B           3485 	jp	00157$
   0B89                    3486 00318$:
                           3487 ;	main.c 355
                           3488 ; genIpush
   0B89 21 1E 00           3489 	ld	hl,#_four + 0
   0B8C E5                 3490 	push	hl
                           3491 ; genCall
   0B8D CD D5 05           3492 	call	_setSlot2
   0B90 E8 02              3493 	lda	sp,2(sp)
                           3494 ; genGoto
   0B92 C3 6B 0C           3495 	jp	00167$
                           3496 ; genLabel
   0B95                    3497 00157$:
                           3498 ;	main.c 357
                           3499 ; genCmpEq
                           3500 ; AOP_STK for _main_card2_1_1
   0B95 F8 0C              3501 	lda	hl,12(sp)
   0B97 7E                 3502 	ld	a,(hl) ; 2
   0B98 FE 05              3503 	cp	a,#0x05
   0B9A C2 A5 0B           3504 	jp	nz,00319$
   0B9D 23                 3505 	inc	hl
   0B9E 7E                 3506 	ld	a,(hl) ; 2
                           3507 ; Rule 3
   0B9F B7                 3508 	or	a,a
   0BA0 C2 A5 0B           3509 	jp	nz,00319$
   0BA3 18 03              3510 	jr	00320$
   0BA5                    3511 00319$:
   0BA5 C3 B4 0B           3512 	jp	00154$
   0BA8                    3513 00320$:
                           3514 ;	main.c 359
                           3515 ; genIpush
   0BA8 21 28 00           3516 	ld	hl,#_five + 0
   0BAB E5                 3517 	push	hl
                           3518 ; genCall
   0BAC CD D5 05           3519 	call	_setSlot2
   0BAF E8 02              3520 	lda	sp,2(sp)
                           3521 ; genGoto
   0BB1 C3 6B 0C           3522 	jp	00167$
                           3523 ; genLabel
   0BB4                    3524 00154$:
                           3525 ;	main.c 361
                           3526 ; genCmpEq
                           3527 ; AOP_STK for _main_card2_1_1
   0BB4 F8 0C              3528 	lda	hl,12(sp)
   0BB6 7E                 3529 	ld	a,(hl) ; 2
   0BB7 FE 06              3530 	cp	a,#0x06
   0BB9 C2 C4 0B           3531 	jp	nz,00321$
   0BBC 23                 3532 	inc	hl
   0BBD 7E                 3533 	ld	a,(hl) ; 2
                           3534 ; Rule 3
   0BBE B7                 3535 	or	a,a
   0BBF C2 C4 0B           3536 	jp	nz,00321$
   0BC2 18 03              3537 	jr	00322$
   0BC4                    3538 00321$:
   0BC4 C3 D3 0B           3539 	jp	00151$
   0BC7                    3540 00322$:
                           3541 ;	main.c 363
                           3542 ; genIpush
   0BC7 21 32 00           3543 	ld	hl,#_six + 0
   0BCA E5                 3544 	push	hl
                           3545 ; genCall
   0BCB CD D5 05           3546 	call	_setSlot2
   0BCE E8 02              3547 	lda	sp,2(sp)
                           3548 ; genGoto
   0BD0 C3 6B 0C           3549 	jp	00167$
                           3550 ; genLabel
   0BD3                    3551 00151$:
                           3552 ;	main.c 365
                           3553 ; genCmpEq
                           3554 ; AOP_STK for _main_card2_1_1
   0BD3 F8 0C              3555 	lda	hl,12(sp)
   0BD5 7E                 3556 	ld	a,(hl) ; 2
   0BD6 FE 07              3557 	cp	a,#0x07
   0BD8 C2 E3 0B           3558 	jp	nz,00323$
   0BDB 23                 3559 	inc	hl
   0BDC 7E                 3560 	ld	a,(hl) ; 2
                           3561 ; Rule 3
   0BDD B7                 3562 	or	a,a
   0BDE C2 E3 0B           3563 	jp	nz,00323$
   0BE1 18 03              3564 	jr	00324$
   0BE3                    3565 00323$:
   0BE3 C3 F2 0B           3566 	jp	00148$
   0BE6                    3567 00324$:
                           3568 ;	main.c 367
                           3569 ; genIpush
   0BE6 21 3C 00           3570 	ld	hl,#_seven + 0
   0BE9 E5                 3571 	push	hl
                           3572 ; genCall
   0BEA CD D5 05           3573 	call	_setSlot2
   0BED E8 02              3574 	lda	sp,2(sp)
                           3575 ; genGoto
   0BEF C3 6B 0C           3576 	jp	00167$
                           3577 ; genLabel
   0BF2                    3578 00148$:
                           3579 ;	main.c 369
                           3580 ; genCmpEq
                           3581 ; AOP_STK for _main_card2_1_1
   0BF2 F8 0C              3582 	lda	hl,12(sp)
   0BF4 7E                 3583 	ld	a,(hl) ; 2
   0BF5 FE 08              3584 	cp	a,#0x08
   0BF7 C2 02 0C           3585 	jp	nz,00325$
   0BFA 23                 3586 	inc	hl
   0BFB 7E                 3587 	ld	a,(hl) ; 2
                           3588 ; Rule 3
   0BFC B7                 3589 	or	a,a
   0BFD C2 02 0C           3590 	jp	nz,00325$
   0C00 18 03              3591 	jr	00326$
   0C02                    3592 00325$:
   0C02 C3 11 0C           3593 	jp	00145$
   0C05                    3594 00326$:
                           3595 ;	main.c 371
                           3596 ; genIpush
   0C05 21 46 00           3597 	ld	hl,#_eight + 0
   0C08 E5                 3598 	push	hl
                           3599 ; genCall
   0C09 CD D5 05           3600 	call	_setSlot2
   0C0C E8 02              3601 	lda	sp,2(sp)
                           3602 ; genGoto
   0C0E C3 6B 0C           3603 	jp	00167$
                           3604 ; genLabel
   0C11                    3605 00145$:
                           3606 ;	main.c 373
                           3607 ; genCmpEq
                           3608 ; AOP_STK for _main_card2_1_1
   0C11 F8 0C              3609 	lda	hl,12(sp)
   0C13 7E                 3610 	ld	a,(hl) ; 2
   0C14 FE 09              3611 	cp	a,#0x09
   0C16 C2 21 0C           3612 	jp	nz,00327$
   0C19 23                 3613 	inc	hl
   0C1A 7E                 3614 	ld	a,(hl) ; 2
                           3615 ; Rule 3
   0C1B B7                 3616 	or	a,a
   0C1C C2 21 0C           3617 	jp	nz,00327$
   0C1F 18 03              3618 	jr	00328$
   0C21                    3619 00327$:
   0C21 C3 30 0C           3620 	jp	00142$
   0C24                    3621 00328$:
                           3622 ;	main.c 375
                           3623 ; genIpush
   0C24 21 50 00           3624 	ld	hl,#_nine + 0
   0C27 E5                 3625 	push	hl
                           3626 ; genCall
   0C28 CD D5 05           3627 	call	_setSlot2
   0C2B E8 02              3628 	lda	sp,2(sp)
                           3629 ; genGoto
   0C2D C3 6B 0C           3630 	jp	00167$
                           3631 ; genLabel
   0C30                    3632 00142$:
                           3633 ;	main.c 377
                           3634 ; genCmpEq
                           3635 ; AOP_STK for _main_card2_1_1
   0C30 F8 0C              3636 	lda	hl,12(sp)
   0C32 7E                 3637 	ld	a,(hl) ; 2
   0C33 FE 0A              3638 	cp	a,#0x0A
   0C35 C2 40 0C           3639 	jp	nz,00329$
   0C38 23                 3640 	inc	hl
   0C39 7E                 3641 	ld	a,(hl) ; 2
                           3642 ; Rule 3
   0C3A B7                 3643 	or	a,a
   0C3B C2 40 0C           3644 	jp	nz,00329$
   0C3E 18 03              3645 	jr	00330$
   0C40                    3646 00329$:
   0C40 C3 4F 0C           3647 	jp	00139$
   0C43                    3648 00330$:
                           3649 ;	main.c 379
                           3650 ; genIpush
   0C43 21 5A 00           3651 	ld	hl,#_jack + 0
   0C46 E5                 3652 	push	hl
                           3653 ; genCall
   0C47 CD D5 05           3654 	call	_setSlot2
   0C4A E8 02              3655 	lda	sp,2(sp)
                           3656 ; genGoto
   0C4C C3 6B 0C           3657 	jp	00167$
                           3658 ; genLabel
   0C4F                    3659 00139$:
                           3660 ;	main.c 381
                           3661 ; genCmpEq
                           3662 ; AOP_STK for _main_card2_1_1
   0C4F F8 0C              3663 	lda	hl,12(sp)
   0C51 7E                 3664 	ld	a,(hl) ; 2
   0C52 FE 0B              3665 	cp	a,#0x0B
   0C54 C2 5F 0C           3666 	jp	nz,00331$
   0C57 23                 3667 	inc	hl
   0C58 7E                 3668 	ld	a,(hl) ; 2
                           3669 ; Rule 3
   0C59 B7                 3670 	or	a,a
   0C5A C2 5F 0C           3671 	jp	nz,00331$
   0C5D 18 03              3672 	jr	00332$
   0C5F                    3673 00331$:
   0C5F C3 6B 0C           3674 	jp	00167$
   0C62                    3675 00332$:
                           3676 ;	main.c 383
                           3677 ; genIpush
   0C62 21 64 00           3678 	ld	hl,#_king + 0
   0C65 E5                 3679 	push	hl
                           3680 ; genCall
   0C66 CD D5 05           3681 	call	_setSlot2
   0C69 E8 02              3682 	lda	sp,2(sp)
                           3683 ; genLabel
   0C6B                    3684 00167$:
                           3685 ;	main.c 386
                           3686 ; genCmpEq
                           3687 ; AOP_STK for _main_card3_1_1
   0C6B F8 0A              3688 	lda	hl,10(sp)
   0C6D 7E                 3689 	ld	a,(hl) ; 2
   0C6E FE 01              3690 	cp	a,#0x01
   0C70 C2 7B 0C           3691 	jp	nz,00333$
   0C73 23                 3692 	inc	hl
   0C74 7E                 3693 	ld	a,(hl) ; 2
                           3694 ; Rule 3
   0C75 B7                 3695 	or	a,a
   0C76 C2 7B 0C           3696 	jp	nz,00333$
   0C79 18 03              3697 	jr	00334$
   0C7B                    3698 00333$:
   0C7B C3 8A 0C           3699 	jp	00198$
   0C7E                    3700 00334$:
                           3701 ;	main.c 388
                           3702 ; genIpush
   0C7E 21 00 00           3703 	ld	hl,#_ace + 0
   0C81 E5                 3704 	push	hl
                           3705 ; genCall
   0C82 CD 26 07           3706 	call	_setSlot3
   0C85 E8 02              3707 	lda	sp,2(sp)
                           3708 ; genGoto
   0C87 C3 BD 0D           3709 	jp	00208$
                           3710 ; genLabel
   0C8A                    3711 00198$:
                           3712 ;	main.c 390
                           3713 ; genCmpEq
                           3714 ; AOP_STK for _main_card3_1_1
   0C8A F8 0A              3715 	lda	hl,10(sp)
   0C8C 7E                 3716 	ld	a,(hl) ; 2
   0C8D FE 02              3717 	cp	a,#0x02
   0C8F C2 9A 0C           3718 	jp	nz,00335$
   0C92 23                 3719 	inc	hl
   0C93 7E                 3720 	ld	a,(hl) ; 2
                           3721 ; Rule 3
   0C94 B7                 3722 	or	a,a
   0C95 C2 9A 0C           3723 	jp	nz,00335$
   0C98 18 03              3724 	jr	00336$
   0C9A                    3725 00335$:
   0C9A C3 A9 0C           3726 	jp	00195$
   0C9D                    3727 00336$:
                           3728 ;	main.c 392
                           3729 ; genIpush
   0C9D 21 0A 00           3730 	ld	hl,#_two + 0
   0CA0 E5                 3731 	push	hl
                           3732 ; genCall
   0CA1 CD 26 07           3733 	call	_setSlot3
   0CA4 E8 02              3734 	lda	sp,2(sp)
                           3735 ; genGoto
   0CA6 C3 BD 0D           3736 	jp	00208$
                           3737 ; genLabel
   0CA9                    3738 00195$:
                           3739 ;	main.c 394
                           3740 ; genCmpEq
                           3741 ; AOP_STK for _main_card3_1_1
   0CA9 F8 0A              3742 	lda	hl,10(sp)
   0CAB 7E                 3743 	ld	a,(hl) ; 2
   0CAC FE 03              3744 	cp	a,#0x03
   0CAE C2 B9 0C           3745 	jp	nz,00337$
   0CB1 23                 3746 	inc	hl
   0CB2 7E                 3747 	ld	a,(hl) ; 2
                           3748 ; Rule 3
   0CB3 B7                 3749 	or	a,a
   0CB4 C2 B9 0C           3750 	jp	nz,00337$
   0CB7 18 03              3751 	jr	00338$
   0CB9                    3752 00337$:
   0CB9 C3 C8 0C           3753 	jp	00192$
   0CBC                    3754 00338$:
                           3755 ;	main.c 396
                           3756 ; genIpush
   0CBC 21 14 00           3757 	ld	hl,#_three + 0
   0CBF E5                 3758 	push	hl
                           3759 ; genCall
   0CC0 CD 26 07           3760 	call	_setSlot3
   0CC3 E8 02              3761 	lda	sp,2(sp)
                           3762 ; genGoto
   0CC5 C3 BD 0D           3763 	jp	00208$
                           3764 ; genLabel
   0CC8                    3765 00192$:
                           3766 ;	main.c 398
                           3767 ; genCmpEq
                           3768 ; AOP_STK for _main_card3_1_1
   0CC8 F8 0A              3769 	lda	hl,10(sp)
   0CCA 7E                 3770 	ld	a,(hl) ; 2
   0CCB FE 04              3771 	cp	a,#0x04
   0CCD C2 D8 0C           3772 	jp	nz,00339$
   0CD0 23                 3773 	inc	hl
   0CD1 7E                 3774 	ld	a,(hl) ; 2
                           3775 ; Rule 3
   0CD2 B7                 3776 	or	a,a
   0CD3 C2 D8 0C           3777 	jp	nz,00339$
   0CD6 18 03              3778 	jr	00340$
   0CD8                    3779 00339$:
   0CD8 C3 E7 0C           3780 	jp	00189$
   0CDB                    3781 00340$:
                           3782 ;	main.c 400
                           3783 ; genIpush
   0CDB 21 1E 00           3784 	ld	hl,#_four + 0
   0CDE E5                 3785 	push	hl
                           3786 ; genCall
   0CDF CD 26 07           3787 	call	_setSlot3
   0CE2 E8 02              3788 	lda	sp,2(sp)
                           3789 ; genGoto
   0CE4 C3 BD 0D           3790 	jp	00208$
                           3791 ; genLabel
   0CE7                    3792 00189$:
                           3793 ;	main.c 402
                           3794 ; genCmpEq
                           3795 ; AOP_STK for _main_card3_1_1
   0CE7 F8 0A              3796 	lda	hl,10(sp)
   0CE9 7E                 3797 	ld	a,(hl) ; 2
   0CEA FE 05              3798 	cp	a,#0x05
   0CEC C2 F7 0C           3799 	jp	nz,00341$
   0CEF 23                 3800 	inc	hl
   0CF0 7E                 3801 	ld	a,(hl) ; 2
                           3802 ; Rule 3
   0CF1 B7                 3803 	or	a,a
   0CF2 C2 F7 0C           3804 	jp	nz,00341$
   0CF5 18 03              3805 	jr	00342$
   0CF7                    3806 00341$:
   0CF7 C3 06 0D           3807 	jp	00186$
   0CFA                    3808 00342$:
                           3809 ;	main.c 404
                           3810 ; genIpush
   0CFA 21 28 00           3811 	ld	hl,#_five + 0
   0CFD E5                 3812 	push	hl
                           3813 ; genCall
   0CFE CD 26 07           3814 	call	_setSlot3
   0D01 E8 02              3815 	lda	sp,2(sp)
                           3816 ; genGoto
   0D03 C3 BD 0D           3817 	jp	00208$
                           3818 ; genLabel
   0D06                    3819 00186$:
                           3820 ;	main.c 406
                           3821 ; genCmpEq
                           3822 ; AOP_STK for _main_card3_1_1
   0D06 F8 0A              3823 	lda	hl,10(sp)
   0D08 7E                 3824 	ld	a,(hl) ; 2
   0D09 FE 06              3825 	cp	a,#0x06
   0D0B C2 16 0D           3826 	jp	nz,00343$
   0D0E 23                 3827 	inc	hl
   0D0F 7E                 3828 	ld	a,(hl) ; 2
                           3829 ; Rule 3
   0D10 B7                 3830 	or	a,a
   0D11 C2 16 0D           3831 	jp	nz,00343$
   0D14 18 03              3832 	jr	00344$
   0D16                    3833 00343$:
   0D16 C3 25 0D           3834 	jp	00183$
   0D19                    3835 00344$:
                           3836 ;	main.c 408
                           3837 ; genIpush
   0D19 21 32 00           3838 	ld	hl,#_six + 0
   0D1C E5                 3839 	push	hl
                           3840 ; genCall
   0D1D CD 26 07           3841 	call	_setSlot3
   0D20 E8 02              3842 	lda	sp,2(sp)
                           3843 ; genGoto
   0D22 C3 BD 0D           3844 	jp	00208$
                           3845 ; genLabel
   0D25                    3846 00183$:
                           3847 ;	main.c 410
                           3848 ; genCmpEq
                           3849 ; AOP_STK for _main_card3_1_1
   0D25 F8 0A              3850 	lda	hl,10(sp)
   0D27 7E                 3851 	ld	a,(hl) ; 2
   0D28 FE 07              3852 	cp	a,#0x07
   0D2A C2 35 0D           3853 	jp	nz,00345$
   0D2D 23                 3854 	inc	hl
   0D2E 7E                 3855 	ld	a,(hl) ; 2
                           3856 ; Rule 3
   0D2F B7                 3857 	or	a,a
   0D30 C2 35 0D           3858 	jp	nz,00345$
   0D33 18 03              3859 	jr	00346$
   0D35                    3860 00345$:
   0D35 C3 44 0D           3861 	jp	00180$
   0D38                    3862 00346$:
                           3863 ;	main.c 412
                           3864 ; genIpush
   0D38 21 3C 00           3865 	ld	hl,#_seven + 0
   0D3B E5                 3866 	push	hl
                           3867 ; genCall
   0D3C CD 26 07           3868 	call	_setSlot3
   0D3F E8 02              3869 	lda	sp,2(sp)
                           3870 ; genGoto
   0D41 C3 BD 0D           3871 	jp	00208$
                           3872 ; genLabel
   0D44                    3873 00180$:
                           3874 ;	main.c 414
                           3875 ; genCmpEq
                           3876 ; AOP_STK for _main_card3_1_1
   0D44 F8 0A              3877 	lda	hl,10(sp)
   0D46 7E                 3878 	ld	a,(hl) ; 2
   0D47 FE 08              3879 	cp	a,#0x08
   0D49 C2 54 0D           3880 	jp	nz,00347$
   0D4C 23                 3881 	inc	hl
   0D4D 7E                 3882 	ld	a,(hl) ; 2
                           3883 ; Rule 3
   0D4E B7                 3884 	or	a,a
   0D4F C2 54 0D           3885 	jp	nz,00347$
   0D52 18 03              3886 	jr	00348$
   0D54                    3887 00347$:
   0D54 C3 63 0D           3888 	jp	00177$
   0D57                    3889 00348$:
                           3890 ;	main.c 416
                           3891 ; genIpush
   0D57 21 46 00           3892 	ld	hl,#_eight + 0
   0D5A E5                 3893 	push	hl
                           3894 ; genCall
   0D5B CD 26 07           3895 	call	_setSlot3
   0D5E E8 02              3896 	lda	sp,2(sp)
                           3897 ; genGoto
   0D60 C3 BD 0D           3898 	jp	00208$
                           3899 ; genLabel
   0D63                    3900 00177$:
                           3901 ;	main.c 418
                           3902 ; genCmpEq
                           3903 ; AOP_STK for _main_card3_1_1
   0D63 F8 0A              3904 	lda	hl,10(sp)
   0D65 7E                 3905 	ld	a,(hl) ; 2
   0D66 FE 09              3906 	cp	a,#0x09
   0D68 C2 73 0D           3907 	jp	nz,00349$
   0D6B 23                 3908 	inc	hl
   0D6C 7E                 3909 	ld	a,(hl) ; 2
                           3910 ; Rule 3
   0D6D B7                 3911 	or	a,a
   0D6E C2 73 0D           3912 	jp	nz,00349$
   0D71 18 03              3913 	jr	00350$
   0D73                    3914 00349$:
   0D73 C3 82 0D           3915 	jp	00174$
   0D76                    3916 00350$:
                           3917 ;	main.c 420
                           3918 ; genIpush
   0D76 21 50 00           3919 	ld	hl,#_nine + 0
   0D79 E5                 3920 	push	hl
                           3921 ; genCall
   0D7A CD 26 07           3922 	call	_setSlot3
   0D7D E8 02              3923 	lda	sp,2(sp)
                           3924 ; genGoto
   0D7F C3 BD 0D           3925 	jp	00208$
                           3926 ; genLabel
   0D82                    3927 00174$:
                           3928 ;	main.c 422
                           3929 ; genCmpEq
                           3930 ; AOP_STK for _main_card3_1_1
   0D82 F8 0A              3931 	lda	hl,10(sp)
   0D84 7E                 3932 	ld	a,(hl) ; 2
   0D85 FE 0A              3933 	cp	a,#0x0A
   0D87 C2 92 0D           3934 	jp	nz,00351$
   0D8A 23                 3935 	inc	hl
   0D8B 7E                 3936 	ld	a,(hl) ; 2
                           3937 ; Rule 3
   0D8C B7                 3938 	or	a,a
   0D8D C2 92 0D           3939 	jp	nz,00351$
   0D90 18 03              3940 	jr	00352$
   0D92                    3941 00351$:
   0D92 C3 A1 0D           3942 	jp	00171$
   0D95                    3943 00352$:
                           3944 ;	main.c 424
                           3945 ; genIpush
   0D95 21 5A 00           3946 	ld	hl,#_jack + 0
   0D98 E5                 3947 	push	hl
                           3948 ; genCall
   0D99 CD 26 07           3949 	call	_setSlot3
   0D9C E8 02              3950 	lda	sp,2(sp)
                           3951 ; genGoto
   0D9E C3 BD 0D           3952 	jp	00208$
                           3953 ; genLabel
   0DA1                    3954 00171$:
                           3955 ;	main.c 426
                           3956 ; genCmpEq
                           3957 ; AOP_STK for _main_card3_1_1
   0DA1 F8 0A              3958 	lda	hl,10(sp)
   0DA3 7E                 3959 	ld	a,(hl) ; 2
   0DA4 FE 0B              3960 	cp	a,#0x0B
   0DA6 C2 B1 0D           3961 	jp	nz,00353$
   0DA9 23                 3962 	inc	hl
   0DAA 7E                 3963 	ld	a,(hl) ; 2
                           3964 ; Rule 3
   0DAB B7                 3965 	or	a,a
   0DAC C2 B1 0D           3966 	jp	nz,00353$
   0DAF 18 03              3967 	jr	00354$
   0DB1                    3968 00353$:
   0DB1 C3 BD 0D           3969 	jp	00208$
   0DB4                    3970 00354$:
                           3971 ;	main.c 428
                           3972 ; genIpush
   0DB4 21 64 00           3973 	ld	hl,#_king + 0
   0DB7 E5                 3974 	push	hl
                           3975 ; genCall
   0DB8 CD 26 07           3976 	call	_setSlot3
   0DBB E8 02              3977 	lda	sp,2(sp)
                           3978 ;	main.c 431
                           3979 ; genLabel
   0DBD                    3980 00208$:
                           3981 ; genCmpEq
                           3982 ; AOP_STK for _main_answered_1_1
                           3983 ; AOP_STK for _main_sloc0_1_0
   0DBD F8 14              3984 	lda	hl,20(sp)
   0DBF 2A                 3985 	ld	a,(hl+)
   0DC0 B6                 3986 	or	a,(hl)
   0DC1 C2 C8 0D           3987 	jp	nz,00355$
   0DC4 3E 01              3988 	ld	a,#0x01
   0DC6 18 01              3989 	jr	00356$
   0DC8                    3990 00355$:
   0DC8 AF                 3991 	xor	a,a
   0DC9                    3992 00356$:
   0DC9 F8 05              3993 	lda	hl,5(sp)
   0DCB 77                 3994 	ld	(hl),a ; 3
                           3995 ; genIfx
                           3996 ; AOP_STK for _main_sloc0_1_0
                           3997 ; Removed redundent or a,a
   0DCC AF                 3998 	xor	a,a
   0DCD B6                 3999 	or	a,(hl)
   0DCE CA 4E 0E           4000 	jp	z,00210$
                           4001 ;	main.c 433
                           4002 ; genCall
   0DD1 CD 00 00           4003 	call	_joypad
                           4004 ; AOP_STK for _main_sloc3_1_0
   0DD4 F8 02              4005 	lda	hl,2(sp)
   0DD6 73                 4006 	ld	(hl),e ; 3
                           4007 ; genCmpEq
                           4008 ; AOP_STK for _main_sloc3_1_0
                           4009 ; AOP_STK for _main_sloc2_1_0
   0DD7 7E                 4010 	ld	a,(hl) ; 2
   0DD8 FE 02              4011 	cp	a,#0x02
   0DDA C2 E1 0D           4012 	jp	nz,00357$
   0DDD 3E 01              4013 	ld	a,#0x01
   0DDF 18 01              4014 	jr	00358$
   0DE1                    4015 00357$:
   0DE1 AF                 4016 	xor	a,a
   0DE2                    4017 00358$:
   0DE2 F8 03              4018 	lda	hl,3(sp)
   0DE4 77                 4019 	ld	(hl),a ; 3
                           4020 ; genIfx
                           4021 ; AOP_STK for _main_sloc2_1_0
                           4022 ; Removed redundent or a,a
   0DE5 AF                 4023 	xor	a,a
   0DE6 B6                 4024 	or	a,(hl)
   0DE7 CA FC 0D           4025 	jp	z,00206$
                           4026 ;	main.c 434
                           4027 ; genAssign
                           4028 ; AOP_STK for _main_card1_1_1
                           4029 ; AOP_STK for _main_usernumber_1_1
   0DEA F8 0E              4030 	lda	hl,14(sp)
   0DEC 2A                 4031 	ld	a,(hl+)
   0DED 5E                 4032 	ld	e,(hl)
   0DEE F8 12              4033 	lda	hl,18(sp)
   0DF0 77                 4034 	ld	(hl),a ; 3
   0DF1 23                 4035 	inc	hl
   0DF2 73                 4036 	ld	(hl),e ; 3
                           4037 ;	main.c 435
                           4038 ; genAssign
                           4039 ; AOP_STK for _main_answered_1_1
   0DF3 23                 4040 	inc	hl
   0DF4 36 01              4041 	ld	(hl),#0x01 ; 3
   0DF6 23                 4042 	inc	hl
   0DF7 36 00              4043 	ld	(hl),#0x00 ; 3
                           4044 ; genGoto
   0DF9 C3 BD 0D           4045 	jp	00208$
                           4046 ; genLabel
   0DFC                    4047 00206$:
                           4048 ;	main.c 437
                           4049 ; genCall
   0DFC CD 00 00           4050 	call	_joypad
                           4051 ; AOP_STK for _main_sloc5_1_0
   0DFF F8 00              4052 	lda	hl,0(sp)
   0E01 73                 4053 	ld	(hl),e ; 3
                           4054 ; genCmpEq
                           4055 ; AOP_STK for _main_sloc5_1_0
                           4056 ; AOP_STK for _main_sloc4_1_0
   0E02 7E                 4057 	ld	a,(hl) ; 2
   0E03 FE 04              4058 	cp	a,#0x04
   0E05 C2 0C 0E           4059 	jp	nz,00359$
   0E08 3E 01              4060 	ld	a,#0x01
   0E0A 18 01              4061 	jr	00360$
   0E0C                    4062 00359$:
   0E0C AF                 4063 	xor	a,a
   0E0D                    4064 00360$:
   0E0D F8 01              4065 	lda	hl,1(sp)
   0E0F 77                 4066 	ld	(hl),a ; 3
                           4067 ; genIfx
                           4068 ; AOP_STK for _main_sloc4_1_0
                           4069 ; Removed redundent or a,a
   0E10 AF                 4070 	xor	a,a
   0E11 B6                 4071 	or	a,(hl)
   0E12 CA 27 0E           4072 	jp	z,00203$
                           4073 ;	main.c 438
                           4074 ; genAssign
                           4075 ; AOP_STK for _main_card2_1_1
                           4076 ; AOP_STK for _main_usernumber_1_1
   0E15 F8 0C              4077 	lda	hl,12(sp)
   0E17 2A                 4078 	ld	a,(hl+)
   0E18 5E                 4079 	ld	e,(hl)
   0E19 F8 12              4080 	lda	hl,18(sp)
   0E1B 77                 4081 	ld	(hl),a ; 3
   0E1C 23                 4082 	inc	hl
   0E1D 73                 4083 	ld	(hl),e ; 3
                           4084 ;	main.c 439
                           4085 ; genAssign
                           4086 ; AOP_STK for _main_answered_1_1
   0E1E 23                 4087 	inc	hl
   0E1F 36 01              4088 	ld	(hl),#0x01 ; 3
   0E21 23                 4089 	inc	hl
   0E22 36 00              4090 	ld	(hl),#0x00 ; 3
                           4091 ; genGoto
   0E24 C3 BD 0D           4092 	jp	00208$
                           4093 ; genLabel
   0E27                    4094 00203$:
                           4095 ;	main.c 441
                           4096 ; genCall
   0E27 CD 00 00           4097 	call	_joypad
   0E2A 43                 4098 	ld	b,e
                           4099 ; genCmpEq
   0E2B 78                 4100 	ld	a,b ; 2
   0E2C FE 01              4101 	cp	a,#0x01
   0E2E C2 35 0E           4102 	jp	nz,00361$
   0E31 3E 01              4103 	ld	a,#0x01
   0E33 18 01              4104 	jr	00362$
   0E35                    4105 00361$:
   0E35 AF                 4106 	xor	a,a
   0E36                    4107 00362$:
   0E36 4F                 4108 	ld	c,a
                           4109 ; genIfx
                           4110 ; Removed redundent or a,a
   0E37 AF                 4111 	xor	a,a
   0E38 B1                 4112 	or	a,c
   0E39 CA BD 0D           4113 	jp	z,00208$
                           4114 ;	main.c 442
                           4115 ; genAssign
                           4116 ; AOP_STK for _main_card3_1_1
                           4117 ; AOP_STK for _main_usernumber_1_1
   0E3C F8 0A              4118 	lda	hl,10(sp)
   0E3E 2A                 4119 	ld	a,(hl+)
   0E3F 5E                 4120 	ld	e,(hl)
   0E40 F8 12              4121 	lda	hl,18(sp)
   0E42 77                 4122 	ld	(hl),a ; 3
   0E43 23                 4123 	inc	hl
   0E44 73                 4124 	ld	(hl),e ; 3
                           4125 ;	main.c 443
                           4126 ; genAssign
                           4127 ; AOP_STK for _main_answered_1_1
   0E45 23                 4128 	inc	hl
   0E46 36 01              4129 	ld	(hl),#0x01 ; 3
   0E48 23                 4130 	inc	hl
   0E49 36 00              4131 	ld	(hl),#0x00 ; 3
                           4132 ; genGoto
   0E4B C3 BD 0D           4133 	jp	00208$
                           4134 ; genLabel
   0E4E                    4135 00210$:
                           4136 ;	main.c 447
                           4137 ; genIfx
                           4138 ; AOP_STK for _main_sloc1_1_0
   0E4E AF                 4139 	xor	a,a
   0E4F F8 04              4140 	lda	hl,4(sp)
   0E51 B6                 4141 	or	a,(hl)
   0E52 B7                 4142 	or	a,a
   0E53 CA 8F 0E           4143 	jp	z,00218$
                           4144 ;	main.c 448
                           4145 ; genIpush
   0E56 21 0B 00           4146 	ld	hl,#0x000B
   0E59 E5                 4147 	push	hl
                           4148 ; genCall
   0E5A CD 14 00           4149 	call	_random_number
   0E5D 42                 4150 	ld	b,d
   0E5E 4B                 4151 	ld	c,e
   0E5F E8 02              4152 	lda	sp,2(sp)
                           4153 ; genCmpGt
                           4154 ; AOP_STK for _main_usernumber_1_1
   0E61 78                 4155 	ld	a,b
   0E62 EE 80              4156 	xor	a,#0x80
   0E64 5F                 4157 	ld	e,a
   0E65 F8 13              4158 	lda	hl,19(sp)
   0E67 7E                 4159 	ld	a,(hl)
   0E68 EE 80              4160 	xor	a,#0x80
   0E6A 57                 4161 	ld	d,a
   0E6B 79                 4162 	ld	a,c
   0E6C 2B                 4163 	dec	hl
   0E6D 9E                 4164 	sbc	a,(hl) ; 2
   0E6E 7B                 4165 	ld	a,e
   0E6F 9A                 4166 	sbc	a,d
   0E70 D2 81 0E           4167 	jp	nc,00212$
                           4168 ;	main.c 449
                           4169 ; genPlus
                           4170 ; AOP_STK for _main_souls_1_1
                           4171 ; genPlusIncr
   0E73 F8 16              4172 	lda	hl,22(sp)
   0E75 7E                 4173 	ld	a,(hl)
   0E76 C6 05              4174 	add	a,#0x05
   0E78 77                 4175 	ld	(hl),a ; 3
   0E79 23                 4176 	inc	hl
   0E7A 7E                 4177 	ld	a,(hl)
   0E7B CE 00              4178 	adc	a,#0x00
   0E7D 77                 4179 	ld	(hl),a ; 3
                           4180 ; genGoto
   0E7E C3 C5 0E           4181 	jp	00219$
                           4182 ; genLabel
   0E81                    4183 00212$:
                           4184 ;	main.c 451
                           4185 ; genMinus
                           4186 ; AOP_STK for _main_souls_1_1
   0E81 F8 16              4187 	lda	hl,22(sp)
   0E83 7E                 4188 	ld	a,(hl)
   0E84 C6 FB              4189 	add	a,#0xFB
   0E86 77                 4190 	ld	(hl),a ; 3
   0E87 23                 4191 	inc	hl
   0E88 7E                 4192 	ld	a,(hl)
   0E89 CE FF              4193 	adc	a,#0xFF
   0E8B 77                 4194 	ld	(hl),a ; 3
                           4195 ; genGoto
   0E8C C3 C5 0E           4196 	jp	00219$
                           4197 ; genLabel
   0E8F                    4198 00218$:
                           4199 ;	main.c 454
                           4200 ; genIpush
   0E8F 21 0B 00           4201 	ld	hl,#0x000B
   0E92 E5                 4202 	push	hl
                           4203 ; genCall
   0E93 CD 14 00           4204 	call	_random_number
   0E96 42                 4205 	ld	b,d
   0E97 4B                 4206 	ld	c,e
   0E98 E8 02              4207 	lda	sp,2(sp)
                           4208 ; genCmpLt
                           4209 ; AOP_STK for _main_usernumber_1_1
   0E9A F8 13              4210 	lda	hl,19(sp)
   0E9C 7E                 4211 	ld	a,(hl)
   0E9D EE 80              4212 	xor	a,#0x80
   0E9F 5F                 4213 	ld	e,a
   0EA0 78                 4214 	ld	a,b
   0EA1 EE 80              4215 	xor	a,#0x80
   0EA3 57                 4216 	ld	d,a
   0EA4 2B                 4217 	dec	hl
   0EA5 7E                 4218 	ld	a,(hl)
   0EA6 99                 4219 	sbc	a,c ; 2
   0EA7 7B                 4220 	ld	a,e
   0EA8 9A                 4221 	sbc	a,d
   0EA9 D2 BA 0E           4222 	jp	nc,00215$
                           4223 ;	main.c 455
                           4224 ; genPlus
                           4225 ; AOP_STK for _main_souls_1_1
                           4226 ; genPlusIncr
   0EAC F8 16              4227 	lda	hl,22(sp)
   0EAE 7E                 4228 	ld	a,(hl)
   0EAF C6 05              4229 	add	a,#0x05
   0EB1 77                 4230 	ld	(hl),a ; 3
   0EB2 23                 4231 	inc	hl
   0EB3 7E                 4232 	ld	a,(hl)
   0EB4 CE 00              4233 	adc	a,#0x00
   0EB6 77                 4234 	ld	(hl),a ; 3
                           4235 ; genGoto
   0EB7 C3 C5 0E           4236 	jp	00219$
                           4237 ; genLabel
   0EBA                    4238 00215$:
                           4239 ;	main.c 457
                           4240 ; genMinus
                           4241 ; AOP_STK for _main_souls_1_1
   0EBA F8 16              4242 	lda	hl,22(sp)
   0EBC 7E                 4243 	ld	a,(hl)
   0EBD C6 FB              4244 	add	a,#0xFB
   0EBF 77                 4245 	ld	(hl),a ; 3
   0EC0 23                 4246 	inc	hl
   0EC1 7E                 4247 	ld	a,(hl)
   0EC2 CE FF              4248 	adc	a,#0xFF
   0EC4 77                 4249 	ld	(hl),a ; 3
                           4250 ; genLabel
   0EC5                    4251 00219$:
                           4252 ;	main.c 461
                           4253 ; genIpush
                           4254 ; AOP_STK for _main_souls_1_1
   0EC5 F8 16              4255 	lda	hl,22(sp)
   0EC7 2A                 4256 	ld	a,(hl+)
   0EC8 66                 4257 	ld	h,(hl)
   0EC9 6F                 4258 	ld	l,a
   0ECA E5                 4259 	push	hl
                           4260 ; genCall
   0ECB CD CB 01           4261 	call	_set_souls
   0ECE E8 02              4262 	lda	sp,2(sp)
                           4263 ;	main.c 462
                           4264 ; genAssign
                           4265 ; AOP_STK for _main_answered_1_1
   0ED0 F8 14              4266 	lda	hl,20(sp)
   0ED2 36 00              4267 	ld	(hl),#0x00 ; 3
   0ED4 23                 4268 	inc	hl
   0ED5 36 00              4269 	ld	(hl),#0x00 ; 3
                           4270 ;	main.c 464
                           4271 ; genCmpGt
                           4272 ; AOP_STK for _main_souls_1_1
   0ED7 1E 80              4273 	ld	e,#0x80
   0ED9 23                 4274 	inc	hl
   0EDA 23                 4275 	inc	hl
   0EDB 7E                 4276 	ld	a,(hl)
   0EDC EE 80              4277 	xor	a,#0x80
   0EDE 57                 4278 	ld	d,a
   0EDF 3E 00              4279 	ld	a,#0x00
   0EE1 2B                 4280 	dec	hl
   0EE2 9E                 4281 	sbc	a,(hl) ; 2
   0EE3 7B                 4282 	ld	a,e
   0EE4 9A                 4283 	sbc	a,d
   0EE5 DA EF 0E           4284 	jp	c,00221$
                           4285 ;	main.c 465
                           4286 ; genAssign
                           4287 ; AOP_STK for _main_lose_1_1
   0EE8 F8 06              4288 	lda	hl,6(sp)
   0EEA 36 01              4289 	ld	(hl),#0x01 ; 3
   0EEC 23                 4290 	inc	hl
   0EED 36 00              4291 	ld	(hl),#0x00 ; 3
                           4292 ; genLabel
   0EEF                    4293 00221$:
                           4294 ;	main.c 468
                           4295 ; genCmpLt
                           4296 ; AOP_STK for _main_souls_1_1
   0EEF F8 17              4297 	lda	hl,23(sp)
   0EF1 7E                 4298 	ld	a,(hl)
   0EF2 EE 80              4299 	xor	a,#0x80
   0EF4 5F                 4300 	ld	e,a
   0EF5 16 80              4301 	ld	d,#0x80
   0EF7 2B                 4302 	dec	hl
   0EF8 7E                 4303 	ld	a,(hl)
   0EF9 DE 64              4304 	sbc	a,#0x64 ; 2
   0EFB 7B                 4305 	ld	a,e
   0EFC 9A                 4306 	sbc	a,d
   0EFD DA 07 0F           4307 	jp	c,00223$
                           4308 ;	main.c 469
                           4309 ; genAssign
                           4310 ; AOP_STK for _main_won_1_1
   0F00 F8 08              4311 	lda	hl,8(sp)
   0F02 36 01              4312 	ld	(hl),#0x01 ; 3
   0F04 23                 4313 	inc	hl
   0F05 36 00              4314 	ld	(hl),#0x00 ; 3
                           4315 ; genLabel
   0F07                    4316 00223$:
                           4317 ;	main.c 472
                           4318 ; genIpush
   0F07 3E 32              4319 	ld	a,#0x32
   0F09 F5                 4320 	push	af
   0F0A 33                 4321 	inc	sp
                           4322 ; genCall
   0F0B CD 00 00           4323 	call	_performant_delay
   0F0E E8 01              4324 	lda	sp,1(sp)
                           4325 ; genGoto
   0F10 C3 1D 09           4326 	jp	00225$
                           4327 ; genLabel
   0F13                    4328 00227$:
                           4329 ;	main.c 475
                           4330 ; genIfx
                           4331 ; AOP_STK for _main_won_1_1
   0F13 F8 08              4332 	lda	hl,8(sp)
                           4333 ; Rule 8
   0F15 2A                 4334 	ld	a,(hl+)
   0F16 B6                 4335 	or	a,(hl)
   0F17 CA 35 0F           4336 	jp	z,00229$
                           4337 ;	main.c 476
                           4338 ; genCall
   0F1A CD F6 00           4339 	call	_set_background_devil_angry
                           4340 ;	main.c 477
                           4341 ; genAnd
                           4342 ; AOP_SFR for _LCDC_REG
   0F1D F0 00              4343 	ldh	a,(_LCDC_REG+0) ; x
   0F1F E6 FD              4344 	and	a,#0xFD
   0F21 E0 00              4345 	ldh	(_LCDC_REG+0),a
                           4346 ;	main.c 478
                           4347 ; genIpush
   0F23 3E 64              4348 	ld	a,#0x64
   0F25 F5                 4349 	push	af
   0F26 33                 4350 	inc	sp
                           4351 ; genCall
   0F27 CD 00 00           4352 	call	_performant_delay
   0F2A E8 01              4353 	lda	sp,1(sp)
                           4354 ;	main.c 479
                           4355 ; genIpush
   0F2C 21 7B 53           4356 	ld	hl,#__str_0 + 0
   0F2F E5                 4357 	push	hl
                           4358 ; genCall
   0F30 CD 00 00           4359 	call	_printf
   0F33 E8 02              4360 	lda	sp,2(sp)
                           4361 ; genLabel
   0F35                    4362 00229$:
                           4363 ;	main.c 482
                           4364 ; genIfx
                           4365 ; AOP_STK for _main_lose_1_1
   0F35 F8 06              4366 	lda	hl,6(sp)
                           4367 ; Rule 8
   0F37 2A                 4368 	ld	a,(hl+)
   0F38 B6                 4369 	or	a,(hl)
   0F39 CA 57 0F           4370 	jp	z,00232$
                           4371 ;	main.c 483
                           4372 ; genCall
   0F3C CD 23 01           4373 	call	_set_background_devil_laugh
                           4374 ;	main.c 484
                           4375 ; genAnd
                           4376 ; AOP_SFR for _LCDC_REG
   0F3F F0 00              4377 	ldh	a,(_LCDC_REG+0) ; x
   0F41 E6 FD              4378 	and	a,#0xFD
   0F43 E0 00              4379 	ldh	(_LCDC_REG+0),a
                           4380 ;	main.c 485
                           4381 ; genIpush
   0F45 3E 64              4382 	ld	a,#0x64
   0F47 F5                 4383 	push	af
   0F48 33                 4384 	inc	sp
                           4385 ; genCall
   0F49 CD 00 00           4386 	call	_performant_delay
   0F4C E8 01              4387 	lda	sp,1(sp)
                           4388 ;	main.c 486
                           4389 ; genIpush
   0F4E 21 84 53           4390 	ld	hl,#__str_1 + 0
   0F51 E5                 4391 	push	hl
                           4392 ; genCall
   0F52 CD 00 00           4393 	call	_printf
   0F55 E8 02              4394 	lda	sp,2(sp)
                           4395 ; genLabel
   0F57                    4396 00232$:
                           4397 ; genEndFunction
   0F57 E8 18              4398 	lda	sp,24(sp)
   0F59 C1                 4399 	pop bc
   0F5A C9                 4400 	ret
   0F5B                    4401 ___main_end:
                           4402 	.area _CODE
   0F5B                    4403 _splash_data:
   0F5B 00                 4404 	.db #0x00
   0F5C 00                 4405 	.db #0x00
   0F5D 00                 4406 	.db #0x00
   0F5E 00                 4407 	.db #0x00
   0F5F 00                 4408 	.db #0x00
   0F60 00                 4409 	.db #0x00
   0F61 00                 4410 	.db #0x00
   0F62 00                 4411 	.db #0x00
   0F63 00                 4412 	.db #0x00
   0F64 00                 4413 	.db #0x00
   0F65 00                 4414 	.db #0x00
   0F66 00                 4415 	.db #0x00
   0F67 00                 4416 	.db #0x00
   0F68 00                 4417 	.db #0x00
   0F69 00                 4418 	.db #0x00
   0F6A 00                 4419 	.db #0x00
   0F6B 00                 4420 	.db #0x00
   0F6C 00                 4421 	.db #0x00
   0F6D 00                 4422 	.db #0x00
   0F6E 00                 4423 	.db #0x00
   0F6F 00                 4424 	.db #0x00
   0F70 00                 4425 	.db #0x00
   0F71 FF                 4426 	.db #0xFF
   0F72 FF                 4427 	.db #0xFF
   0F73 30                 4428 	.db #0x30
   0F74 FF                 4429 	.db #0xFF
   0F75 20                 4430 	.db #0x20
   0F76 30                 4431 	.db #0x30
   0F77 20                 4432 	.db #0x20
   0F78 30                 4433 	.db #0x30
   0F79 20                 4434 	.db #0x20
   0F7A 30                 4435 	.db #0x30
   0F7B 00                 4436 	.db #0x00
   0F7C 00                 4437 	.db #0x00
   0F7D 00                 4438 	.db #0x00
   0F7E 00                 4439 	.db #0x00
   0F7F 00                 4440 	.db #0x00
   0F80 00                 4441 	.db #0x00
   0F81 E0                 4442 	.db #0xE0
   0F82 E0                 4443 	.db #0xE0
   0F83 00                 4444 	.db #0x00
   0F84 E0                 4445 	.db #0xE0
   0F85 10                 4446 	.db #0x10
   0F86 08                 4447 	.db #0x08
   0F87 08                 4448 	.db #0x08
   0F88 18                 4449 	.db #0x18
   0F89 02                 4450 	.db #0x02
   0F8A 06                 4451 	.db #0x06
   0F8B 00                 4452 	.db #0x00
   0F8C 00                 4453 	.db #0x00
   0F8D 00                 4454 	.db #0x00
   0F8E 00                 4455 	.db #0x00
   0F8F 00                 4456 	.db #0x00
   0F90 00                 4457 	.db #0x00
   0F91 00                 4458 	.db #0x00
   0F92 00                 4459 	.db #0x00
   0F93 00                 4460 	.db #0x00
   0F94 00                 4461 	.db #0x00
   0F95 00                 4462 	.db #0x00
   0F96 00                 4463 	.db #0x00
   0F97 00                 4464 	.db #0x00
   0F98 00                 4465 	.db #0x00
   0F99 1F                 4466 	.db #0x1F
   0F9A 1F                 4467 	.db #0x1F
   0F9B 00                 4468 	.db #0x00
   0F9C 00                 4469 	.db #0x00
   0F9D 00                 4470 	.db #0x00
   0F9E 00                 4471 	.db #0x00
   0F9F 00                 4472 	.db #0x00
   0FA0 00                 4473 	.db #0x00
   0FA1 00                 4474 	.db #0x00
   0FA2 00                 4475 	.db #0x00
   0FA3 00                 4476 	.db #0x00
   0FA4 00                 4477 	.db #0x00
   0FA5 00                 4478 	.db #0x00
   0FA6 00                 4479 	.db #0x00
   0FA7 00                 4480 	.db #0x00
   0FA8 00                 4481 	.db #0x00
   0FA9 FC                 4482 	.db #0xFC
   0FAA FC                 4483 	.db #0xFC
   0FAB 00                 4484 	.db #0x00
   0FAC 00                 4485 	.db #0x00
   0FAD 00                 4486 	.db #0x00
   0FAE 00                 4487 	.db #0x00
   0FAF 00                 4488 	.db #0x00
   0FB0 00                 4489 	.db #0x00
   0FB1 00                 4490 	.db #0x00
   0FB2 00                 4491 	.db #0x00
   0FB3 00                 4492 	.db #0x00
   0FB4 00                 4493 	.db #0x00
   0FB5 00                 4494 	.db #0x00
   0FB6 00                 4495 	.db #0x00
   0FB7 00                 4496 	.db #0x00
   0FB8 00                 4497 	.db #0x00
   0FB9 0F                 4498 	.db #0x0F
   0FBA 0F                 4499 	.db #0x0F
   0FBB 00                 4500 	.db #0x00
   0FBC 00                 4501 	.db #0x00
   0FBD 00                 4502 	.db #0x00
   0FBE 00                 4503 	.db #0x00
   0FBF 00                 4504 	.db #0x00
   0FC0 00                 4505 	.db #0x00
   0FC1 00                 4506 	.db #0x00
   0FC2 00                 4507 	.db #0x00
   0FC3 00                 4508 	.db #0x00
   0FC4 00                 4509 	.db #0x00
   0FC5 00                 4510 	.db #0x00
   0FC6 00                 4511 	.db #0x00
   0FC7 00                 4512 	.db #0x00
   0FC8 00                 4513 	.db #0x00
   0FC9 F8                 4514 	.db #0xF8
   0FCA F8                 4515 	.db #0xF8
   0FCB 00                 4516 	.db #0x00
   0FCC 00                 4517 	.db #0x00
   0FCD 00                 4518 	.db #0x00
   0FCE 00                 4519 	.db #0x00
   0FCF 00                 4520 	.db #0x00
   0FD0 00                 4521 	.db #0x00
   0FD1 70                 4522 	.db #0x70
   0FD2 78                 4523 	.db #0x78
   0FD3 10                 4524 	.db #0x10
   0FD4 78                 4525 	.db #0x78
   0FD5 10                 4526 	.db #0x10
   0FD6 18                 4527 	.db #0x18
   0FD7 10                 4528 	.db #0x10
   0FD8 18                 4529 	.db #0x18
   0FD9 10                 4530 	.db #0x10
   0FDA 18                 4531 	.db #0x18
   0FDB 00                 4532 	.db #0x00
   0FDC 00                 4533 	.db #0x00
   0FDD 00                 4534 	.db #0x00
   0FDE 00                 4535 	.db #0x00
   0FDF 00                 4536 	.db #0x00
   0FE0 00                 4537 	.db #0x00
   0FE1 00                 4538 	.db #0x00
   0FE2 00                 4539 	.db #0x00
   0FE3 00                 4540 	.db #0x00
   0FE4 00                 4541 	.db #0x00
   0FE5 00                 4542 	.db #0x00
   0FE6 00                 4543 	.db #0x00
   0FE7 00                 4544 	.db #0x00
   0FE8 00                 4545 	.db #0x00
   0FE9 87                 4546 	.db #0x87
   0FEA C7                 4547 	.db #0xC7
   0FEB 00                 4548 	.db #0x00
   0FEC 00                 4549 	.db #0x00
   0FED 00                 4550 	.db #0x00
   0FEE 00                 4551 	.db #0x00
   0FEF 00                 4552 	.db #0x00
   0FF0 00                 4553 	.db #0x00
   0FF1 00                 4554 	.db #0x00
   0FF2 00                 4555 	.db #0x00
   0FF3 00                 4556 	.db #0x00
   0FF4 00                 4557 	.db #0x00
   0FF5 00                 4558 	.db #0x00
   0FF6 00                 4559 	.db #0x00
   0FF7 00                 4560 	.db #0x00
   0FF8 00                 4561 	.db #0x00
   0FF9 E0                 4562 	.db #0xE0
   0FFA E0                 4563 	.db #0xE0
   0FFB 00                 4564 	.db #0x00
   0FFC 00                 4565 	.db #0x00
   0FFD 00                 4566 	.db #0x00
   0FFE 00                 4567 	.db #0x00
   0FFF 00                 4568 	.db #0x00
   1000 00                 4569 	.db #0x00
   1001 10                 4570 	.db #0x10
   1002 18                 4571 	.db #0x18
   1003 08                 4572 	.db #0x08
   1004 10                 4573 	.db #0x10
   1005 00                 4574 	.db #0x00
   1006 00                 4575 	.db #0x00
   1007 00                 4576 	.db #0x00
   1008 00                 4577 	.db #0x00
   1009 70                 4578 	.db #0x70
   100A 78                 4579 	.db #0x78
   100B 00                 4580 	.db #0x00
   100C 00                 4581 	.db #0x00
   100D 00                 4582 	.db #0x00
   100E 00                 4583 	.db #0x00
   100F 00                 4584 	.db #0x00
   1010 00                 4585 	.db #0x00
   1011 08                 4586 	.db #0x08
   1012 0C                 4587 	.db #0x0C
   1013 08                 4588 	.db #0x08
   1014 0C                 4589 	.db #0x0C
   1015 08                 4590 	.db #0x08
   1016 0C                 4591 	.db #0x0C
   1017 08                 4592 	.db #0x08
   1018 0C                 4593 	.db #0x0C
   1019 FF                 4594 	.db #0xFF
   101A FF                 4595 	.db #0xFF
   101B 00                 4596 	.db #0x00
   101C 00                 4597 	.db #0x00
   101D 00                 4598 	.db #0x00
   101E 00                 4599 	.db #0x00
   101F 00                 4600 	.db #0x00
   1020 00                 4601 	.db #0x00
   1021 01                 4602 	.db #0x01
   1022 01                 4603 	.db #0x01
   1023 00                 4604 	.db #0x00
   1024 01                 4605 	.db #0x01
   1025 00                 4606 	.db #0x00
   1026 00                 4607 	.db #0x00
   1027 00                 4608 	.db #0x00
   1028 00                 4609 	.db #0x00
   1029 80                 4610 	.db #0x80
   102A 80                 4611 	.db #0x80
   102B 00                 4612 	.db #0x00
   102C 00                 4613 	.db #0x00
   102D 00                 4614 	.db #0x00
   102E 00                 4615 	.db #0x00
   102F 00                 4616 	.db #0x00
   1030 00                 4617 	.db #0x00
   1031 F8                 4618 	.db #0xF8
   1032 F8                 4619 	.db #0xF8
   1033 60                 4620 	.db #0x60
   1034 F8                 4621 	.db #0xF8
   1035 40                 4622 	.db #0x40
   1036 60                 4623 	.db #0x60
   1037 40                 4624 	.db #0x40
   1038 60                 4625 	.db #0x60
   1039 47                 4626 	.db #0x47
   103A 67                 4627 	.db #0x67
   103B 00                 4628 	.db #0x00
   103C 00                 4629 	.db #0x00
   103D 00                 4630 	.db #0x00
   103E 00                 4631 	.db #0x00
   103F 00                 4632 	.db #0x00
   1040 00                 4633 	.db #0x00
   1041 00                 4634 	.db #0x00
   1042 00                 4635 	.db #0x00
   1043 00                 4636 	.db #0x00
   1044 00                 4637 	.db #0x00
   1045 00                 4638 	.db #0x00
   1046 00                 4639 	.db #0x00
   1047 00                 4640 	.db #0x00
   1048 00                 4641 	.db #0x00
   1049 C0                 4642 	.db #0xC0
   104A C0                 4643 	.db #0xC0
   104B 20                 4644 	.db #0x20
   104C 30                 4645 	.db #0x30
   104D 20                 4646 	.db #0x20
   104E 30                 4647 	.db #0x30
   104F 20                 4648 	.db #0x20
   1050 30                 4649 	.db #0x30
   1051 20                 4650 	.db #0x20
   1052 30                 4651 	.db #0x30
   1053 20                 4652 	.db #0x20
   1054 30                 4653 	.db #0x30
   1055 20                 4654 	.db #0x20
   1056 30                 4655 	.db #0x30
   1057 20                 4656 	.db #0x20
   1058 30                 4657 	.db #0x30
   1059 20                 4658 	.db #0x20
   105A 30                 4659 	.db #0x30
   105B 02                 4660 	.db #0x02
   105C 06                 4661 	.db #0x06
   105D 02                 4662 	.db #0x02
   105E 06                 4663 	.db #0x06
   105F 02                 4664 	.db #0x02
   1060 06                 4665 	.db #0x06
   1061 02                 4666 	.db #0x02
   1062 06                 4667 	.db #0x06
   1063 02                 4668 	.db #0x02
   1064 06                 4669 	.db #0x06
   1065 02                 4670 	.db #0x02
   1066 06                 4671 	.db #0x06
   1067 10                 4672 	.db #0x10
   1068 08                 4673 	.db #0x08
   1069 08                 4674 	.db #0x08
   106A 18                 4675 	.db #0x18
   106B 00                 4676 	.db #0x00
   106C 1F                 4677 	.db #0x1F
   106D 40                 4678 	.db #0x40
   106E 60                 4679 	.db #0x60
   106F 40                 4680 	.db #0x40
   1070 60                 4681 	.db #0x60
   1071 7F                 4682 	.db #0x7F
   1072 7F                 4683 	.db #0x7F
   1073 60                 4684 	.db #0x60
   1074 7F                 4685 	.db #0x7F
   1075 40                 4686 	.db #0x40
   1076 60                 4687 	.db #0x60
   1077 40                 4688 	.db #0x40
   1078 60                 4689 	.db #0x60
   1079 40                 4690 	.db #0x40
   107A 60                 4691 	.db #0x60
   107B 00                 4692 	.db #0x00
   107C FC                 4693 	.db #0xFC
   107D 01                 4694 	.db #0x01
   107E 03                 4695 	.db #0x03
   107F 01                 4696 	.db #0x01
   1080 03                 4697 	.db #0x03
   1081 FF                 4698 	.db #0xFF
   1082 FF                 4699 	.db #0xFF
   1083 00                 4700 	.db #0x00
   1084 FF                 4701 	.db #0xFF
   1085 00                 4702 	.db #0x00
   1086 00                 4703 	.db #0x00
   1087 02                 4704 	.db #0x02
   1088 01                 4705 	.db #0x01
   1089 01                 4706 	.db #0x01
   108A 03                 4707 	.db #0x03
   108B 00                 4708 	.db #0x00
   108C 0F                 4709 	.db #0x0F
   108D 00                 4710 	.db #0x00
   108E 00                 4711 	.db #0x00
   108F 00                 4712 	.db #0x00
   1090 00                 4713 	.db #0x00
   1091 0F                 4714 	.db #0x0F
   1092 0F                 4715 	.db #0x0F
   1093 20                 4716 	.db #0x20
   1094 30                 4717 	.db #0x30
   1095 20                 4718 	.db #0x20
   1096 30                 4719 	.db #0x30
   1097 20                 4720 	.db #0x20
   1098 30                 4721 	.db #0x30
   1099 20                 4722 	.db #0x20
   109A 30                 4723 	.db #0x30
   109B 00                 4724 	.db #0x00
   109C F8                 4725 	.db #0xF8
   109D 02                 4726 	.db #0x02
   109E 06                 4727 	.db #0x06
   109F 02                 4728 	.db #0x02
   10A0 06                 4729 	.db #0x06
   10A1 FE                 4730 	.db #0xFE
   10A2 FE                 4731 	.db #0xFE
   10A3 02                 4732 	.db #0x02
   10A4 06                 4733 	.db #0x06
   10A5 02                 4734 	.db #0x02
   10A6 06                 4735 	.db #0x06
   10A7 02                 4736 	.db #0x02
   10A8 06                 4737 	.db #0x06
   10A9 02                 4738 	.db #0x02
   10AA 06                 4739 	.db #0x06
   10AB 10                 4740 	.db #0x10
   10AC 18                 4741 	.db #0x18
   10AD 10                 4742 	.db #0x10
   10AE 18                 4743 	.db #0x18
   10AF 10                 4744 	.db #0x10
   10B0 18                 4745 	.db #0x18
   10B1 10                 4746 	.db #0x10
   10B2 18                 4747 	.db #0x18
   10B3 10                 4748 	.db #0x10
   10B4 18                 4749 	.db #0x18
   10B5 10                 4750 	.db #0x10
   10B6 18                 4751 	.db #0x18
   10B7 10                 4752 	.db #0x10
   10B8 18                 4753 	.db #0x18
   10B9 10                 4754 	.db #0x10
   10BA 18                 4755 	.db #0x18
   10BB 03                 4756 	.db #0x03
   10BC 0F                 4757 	.db #0x0F
   10BD 02                 4758 	.db #0x02
   10BE 03                 4759 	.db #0x03
   10BF 02                 4760 	.db #0x02
   10C0 03                 4761 	.db #0x03
   10C1 02                 4762 	.db #0x02
   10C2 03                 4763 	.db #0x03
   10C3 02                 4764 	.db #0x02
   10C4 03                 4765 	.db #0x03
   10C5 02                 4766 	.db #0x02
   10C6 03                 4767 	.db #0x03
   10C7 02                 4768 	.db #0x02
   10C8 03                 4769 	.db #0x03
   10C9 02                 4770 	.db #0x02
   10CA 03                 4771 	.db #0x03
   10CB 41                 4772 	.db #0x41
   10CC 87                 4773 	.db #0x87
   10CD 00                 4774 	.db #0x00
   10CE 01                 4775 	.db #0x01
   10CF 20                 4776 	.db #0x20
   10D0 31                 4777 	.db #0x31
   10D1 20                 4778 	.db #0x20
   10D2 31                 4779 	.db #0x31
   10D3 20                 4780 	.db #0x20
   10D4 31                 4781 	.db #0x31
   10D5 20                 4782 	.db #0x20
   10D6 31                 4783 	.db #0x31
   10D7 20                 4784 	.db #0x20
   10D8 31                 4785 	.db #0x31
   10D9 20                 4786 	.db #0x20
   10DA 31                 4787 	.db #0x31
   10DB 80                 4788 	.db #0x80
   10DC E0                 4789 	.db #0xE0
   10DD 80                 4790 	.db #0x80
   10DE 80                 4791 	.db #0x80
   10DF 80                 4792 	.db #0x80
   10E0 80                 4793 	.db #0x80
   10E1 80                 4794 	.db #0x80
   10E2 80                 4795 	.db #0x80
   10E3 80                 4796 	.db #0x80
   10E4 80                 4797 	.db #0x80
   10E5 80                 4798 	.db #0x80
   10E6 80                 4799 	.db #0x80
   10E7 80                 4800 	.db #0x80
   10E8 80                 4801 	.db #0x80
   10E9 80                 4802 	.db #0x80
   10EA 80                 4803 	.db #0x80
   10EB 10                 4804 	.db #0x10
   10EC 78                 4805 	.db #0x78
   10ED 10                 4806 	.db #0x10
   10EE 18                 4807 	.db #0x18
   10EF 10                 4808 	.db #0x10
   10F0 18                 4809 	.db #0x18
   10F1 10                 4810 	.db #0x10
   10F2 18                 4811 	.db #0x18
   10F3 10                 4812 	.db #0x10
   10F4 18                 4813 	.db #0x18
   10F5 10                 4814 	.db #0x10
   10F6 18                 4815 	.db #0x18
   10F7 10                 4816 	.db #0x10
   10F8 18                 4817 	.db #0x18
   10F9 10                 4818 	.db #0x10
   10FA 18                 4819 	.db #0x18
   10FB 0C                 4820 	.db #0x0C
   10FC FF                 4821 	.db #0xFF
   10FD 08                 4822 	.db #0x08
   10FE 0C                 4823 	.db #0x0C
   10FF 08                 4824 	.db #0x08
   1100 0C                 4825 	.db #0x0C
   1101 08                 4826 	.db #0x08
   1102 0C                 4827 	.db #0x0C
   1103 08                 4828 	.db #0x08
   1104 0C                 4829 	.db #0x0C
   1105 08                 4830 	.db #0x08
   1106 0C                 4831 	.db #0x0C
   1107 08                 4832 	.db #0x08
   1108 0C                 4833 	.db #0x0C
   1109 08                 4834 	.db #0x08
   110A 0C                 4835 	.db #0x0C
   110B 00                 4836 	.db #0x00
   110C 80                 4837 	.db #0x80
   110D 00                 4838 	.db #0x00
   110E 00                 4839 	.db #0x00
   110F 00                 4840 	.db #0x00
   1110 00                 4841 	.db #0x00
   1111 00                 4842 	.db #0x00
   1112 00                 4843 	.db #0x00
   1113 00                 4844 	.db #0x00
   1114 00                 4845 	.db #0x00
   1115 00                 4846 	.db #0x00
   1116 00                 4847 	.db #0x00
   1117 10                 4848 	.db #0x10
   1118 08                 4849 	.db #0x08
   1119 08                 4850 	.db #0x08
   111A 18                 4851 	.db #0x18
   111B 40                 4852 	.db #0x40
   111C 67                 4853 	.db #0x67
   111D 78                 4854 	.db #0x78
   111E 78                 4855 	.db #0x78
   111F 60                 4856 	.db #0x60
   1120 78                 4857 	.db #0x78
   1121 40                 4858 	.db #0x40
   1122 60                 4859 	.db #0x60
   1123 40                 4860 	.db #0x40
   1124 60                 4861 	.db #0x60
   1125 40                 4862 	.db #0x40
   1126 60                 4863 	.db #0x60
   1127 40                 4864 	.db #0x40
   1128 60                 4865 	.db #0x60
   1129 40                 4866 	.db #0x40
   112A 60                 4867 	.db #0x60
   112B 00                 4868 	.db #0x00
   112C C0                 4869 	.db #0xC0
   112D 10                 4870 	.db #0x10
   112E 30                 4871 	.db #0x30
   112F 10                 4872 	.db #0x10
   1130 30                 4873 	.db #0x30
   1131 10                 4874 	.db #0x10
   1132 30                 4875 	.db #0x30
   1133 10                 4876 	.db #0x10
   1134 30                 4877 	.db #0x30
   1135 10                 4878 	.db #0x10
   1136 30                 4879 	.db #0x30
   1137 10                 4880 	.db #0x10
   1138 30                 4881 	.db #0x30
   1139 10                 4882 	.db #0x10
   113A 30                 4883 	.db #0x30
   113B 30                 4884 	.db #0x30
   113C FF                 4885 	.db #0xFF
   113D FF                 4886 	.db #0xFF
   113E FF                 4887 	.db #0xFF
   113F 00                 4888 	.db #0x00
   1140 00                 4889 	.db #0x00
   1141 00                 4890 	.db #0x00
   1142 00                 4891 	.db #0x00
   1143 00                 4892 	.db #0x00
   1144 00                 4893 	.db #0x00
   1145 00                 4894 	.db #0x00
   1146 00                 4895 	.db #0x00
   1147 00                 4896 	.db #0x00
   1148 00                 4897 	.db #0x00
   1149 00                 4898 	.db #0x00
   114A 00                 4899 	.db #0x00
   114B 00                 4900 	.db #0x00
   114C E0                 4901 	.db #0xE0
   114D E0                 4902 	.db #0xE0
   114E E0                 4903 	.db #0xE0
   114F 00                 4904 	.db #0x00
   1150 00                 4905 	.db #0x00
   1151 00                 4906 	.db #0x00
   1152 00                 4907 	.db #0x00
   1153 00                 4908 	.db #0x00
   1154 00                 4909 	.db #0x00
   1155 00                 4910 	.db #0x00
   1156 00                 4911 	.db #0x00
   1157 00                 4912 	.db #0x00
   1158 00                 4913 	.db #0x00
   1159 00                 4914 	.db #0x00
   115A 00                 4915 	.db #0x00
   115B 00                 4916 	.db #0x00
   115C 1F                 4917 	.db #0x1F
   115D 1F                 4918 	.db #0x1F
   115E 1F                 4919 	.db #0x1F
   115F 00                 4920 	.db #0x00
   1160 00                 4921 	.db #0x00
   1161 00                 4922 	.db #0x00
   1162 00                 4923 	.db #0x00
   1163 00                 4924 	.db #0x00
   1164 00                 4925 	.db #0x00
   1165 00                 4926 	.db #0x00
   1166 00                 4927 	.db #0x00
   1167 00                 4928 	.db #0x00
   1168 00                 4929 	.db #0x00
   1169 00                 4930 	.db #0x00
   116A 00                 4931 	.db #0x00
   116B 00                 4932 	.db #0x00
   116C FC                 4933 	.db #0xFC
   116D FC                 4934 	.db #0xFC
   116E FC                 4935 	.db #0xFC
   116F 00                 4936 	.db #0x00
   1170 00                 4937 	.db #0x00
   1171 00                 4938 	.db #0x00
   1172 00                 4939 	.db #0x00
   1173 00                 4940 	.db #0x00
   1174 00                 4941 	.db #0x00
   1175 00                 4942 	.db #0x00
   1176 00                 4943 	.db #0x00
   1177 00                 4944 	.db #0x00
   1178 00                 4945 	.db #0x00
   1179 00                 4946 	.db #0x00
   117A 00                 4947 	.db #0x00
   117B 00                 4948 	.db #0x00
   117C 0F                 4949 	.db #0x0F
   117D 0F                 4950 	.db #0x0F
   117E 0F                 4951 	.db #0x0F
   117F 00                 4952 	.db #0x00
   1180 00                 4953 	.db #0x00
   1181 00                 4954 	.db #0x00
   1182 00                 4955 	.db #0x00
   1183 00                 4956 	.db #0x00
   1184 00                 4957 	.db #0x00
   1185 00                 4958 	.db #0x00
   1186 00                 4959 	.db #0x00
   1187 00                 4960 	.db #0x00
   1188 00                 4961 	.db #0x00
   1189 00                 4962 	.db #0x00
   118A 00                 4963 	.db #0x00
   118B 06                 4964 	.db #0x06
   118C FF                 4965 	.db #0xFF
   118D FF                 4966 	.db #0xFF
   118E FF                 4967 	.db #0xFF
   118F 00                 4968 	.db #0x00
   1190 00                 4969 	.db #0x00
   1191 00                 4970 	.db #0x00
   1192 00                 4971 	.db #0x00
   1193 00                 4972 	.db #0x00
   1194 00                 4973 	.db #0x00
   1195 00                 4974 	.db #0x00
   1196 00                 4975 	.db #0x00
   1197 00                 4976 	.db #0x00
   1198 00                 4977 	.db #0x00
   1199 00                 4978 	.db #0x00
   119A 00                 4979 	.db #0x00
   119B 00                 4980 	.db #0x00
   119C 87                 4981 	.db #0x87
   119D 87                 4982 	.db #0x87
   119E 87                 4983 	.db #0x87
   119F 00                 4984 	.db #0x00
   11A0 00                 4985 	.db #0x00
   11A1 00                 4986 	.db #0x00
   11A2 00                 4987 	.db #0x00
   11A3 00                 4988 	.db #0x00
   11A4 00                 4989 	.db #0x00
   11A5 00                 4990 	.db #0x00
   11A6 00                 4991 	.db #0x00
   11A7 00                 4992 	.db #0x00
   11A8 00                 4993 	.db #0x00
   11A9 00                 4994 	.db #0x00
   11AA 00                 4995 	.db #0x00
   11AB 18                 4996 	.db #0x18
   11AC FF                 4997 	.db #0xFF
   11AD FF                 4998 	.db #0xFF
   11AE FF                 4999 	.db #0xFF
   11AF 00                 5000 	.db #0x00
   11B0 00                 5001 	.db #0x00
   11B1 00                 5002 	.db #0x00
   11B2 00                 5003 	.db #0x00
   11B3 00                 5004 	.db #0x00
   11B4 00                 5005 	.db #0x00
   11B5 00                 5006 	.db #0x00
   11B6 00                 5007 	.db #0x00
   11B7 00                 5008 	.db #0x00
   11B8 00                 5009 	.db #0x00
   11B9 00                 5010 	.db #0x00
   11BA 00                 5011 	.db #0x00
   11BB 00                 5012 	.db #0x00
   11BC C0                 5013 	.db #0xC0
   11BD C0                 5014 	.db #0xC0
   11BE C0                 5015 	.db #0xC0
   11BF 00                 5016 	.db #0x00
   11C0 00                 5017 	.db #0x00
   11C1 00                 5018 	.db #0x00
   11C2 00                 5019 	.db #0x00
   11C3 00                 5020 	.db #0x00
   11C4 00                 5021 	.db #0x00
   11C5 00                 5022 	.db #0x00
   11C6 00                 5023 	.db #0x00
   11C7 00                 5024 	.db #0x00
   11C8 00                 5025 	.db #0x00
   11C9 00                 5026 	.db #0x00
   11CA 00                 5027 	.db #0x00
   11CB 40                 5028 	.db #0x40
   11CC 8E                 5029 	.db #0x8E
   11CD 8E                 5030 	.db #0x8E
   11CE CE                 5031 	.db #0xCE
   11CF 00                 5032 	.db #0x00
   11D0 00                 5033 	.db #0x00
   11D1 00                 5034 	.db #0x00
   11D2 00                 5035 	.db #0x00
   11D3 00                 5036 	.db #0x00
   11D4 00                 5037 	.db #0x00
   11D5 00                 5038 	.db #0x00
   11D6 00                 5039 	.db #0x00
   11D7 00                 5040 	.db #0x00
   11D8 00                 5041 	.db #0x00
   11D9 00                 5042 	.db #0x00
   11DA 00                 5043 	.db #0x00
   11DB 00                 5044 	.db #0x00
   11DC 01                 5045 	.db #0x01
   11DD 01                 5046 	.db #0x01
   11DE 01                 5047 	.db #0x01
   11DF 00                 5048 	.db #0x00
   11E0 00                 5049 	.db #0x00
   11E1 00                 5050 	.db #0x00
   11E2 00                 5051 	.db #0x00
   11E3 00                 5052 	.db #0x00
   11E4 00                 5053 	.db #0x00
   11E5 00                 5054 	.db #0x00
   11E6 00                 5055 	.db #0x00
   11E7 00                 5056 	.db #0x00
   11E8 00                 5057 	.db #0x00
   11E9 00                 5058 	.db #0x00
   11EA 00                 5059 	.db #0x00
   11EB 00                 5060 	.db #0x00
   11EC 03                 5061 	.db #0x03
   11ED 03                 5062 	.db #0x03
   11EE 03                 5063 	.db #0x03
   11EF 00                 5064 	.db #0x00
   11F0 00                 5065 	.db #0x00
   11F1 00                 5066 	.db #0x00
   11F2 00                 5067 	.db #0x00
   11F3 00                 5068 	.db #0x00
   11F4 00                 5069 	.db #0x00
   11F5 00                 5070 	.db #0x00
   11F6 00                 5071 	.db #0x00
   11F7 00                 5072 	.db #0x00
   11F8 00                 5073 	.db #0x00
   11F9 00                 5074 	.db #0x00
   11FA 00                 5075 	.db #0x00
   11FB 00                 5076 	.db #0x00
   11FC E1                 5077 	.db #0xE1
   11FD E1                 5078 	.db #0xE1
   11FE E1                 5079 	.db #0xE1
   11FF 00                 5080 	.db #0x00
   1200 00                 5081 	.db #0x00
   1201 00                 5082 	.db #0x00
   1202 00                 5083 	.db #0x00
   1203 00                 5084 	.db #0x00
   1204 00                 5085 	.db #0x00
   1205 00                 5086 	.db #0x00
   1206 00                 5087 	.db #0x00
   1207 00                 5088 	.db #0x00
   1208 00                 5089 	.db #0x00
   1209 00                 5090 	.db #0x00
   120A 00                 5091 	.db #0x00
   120B 60                 5092 	.db #0x60
   120C F8                 5093 	.db #0xF8
   120D F8                 5094 	.db #0xF8
   120E F8                 5095 	.db #0xF8
   120F 00                 5096 	.db #0x00
   1210 00                 5097 	.db #0x00
   1211 00                 5098 	.db #0x00
   1212 00                 5099 	.db #0x00
   1213 00                 5100 	.db #0x00
   1214 00                 5101 	.db #0x00
   1215 00                 5102 	.db #0x00
   1216 00                 5103 	.db #0x00
   1217 00                 5104 	.db #0x00
   1218 00                 5105 	.db #0x00
   1219 00                 5106 	.db #0x00
   121A 00                 5107 	.db #0x00
   121B 30                 5108 	.db #0x30
   121C FC                 5109 	.db #0xFC
   121D FC                 5110 	.db #0xFC
   121E FC                 5111 	.db #0xFC
   121F 00                 5112 	.db #0x00
   1220 00                 5113 	.db #0x00
   1221 00                 5114 	.db #0x00
   1222 00                 5115 	.db #0x00
   1223 00                 5116 	.db #0x00
   1224 00                 5117 	.db #0x00
   1225 00                 5118 	.db #0x00
   1226 00                 5119 	.db #0x00
   1227 00                 5120 	.db #0x00
   1228 00                 5121 	.db #0x00
   1229 00                 5122 	.db #0x00
   122A 00                 5123 	.db #0x00
   122B 02                 5124 	.db #0x02
   122C 03                 5125 	.db #0x03
   122D 02                 5126 	.db #0x02
   122E 03                 5127 	.db #0x03
   122F 02                 5128 	.db #0x02
   1230 03                 5129 	.db #0x03
   1231 02                 5130 	.db #0x02
   1232 03                 5131 	.db #0x03
   1233 3F                 5132 	.db #0x3F
   1234 3F                 5133 	.db #0x3F
   1235 03                 5134 	.db #0x03
   1236 3F                 5135 	.db #0x3F
   1237 02                 5136 	.db #0x02
   1238 03                 5137 	.db #0x03
   1239 02                 5138 	.db #0x02
   123A 03                 5139 	.db #0x03
   123B 00                 5140 	.db #0x00
   123C 00                 5141 	.db #0x00
   123D 00                 5142 	.db #0x00
   123E 00                 5143 	.db #0x00
   123F 00                 5144 	.db #0x00
   1240 00                 5145 	.db #0x00
   1241 00                 5146 	.db #0x00
   1242 00                 5147 	.db #0x00
   1243 E0                 5148 	.db #0xE0
   1244 E0                 5149 	.db #0xE0
   1245 00                 5150 	.db #0x00
   1246 E0                 5151 	.db #0xE0
   1247 00                 5152 	.db #0x00
   1248 00                 5153 	.db #0x00
   1249 00                 5154 	.db #0x00
   124A 00                 5155 	.db #0x00
   124B 7E                 5156 	.db #0x7E
   124C 7E                 5157 	.db #0x7E
   124D 18                 5158 	.db #0x18
   124E 7E                 5159 	.db #0x7E
   124F 10                 5160 	.db #0x10
   1250 18                 5161 	.db #0x18
   1251 10                 5162 	.db #0x10
   1252 18                 5163 	.db #0x18
   1253 11                 5164 	.db #0x11
   1254 19                 5165 	.db #0x19
   1255 10                 5166 	.db #0x10
   1256 19                 5167 	.db #0x19
   1257 1E                 5168 	.db #0x1E
   1258 1E                 5169 	.db #0x1E
   1259 18                 5170 	.db #0x18
   125A 1E                 5171 	.db #0x1E
   125B 00                 5172 	.db #0x00
   125C 00                 5173 	.db #0x00
   125D 00                 5174 	.db #0x00
   125E 00                 5175 	.db #0x00
   125F 00                 5176 	.db #0x00
   1260 00                 5177 	.db #0x00
   1261 00                 5178 	.db #0x00
   1262 00                 5179 	.db #0x00
   1263 F0                 5180 	.db #0xF0
   1264 F0                 5181 	.db #0xF0
   1265 00                 5182 	.db #0x00
   1266 F0                 5183 	.db #0xF0
   1267 04                 5184 	.db #0x04
   1268 0C                 5185 	.db #0x0C
   1269 04                 5186 	.db #0x04
   126A 0C                 5187 	.db #0x0C
   126B 00                 5188 	.db #0x00
   126C 00                 5189 	.db #0x00
   126D 00                 5190 	.db #0x00
   126E 00                 5191 	.db #0x00
   126F 00                 5192 	.db #0x00
   1270 00                 5193 	.db #0x00
   1271 00                 5194 	.db #0x00
   1272 00                 5195 	.db #0x00
   1273 0F                 5196 	.db #0x0F
   1274 0F                 5197 	.db #0x0F
   1275 00                 5198 	.db #0x00
   1276 0F                 5199 	.db #0x0F
   1277 20                 5200 	.db #0x20
   1278 30                 5201 	.db #0x30
   1279 20                 5202 	.db #0x20
   127A 30                 5203 	.db #0x30
   127B 00                 5204 	.db #0x00
   127C 00                 5205 	.db #0x00
   127D 00                 5206 	.db #0x00
   127E 00                 5207 	.db #0x00
   127F 00                 5208 	.db #0x00
   1280 00                 5209 	.db #0x00
   1281 00                 5210 	.db #0x00
   1282 00                 5211 	.db #0x00
   1283 FE                 5212 	.db #0xFE
   1284 FE                 5213 	.db #0xFE
   1285 00                 5214 	.db #0x00
   1286 FE                 5215 	.db #0xFE
   1287 00                 5216 	.db #0x00
   1288 01                 5217 	.db #0x01
   1289 00                 5218 	.db #0x00
   128A 01                 5219 	.db #0x01
   128B 00                 5220 	.db #0x00
   128C 00                 5221 	.db #0x00
   128D 00                 5222 	.db #0x00
   128E 00                 5223 	.db #0x00
   128F 00                 5224 	.db #0x00
   1290 00                 5225 	.db #0x00
   1291 00                 5226 	.db #0x00
   1292 00                 5227 	.db #0x00
   1293 00                 5228 	.db #0x00
   1294 00                 5229 	.db #0x00
   1295 00                 5230 	.db #0x00
   1296 00                 5231 	.db #0x00
   1297 80                 5232 	.db #0x80
   1298 80                 5233 	.db #0x80
   1299 80                 5234 	.db #0x80
   129A 80                 5235 	.db #0x80
   129B 1F                 5236 	.db #0x1F
   129C 1F                 5237 	.db #0x1F
   129D 06                 5238 	.db #0x06
   129E 1F                 5239 	.db #0x1F
   129F 04                 5240 	.db #0x04
   12A0 06                 5241 	.db #0x06
   12A1 04                 5242 	.db #0x04
   12A2 06                 5243 	.db #0x06
   12A3 04                 5244 	.db #0x04
   12A4 06                 5245 	.db #0x06
   12A5 04                 5246 	.db #0x04
   12A6 06                 5247 	.db #0x06
   12A7 04                 5248 	.db #0x04
   12A8 06                 5249 	.db #0x06
   12A9 04                 5250 	.db #0x04
   12AA 06                 5251 	.db #0x06
   12AB FC                 5252 	.db #0xFC
   12AC FC                 5253 	.db #0xFC
   12AD 00                 5254 	.db #0x00
   12AE FC                 5255 	.db #0xFC
   12AF 02                 5256 	.db #0x02
   12B0 01                 5257 	.db #0x01
   12B1 01                 5258 	.db #0x01
   12B2 03                 5259 	.db #0x03
   12B3 00                 5260 	.db #0x00
   12B4 00                 5261 	.db #0x00
   12B5 00                 5262 	.db #0x00
   12B6 00                 5263 	.db #0x00
   12B7 00                 5264 	.db #0x00
   12B8 00                 5265 	.db #0x00
   12B9 00                 5266 	.db #0x00
   12BA 00                 5267 	.db #0x00
   12BB 00                 5268 	.db #0x00
   12BC 00                 5269 	.db #0x00
   12BD 00                 5270 	.db #0x00
   12BE 00                 5271 	.db #0x00
   12BF 00                 5272 	.db #0x00
   12C0 00                 5273 	.db #0x00
   12C1 00                 5274 	.db #0x00
   12C2 00                 5275 	.db #0x00
   12C3 43                 5276 	.db #0x43
   12C4 C3                 5277 	.db #0xC3
   12C5 40                 5278 	.db #0x40
   12C6 C3                 5279 	.db #0xC3
   12C7 48                 5280 	.db #0x48
   12C8 CC                 5281 	.db #0xCC
   12C9 48                 5282 	.db #0x48
   12CA CC                 5283 	.db #0xCC
   12CB 00                 5284 	.db #0x00
   12CC 00                 5285 	.db #0x00
   12CD 00                 5286 	.db #0x00
   12CE 00                 5287 	.db #0x00
   12CF 00                 5288 	.db #0x00
   12D0 00                 5289 	.db #0x00
   12D1 00                 5290 	.db #0x00
   12D2 00                 5291 	.db #0x00
   12D3 FF                 5292 	.db #0xFF
   12D4 FF                 5293 	.db #0xFF
   12D5 00                 5294 	.db #0x00
   12D6 FF                 5295 	.db #0xFF
   12D7 00                 5296 	.db #0x00
   12D8 00                 5297 	.db #0x00
   12D9 00                 5298 	.db #0x00
   12DA 00                 5299 	.db #0x00
   12DB 00                 5300 	.db #0x00
   12DC 00                 5301 	.db #0x00
   12DD 00                 5302 	.db #0x00
   12DE 00                 5303 	.db #0x00
   12DF 00                 5304 	.db #0x00
   12E0 00                 5305 	.db #0x00
   12E1 00                 5306 	.db #0x00
   12E2 00                 5307 	.db #0x00
   12E3 87                 5308 	.db #0x87
   12E4 87                 5309 	.db #0x87
   12E5 01                 5310 	.db #0x01
   12E6 87                 5311 	.db #0x87
   12E7 21                 5312 	.db #0x21
   12E8 61                 5313 	.db #0x61
   12E9 21                 5314 	.db #0x21
   12EA 61                 5315 	.db #0x61
   12EB 00                 5316 	.db #0x00
   12EC 00                 5317 	.db #0x00
   12ED 00                 5318 	.db #0x00
   12EE 00                 5319 	.db #0x00
   12EF 00                 5320 	.db #0x00
   12F0 00                 5321 	.db #0x00
   12F1 00                 5322 	.db #0x00
   12F2 00                 5323 	.db #0x00
   12F3 C1                 5324 	.db #0xC1
   12F4 E3                 5325 	.db #0xE3
   12F5 A2                 5326 	.db #0xA2
   12F6 C1                 5327 	.db #0xC1
   12F7 00                 5328 	.db #0x00
   12F8 80                 5329 	.db #0x80
   12F9 00                 5330 	.db #0x00
   12FA 80                 5331 	.db #0x80
   12FB 00                 5332 	.db #0x00
   12FC 00                 5333 	.db #0x00
   12FD 00                 5334 	.db #0x00
   12FE 00                 5335 	.db #0x00
   12FF 00                 5336 	.db #0x00
   1300 00                 5337 	.db #0x00
   1301 00                 5338 	.db #0x00
   1302 00                 5339 	.db #0x00
   1303 F0                 5340 	.db #0xF0
   1304 F0                 5341 	.db #0xF0
   1305 C0                 5342 	.db #0xC0
   1306 F0                 5343 	.db #0xF0
   1307 40                 5344 	.db #0x40
   1308 C0                 5345 	.db #0xC0
   1309 40                 5346 	.db #0x40
   130A C0                 5347 	.db #0xC0
   130B 08                 5348 	.db #0x08
   130C 0C                 5349 	.db #0x0C
   130D 04                 5350 	.db #0x04
   130E 08                 5351 	.db #0x08
   130F 00                 5352 	.db #0x00
   1310 00                 5353 	.db #0x00
   1311 00                 5354 	.db #0x00
   1312 00                 5355 	.db #0x00
   1313 38                 5356 	.db #0x38
   1314 3C                 5357 	.db #0x3C
   1315 08                 5358 	.db #0x08
   1316 3C                 5359 	.db #0x3C
   1317 08                 5360 	.db #0x08
   1318 0C                 5361 	.db #0x0C
   1319 08                 5362 	.db #0x08
   131A 0C                 5363 	.db #0x0C
   131B 07                 5364 	.db #0x07
   131C 07                 5365 	.db #0x07
   131D 01                 5366 	.db #0x01
   131E 07                 5367 	.db #0x07
   131F 01                 5368 	.db #0x01
   1320 01                 5369 	.db #0x01
   1321 01                 5370 	.db #0x01
   1322 01                 5371 	.db #0x01
   1323 01                 5372 	.db #0x01
   1324 01                 5373 	.db #0x01
   1325 01                 5374 	.db #0x01
   1326 01                 5375 	.db #0x01
   1327 01                 5376 	.db #0x01
   1328 01                 5377 	.db #0x01
   1329 01                 5378 	.db #0x01
   132A 01                 5379 	.db #0x01
   132B 00                 5380 	.db #0x00
   132C 80                 5381 	.db #0x80
   132D 00                 5382 	.db #0x00
   132E 80                 5383 	.db #0x80
   132F 00                 5384 	.db #0x00
   1330 80                 5385 	.db #0x80
   1331 00                 5386 	.db #0x00
   1332 80                 5387 	.db #0x80
   1333 00                 5388 	.db #0x00
   1334 80                 5389 	.db #0x80
   1335 00                 5390 	.db #0x00
   1336 80                 5391 	.db #0x80
   1337 00                 5392 	.db #0x00
   1338 80                 5393 	.db #0x80
   1339 00                 5394 	.db #0x00
   133A 80                 5395 	.db #0x80
   133B 02                 5396 	.db #0x02
   133C 03                 5397 	.db #0x03
   133D 02                 5398 	.db #0x02
   133E 03                 5399 	.db #0x03
   133F 02                 5400 	.db #0x02
   1340 03                 5401 	.db #0x03
   1341 02                 5402 	.db #0x02
   1342 03                 5403 	.db #0x03
   1343 02                 5404 	.db #0x02
   1344 03                 5405 	.db #0x03
   1345 00                 5406 	.db #0x00
   1346 00                 5407 	.db #0x00
   1347 00                 5408 	.db #0x00
   1348 00                 5409 	.db #0x00
   1349 00                 5410 	.db #0x00
   134A 00                 5411 	.db #0x00
   134B 00                 5412 	.db #0x00
   134C 00                 5413 	.db #0x00
   134D 00                 5414 	.db #0x00
   134E 00                 5415 	.db #0x00
   134F 00                 5416 	.db #0x00
   1350 00                 5417 	.db #0x00
   1351 04                 5418 	.db #0x04
   1352 02                 5419 	.db #0x02
   1353 02                 5420 	.db #0x02
   1354 06                 5421 	.db #0x06
   1355 00                 5422 	.db #0x00
   1356 F8                 5423 	.db #0xF8
   1357 F8                 5424 	.db #0xF8
   1358 F8                 5425 	.db #0xF8
   1359 00                 5426 	.db #0x00
   135A 00                 5427 	.db #0x00
   135B 10                 5428 	.db #0x10
   135C 18                 5429 	.db #0x18
   135D 10                 5430 	.db #0x10
   135E 18                 5431 	.db #0x18
   135F 10                 5432 	.db #0x10
   1360 18                 5433 	.db #0x18
   1361 10                 5434 	.db #0x10
   1362 18                 5435 	.db #0x18
   1363 10                 5436 	.db #0x10
   1364 18                 5437 	.db #0x18
   1365 18                 5438 	.db #0x18
   1366 7E                 5439 	.db #0x7E
   1367 7E                 5440 	.db #0x7E
   1368 7E                 5441 	.db #0x7E
   1369 00                 5442 	.db #0x00
   136A 00                 5443 	.db #0x00
   136B 04                 5444 	.db #0x04
   136C 0C                 5445 	.db #0x0C
   136D 04                 5446 	.db #0x04
   136E 0C                 5447 	.db #0x0C
   136F 04                 5448 	.db #0x04
   1370 0C                 5449 	.db #0x0C
   1371 04                 5450 	.db #0x04
   1372 0C                 5451 	.db #0x0C
   1373 04                 5452 	.db #0x04
   1374 0C                 5453 	.db #0x0C
   1375 0C                 5454 	.db #0x0C
   1376 3F                 5455 	.db #0x3F
   1377 3F                 5456 	.db #0x3F
   1378 3F                 5457 	.db #0x3F
   1379 00                 5458 	.db #0x00
   137A 00                 5459 	.db #0x00
   137B 3F                 5460 	.db #0x3F
   137C 3F                 5461 	.db #0x3F
   137D 30                 5462 	.db #0x30
   137E 3F                 5463 	.db #0x3F
   137F 20                 5464 	.db #0x20
   1380 30                 5465 	.db #0x30
   1381 20                 5466 	.db #0x20
   1382 30                 5467 	.db #0x30
   1383 20                 5468 	.db #0x20
   1384 30                 5469 	.db #0x30
   1385 00                 5470 	.db #0x00
   1386 0F                 5471 	.db #0x0F
   1387 0F                 5472 	.db #0x0F
   1388 0F                 5473 	.db #0x0F
   1389 00                 5474 	.db #0x00
   138A 00                 5475 	.db #0x00
   138B FF                 5476 	.db #0xFF
   138C FF                 5477 	.db #0xFF
   138D 00                 5478 	.db #0x00
   138E FF                 5479 	.db #0xFF
   138F 00                 5480 	.db #0x00
   1390 00                 5481 	.db #0x00
   1391 01                 5482 	.db #0x01
   1392 00                 5483 	.db #0x00
   1393 00                 5484 	.db #0x00
   1394 01                 5485 	.db #0x01
   1395 00                 5486 	.db #0x00
   1396 FE                 5487 	.db #0xFE
   1397 FE                 5488 	.db #0xFE
   1398 FE                 5489 	.db #0xFE
   1399 00                 5490 	.db #0x00
   139A 00                 5491 	.db #0x00
   139B 80                 5492 	.db #0x80
   139C 80                 5493 	.db #0x80
   139D 00                 5494 	.db #0x00
   139E 80                 5495 	.db #0x80
   139F 00                 5496 	.db #0x00
   13A0 00                 5497 	.db #0x00
   13A1 00                 5498 	.db #0x00
   13A2 80                 5499 	.db #0x80
   13A3 80                 5500 	.db #0x80
   13A4 80                 5501 	.db #0x80
   13A5 00                 5502 	.db #0x00
   13A6 00                 5503 	.db #0x00
   13A7 00                 5504 	.db #0x00
   13A8 00                 5505 	.db #0x00
   13A9 00                 5506 	.db #0x00
   13AA 00                 5507 	.db #0x00
   13AB 04                 5508 	.db #0x04
   13AC 06                 5509 	.db #0x06
   13AD 04                 5510 	.db #0x04
   13AE 06                 5511 	.db #0x06
   13AF 04                 5512 	.db #0x04
   13B0 06                 5513 	.db #0x06
   13B1 04                 5514 	.db #0x04
   13B2 06                 5515 	.db #0x06
   13B3 04                 5516 	.db #0x04
   13B4 06                 5517 	.db #0x06
   13B5 06                 5518 	.db #0x06
   13B6 1F                 5519 	.db #0x1F
   13B7 1F                 5520 	.db #0x1F
   13B8 1F                 5521 	.db #0x1F
   13B9 00                 5522 	.db #0x00
   13BA 00                 5523 	.db #0x00
   13BB 00                 5524 	.db #0x00
   13BC 00                 5525 	.db #0x00
   13BD 00                 5526 	.db #0x00
   13BE 00                 5527 	.db #0x00
   13BF 00                 5528 	.db #0x00
   13C0 00                 5529 	.db #0x00
   13C1 02                 5530 	.db #0x02
   13C2 01                 5531 	.db #0x01
   13C3 01                 5532 	.db #0x01
   13C4 03                 5533 	.db #0x03
   13C5 00                 5534 	.db #0x00
   13C6 FC                 5535 	.db #0xFC
   13C7 FC                 5536 	.db #0xFC
   13C8 FC                 5537 	.db #0xFC
   13C9 00                 5538 	.db #0x00
   13CA 00                 5539 	.db #0x00
   13CB 4F                 5540 	.db #0x4F
   13CC CF                 5541 	.db #0xCF
   13CD 4C                 5542 	.db #0x4C
   13CE CF                 5543 	.db #0xCF
   13CF 48                 5544 	.db #0x48
   13D0 CC                 5545 	.db #0xCC
   13D1 08                 5546 	.db #0x08
   13D2 0C                 5547 	.db #0x0C
   13D3 08                 5548 	.db #0x08
   13D4 0C                 5549 	.db #0x0C
   13D5 00                 5550 	.db #0x00
   13D6 03                 5551 	.db #0x03
   13D7 03                 5552 	.db #0x03
   13D8 03                 5553 	.db #0x03
   13D9 00                 5554 	.db #0x00
   13DA 00                 5555 	.db #0x00
   13DB FF                 5556 	.db #0xFF
   13DC FF                 5557 	.db #0xFF
   13DD 00                 5558 	.db #0x00
   13DE FF                 5559 	.db #0xFF
   13DF 00                 5560 	.db #0x00
   13E0 00                 5561 	.db #0x00
   13E1 00                 5562 	.db #0x00
   13E2 00                 5563 	.db #0x00
   13E3 00                 5564 	.db #0x00
   13E4 00                 5565 	.db #0x00
   13E5 00                 5566 	.db #0x00
   13E6 FF                 5567 	.db #0xFF
   13E7 FF                 5568 	.db #0xFF
   13E8 FF                 5569 	.db #0xFF
   13E9 00                 5570 	.db #0x00
   13EA 00                 5571 	.db #0x00
   13EB E0                 5572 	.db #0xE0
   13EC E0                 5573 	.db #0xE0
   13ED 00                 5574 	.db #0x00
   13EE E0                 5575 	.db #0xE0
   13EF 00                 5576 	.db #0x00
   13F0 00                 5577 	.db #0x00
   13F1 40                 5578 	.db #0x40
   13F2 20                 5579 	.db #0x20
   13F3 20                 5580 	.db #0x20
   13F4 60                 5581 	.db #0x60
   13F5 00                 5582 	.db #0x00
   13F6 80                 5583 	.db #0x80
   13F7 80                 5584 	.db #0x80
   13F8 80                 5585 	.db #0x80
   13F9 00                 5586 	.db #0x00
   13FA 00                 5587 	.db #0x00
   13FB 41                 5588 	.db #0x41
   13FC 63                 5589 	.db #0x63
   13FD 41                 5590 	.db #0x41
   13FE 63                 5591 	.db #0x63
   13FF 41                 5592 	.db #0x41
   1400 63                 5593 	.db #0x63
   1401 09                 5594 	.db #0x09
   1402 13                 5595 	.db #0x13
   1403 11                 5596 	.db #0x11
   1404 1B                 5597 	.db #0x1B
   1405 00                 5598 	.db #0x00
   1406 04                 5599 	.db #0x04
   1407 04                 5600 	.db #0x04
   1408 04                 5601 	.db #0x04
   1409 00                 5602 	.db #0x00
   140A 00                 5603 	.db #0x00
   140B 08                 5604 	.db #0x08
   140C 0C                 5605 	.db #0x0C
   140D 08                 5606 	.db #0x08
   140E 0C                 5607 	.db #0x0C
   140F 08                 5608 	.db #0x08
   1410 0C                 5609 	.db #0x0C
   1411 08                 5610 	.db #0x08
   1412 0C                 5611 	.db #0x0C
   1413 08                 5612 	.db #0x08
   1414 0C                 5613 	.db #0x0C
   1415 0C                 5614 	.db #0x0C
   1416 FF                 5615 	.db #0xFF
   1417 FF                 5616 	.db #0xFF
   1418 FF                 5617 	.db #0xFF
   1419 00                 5618 	.db #0x00
   141A 00                 5619 	.db #0x00
   141B 00                 5620 	.db #0x00
   141C 00                 5621 	.db #0x00
   141D 00                 5622 	.db #0x00
   141E 00                 5623 	.db #0x00
   141F 00                 5624 	.db #0x00
   1420 00                 5625 	.db #0x00
   1421 00                 5626 	.db #0x00
   1422 00                 5627 	.db #0x00
   1423 00                 5628 	.db #0x00
   1424 00                 5629 	.db #0x00
   1425 00                 5630 	.db #0x00
   1426 80                 5631 	.db #0x80
   1427 80                 5632 	.db #0x80
   1428 80                 5633 	.db #0x80
   1429 00                 5634 	.db #0x00
   142A 00                 5635 	.db #0x00
   142B 01                 5636 	.db #0x01
   142C 01                 5637 	.db #0x01
   142D 01                 5638 	.db #0x01
   142E 01                 5639 	.db #0x01
   142F 01                 5640 	.db #0x01
   1430 01                 5641 	.db #0x01
   1431 01                 5642 	.db #0x01
   1432 01                 5643 	.db #0x01
   1433 01                 5644 	.db #0x01
   1434 01                 5645 	.db #0x01
   1435 01                 5646 	.db #0x01
   1436 7F                 5647 	.db #0x7F
   1437 7F                 5648 	.db #0x7F
   1438 7F                 5649 	.db #0x7F
   1439 00                 5650 	.db #0x00
   143A 00                 5651 	.db #0x00
   143B 00                 5652 	.db #0x00
   143C 80                 5653 	.db #0x80
   143D 00                 5654 	.db #0x00
   143E 80                 5655 	.db #0x80
   143F 00                 5656 	.db #0x00
   1440 80                 5657 	.db #0x80
   1441 00                 5658 	.db #0x00
   1442 80                 5659 	.db #0x80
   1443 00                 5660 	.db #0x00
   1444 80                 5661 	.db #0x80
   1445 80                 5662 	.db #0x80
   1446 FC                 5663 	.db #0xFC
   1447 FC                 5664 	.db #0xFC
   1448 FC                 5665 	.db #0xFC
   1449 00                 5666 	.db #0x00
   144A 00                 5667 	.db #0x00
   144B 00                 5668 	.db #0x00
   144C 00                 5669 	.db #0x00
   144D 00                 5670 	.db #0x00
   144E 00                 5671 	.db #0x00
   144F 00                 5672 	.db #0x00
   1450 00                 5673 	.db #0x00
   1451 07                 5674 	.db #0x07
   1452 00                 5675 	.db #0x00
   1453 07                 5676 	.db #0x07
   1454 07                 5677 	.db #0x07
   1455 07                 5678 	.db #0x07
   1456 02                 5679 	.db #0x02
   1457 03                 5680 	.db #0x03
   1458 02                 5681 	.db #0x02
   1459 03                 5682 	.db #0x03
   145A 02                 5683 	.db #0x02
   145B 00                 5684 	.db #0x00
   145C 00                 5685 	.db #0x00
   145D 00                 5686 	.db #0x00
   145E 00                 5687 	.db #0x00
   145F 00                 5688 	.db #0x00
   1460 00                 5689 	.db #0x00
   1461 FC                 5690 	.db #0xFC
   1462 00                 5691 	.db #0x00
   1463 FE                 5692 	.db #0xFE
   1464 FC                 5693 	.db #0xFC
   1465 02                 5694 	.db #0x02
   1466 00                 5695 	.db #0x00
   1467 03                 5696 	.db #0x03
   1468 02                 5697 	.db #0x02
   1469 03                 5698 	.db #0x03
   146A 02                 5699 	.db #0x02
   146B 00                 5700 	.db #0x00
   146C 00                 5701 	.db #0x00
   146D 00                 5702 	.db #0x00
   146E 00                 5703 	.db #0x00
   146F 00                 5704 	.db #0x00
   1470 00                 5705 	.db #0x00
   1471 00                 5706 	.db #0x00
   1472 00                 5707 	.db #0x00
   1473 00                 5708 	.db #0x00
   1474 00                 5709 	.db #0x00
   1475 00                 5710 	.db #0x00
   1476 00                 5711 	.db #0x00
   1477 CF                 5712 	.db #0xCF
   1478 00                 5713 	.db #0x00
   1479 EF                 5714 	.db #0xEF
   147A CF                 5715 	.db #0xCF
   147B 00                 5716 	.db #0x00
   147C 00                 5717 	.db #0x00
   147D 00                 5718 	.db #0x00
   147E 00                 5719 	.db #0x00
   147F 00                 5720 	.db #0x00
   1480 00                 5721 	.db #0x00
   1481 00                 5722 	.db #0x00
   1482 00                 5723 	.db #0x00
   1483 00                 5724 	.db #0x00
   1484 00                 5725 	.db #0x00
   1485 00                 5726 	.db #0x00
   1486 00                 5727 	.db #0x00
   1487 07                 5728 	.db #0x07
   1488 00                 5729 	.db #0x00
   1489 87                 5730 	.db #0x87
   148A 07                 5731 	.db #0x07
   148B 00                 5732 	.db #0x00
   148C 00                 5733 	.db #0x00
   148D 00                 5734 	.db #0x00
   148E 00                 5735 	.db #0x00
   148F 00                 5736 	.db #0x00
   1490 00                 5737 	.db #0x00
   1491 00                 5738 	.db #0x00
   1492 00                 5739 	.db #0x00
   1493 00                 5740 	.db #0x00
   1494 00                 5741 	.db #0x00
   1495 00                 5742 	.db #0x00
   1496 00                 5743 	.db #0x00
   1497 F8                 5744 	.db #0xF8
   1498 00                 5745 	.db #0x00
   1499 FD                 5746 	.db #0xFD
   149A F8                 5747 	.db #0xF8
   149B 00                 5748 	.db #0x00
   149C 00                 5749 	.db #0x00
   149D 00                 5750 	.db #0x00
   149E 00                 5751 	.db #0x00
   149F 00                 5752 	.db #0x00
   14A0 00                 5753 	.db #0x00
   14A1 00                 5754 	.db #0x00
   14A2 00                 5755 	.db #0x00
   14A3 00                 5756 	.db #0x00
   14A4 00                 5757 	.db #0x00
   14A5 00                 5758 	.db #0x00
   14A6 00                 5759 	.db #0x00
   14A7 FF                 5760 	.db #0xFF
   14A8 00                 5761 	.db #0x00
   14A9 FF                 5762 	.db #0xFF
   14AA FF                 5763 	.db #0xFF
   14AB 00                 5764 	.db #0x00
   14AC 00                 5765 	.db #0x00
   14AD 00                 5766 	.db #0x00
   14AE 00                 5767 	.db #0x00
   14AF 00                 5768 	.db #0x00
   14B0 00                 5769 	.db #0x00
   14B1 00                 5770 	.db #0x00
   14B2 00                 5771 	.db #0x00
   14B3 00                 5772 	.db #0x00
   14B4 00                 5773 	.db #0x00
   14B5 00                 5774 	.db #0x00
   14B6 00                 5775 	.db #0x00
   14B7 1F                 5776 	.db #0x1F
   14B8 00                 5777 	.db #0x00
   14B9 BF                 5778 	.db #0xBF
   14BA 1F                 5779 	.db #0x1F
   14BB 00                 5780 	.db #0x00
   14BC 00                 5781 	.db #0x00
   14BD 00                 5782 	.db #0x00
   14BE 00                 5783 	.db #0x00
   14BF 00                 5784 	.db #0x00
   14C0 00                 5785 	.db #0x00
   14C1 00                 5786 	.db #0x00
   14C2 00                 5787 	.db #0x00
   14C3 00                 5788 	.db #0x00
   14C4 00                 5789 	.db #0x00
   14C5 00                 5790 	.db #0x00
   14C6 00                 5791 	.db #0x00
   14C7 E0                 5792 	.db #0xE0
   14C8 00                 5793 	.db #0x00
   14C9 F0                 5794 	.db #0xF0
   14CA E0                 5795 	.db #0xE0
   14CB 00                 5796 	.db #0x00
   14CC 00                 5797 	.db #0x00
   14CD 00                 5798 	.db #0x00
   14CE 00                 5799 	.db #0x00
   14CF 00                 5800 	.db #0x00
   14D0 00                 5801 	.db #0x00
   14D1 1F                 5802 	.db #0x1F
   14D2 00                 5803 	.db #0x00
   14D3 1F                 5804 	.db #0x1F
   14D4 1F                 5805 	.db #0x1F
   14D5 30                 5806 	.db #0x30
   14D6 00                 5807 	.db #0x00
   14D7 30                 5808 	.db #0x30
   14D8 20                 5809 	.db #0x20
   14D9 0F                 5810 	.db #0x0F
   14DA 30                 5811 	.db #0x30
   14DB 00                 5812 	.db #0x00
   14DC 00                 5813 	.db #0x00
   14DD 00                 5814 	.db #0x00
   14DE 00                 5815 	.db #0x00
   14DF 00                 5816 	.db #0x00
   14E0 00                 5817 	.db #0x00
   14E1 90                 5818 	.db #0x90
   14E2 00                 5819 	.db #0x00
   14E3 D8                 5820 	.db #0xD8
   14E4 90                 5821 	.db #0x90
   14E5 78                 5822 	.db #0x78
   14E6 10                 5823 	.db #0x10
   14E7 7B                 5824 	.db #0x7B
   14E8 70                 5825 	.db #0x70
   14E9 EB                 5826 	.db #0xEB
   14EA 13                 5827 	.db #0x13
   14EB 00                 5828 	.db #0x00
   14EC 00                 5829 	.db #0x00
   14ED 00                 5830 	.db #0x00
   14EE 00                 5831 	.db #0x00
   14EF 00                 5832 	.db #0x00
   14F0 00                 5833 	.db #0x00
   14F1 40                 5834 	.db #0x40
   14F2 00                 5835 	.db #0x00
   14F3 60                 5836 	.db #0x60
   14F4 40                 5837 	.db #0x40
   14F5 60                 5838 	.db #0x60
   14F6 40                 5839 	.db #0x40
   14F7 F0                 5840 	.db #0xF0
   14F8 40                 5841 	.db #0x40
   14F9 F8                 5842 	.db #0xF8
   14FA F0                 5843 	.db #0xF0
   14FB 00                 5844 	.db #0x00
   14FC 00                 5845 	.db #0x00
   14FD 00                 5846 	.db #0x00
   14FE 00                 5847 	.db #0x00
   14FF 00                 5848 	.db #0x00
   1500 00                 5849 	.db #0x00
   1501 00                 5850 	.db #0x00
   1502 00                 5851 	.db #0x00
   1503 00                 5852 	.db #0x00
   1504 00                 5853 	.db #0x00
   1505 00                 5854 	.db #0x00
   1506 00                 5855 	.db #0x00
   1507 7E                 5856 	.db #0x7E
   1508 00                 5857 	.db #0x00
   1509 FF                 5858 	.db #0xFF
   150A FE                 5859 	.db #0xFE
   150B 00                 5860 	.db #0x00
   150C 00                 5861 	.db #0x00
   150D 00                 5862 	.db #0x00
   150E 00                 5863 	.db #0x00
   150F 00                 5864 	.db #0x00
   1510 00                 5865 	.db #0x00
   1511 00                 5866 	.db #0x00
   1512 00                 5867 	.db #0x00
   1513 00                 5868 	.db #0x00
   1514 00                 5869 	.db #0x00
   1515 00                 5870 	.db #0x00
   1516 00                 5871 	.db #0x00
   1517 19                 5872 	.db #0x19
   1518 00                 5873 	.db #0x00
   1519 1D                 5874 	.db #0x1D
   151A 19                 5875 	.db #0x19
   151B 00                 5876 	.db #0x00
   151C 00                 5877 	.db #0x00
   151D 00                 5878 	.db #0x00
   151E 00                 5879 	.db #0x00
   151F 00                 5880 	.db #0x00
   1520 00                 5881 	.db #0x00
   1521 10                 5882 	.db #0x10
   1522 00                 5883 	.db #0x00
   1523 18                 5884 	.db #0x18
   1524 10                 5885 	.db #0x10
   1525 18                 5886 	.db #0x18
   1526 10                 5887 	.db #0x10
   1527 FC                 5888 	.db #0xFC
   1528 10                 5889 	.db #0x10
   1529 FE                 5890 	.db #0xFE
   152A FC                 5891 	.db #0xFC
   152B 03                 5892 	.db #0x03
   152C 02                 5893 	.db #0x02
   152D 03                 5894 	.db #0x03
   152E 02                 5895 	.db #0x02
   152F 03                 5896 	.db #0x03
   1530 03                 5897 	.db #0x03
   1531 03                 5898 	.db #0x03
   1532 02                 5899 	.db #0x02
   1533 03                 5900 	.db #0x03
   1534 02                 5901 	.db #0x02
   1535 02                 5902 	.db #0x02
   1536 07                 5903 	.db #0x07
   1537 07                 5904 	.db #0x07
   1538 07                 5905 	.db #0x07
   1539 00                 5906 	.db #0x00
   153A 00                 5907 	.db #0x00
   153B 03                 5908 	.db #0x03
   153C 02                 5909 	.db #0x02
   153D FF                 5910 	.db #0xFF
   153E 02                 5911 	.db #0x02
   153F FE                 5912 	.db #0xFE
   1540 FC                 5913 	.db #0xFC
   1541 00                 5914 	.db #0x00
   1542 00                 5915 	.db #0x00
   1543 00                 5916 	.db #0x00
   1544 00                 5917 	.db #0x00
   1545 80                 5918 	.db #0x80
   1546 00                 5919 	.db #0x00
   1547 C0                 5920 	.db #0xC0
   1548 80                 5921 	.db #0x80
   1549 00                 5922 	.db #0x00
   154A 00                 5923 	.db #0x00
   154B F8                 5924 	.db #0xF8
   154C 70                 5925 	.db #0x70
   154D 70                 5926 	.db #0x70
   154E 40                 5927 	.db #0x40
   154F 60                 5928 	.db #0x60
   1550 40                 5929 	.db #0x40
   1551 60                 5930 	.db #0x60
   1552 40                 5931 	.db #0x40
   1553 60                 5932 	.db #0x60
   1554 40                 5933 	.db #0x40
   1555 50                 5934 	.db #0x50
   1556 E0                 5935 	.db #0xE0
   1557 F8                 5936 	.db #0xF8
   1558 F0                 5937 	.db #0xF0
   1559 00                 5938 	.db #0x00
   155A 00                 5939 	.db #0x00
   155B CC                 5940 	.db #0xCC
   155C 88                 5941 	.db #0x88
   155D CF                 5942 	.db #0xCF
   155E 88                 5943 	.db #0x88
   155F CF                 5944 	.db #0xCF
   1560 8F                 5945 	.db #0x8F
   1561 0C                 5946 	.db #0x0C
   1562 08                 5947 	.db #0x08
   1563 0C                 5948 	.db #0x0C
   1564 08                 5949 	.db #0x08
   1565 03                 5950 	.db #0x03
   1566 04                 5951 	.db #0x04
   1567 07                 5952 	.db #0x07
   1568 07                 5953 	.db #0x07
   1569 00                 5954 	.db #0x00
   156A 00                 5955 	.db #0x00
   156B 07                 5956 	.db #0x07
   156C 05                 5957 	.db #0x05
   156D FE                 5958 	.db #0xFE
   156E 04                 5959 	.db #0x04
   156F FE                 5960 	.db #0xFE
   1570 FC                 5961 	.db #0xFC
   1571 04                 5962 	.db #0x04
   1572 00                 5963 	.db #0x00
   1573 37                 5964 	.db #0x37
   1574 35                 5965 	.db #0x35
   1575 CD                 5966 	.db #0xCD
   1576 79                 5967 	.db #0x79
   1577 FD                 5968 	.db #0xFD
   1578 FD                 5969 	.db #0xFD
   1579 84                 5970 	.db #0x84
   157A 84                 5971 	.db #0x84
   157B 80                 5972 	.db #0x80
   157C 00                 5973 	.db #0x00
   157D FF                 5974 	.db #0xFF
   157E 00                 5975 	.db #0x00
   157F FF                 5976 	.db #0xFF
   1580 FF                 5977 	.db #0xFF
   1581 00                 5978 	.db #0x00
   1582 00                 5979 	.db #0x00
   1583 80                 5980 	.db #0x80
   1584 00                 5981 	.db #0x00
   1585 7F                 5982 	.db #0x7F
   1586 80                 5983 	.db #0x80
   1587 FF                 5984 	.db #0xFF
   1588 FF                 5985 	.db #0xFF
   1589 00                 5986 	.db #0x00
   158A 00                 5987 	.db #0x00
   158B 30                 5988 	.db #0x30
   158C 20                 5989 	.db #0x20
   158D 1F                 5990 	.db #0x1F
   158E 00                 5991 	.db #0x00
   158F 1F                 5992 	.db #0x1F
   1590 9F                 5993 	.db #0x9F
   1591 C0                 5994 	.db #0xC0
   1592 80                 5995 	.db #0x80
   1593 F0                 5996 	.db #0xF0
   1594 A0                 5997 	.db #0xA0
   1595 EF                 5998 	.db #0xEF
   1596 B0                 5999 	.db #0xB0
   1597 BF                 6000 	.db #0xBF
   1598 3F                 6001 	.db #0x3F
   1599 00                 6002 	.db #0x00
   159A 00                 6003 	.db #0x00
   159B 00                 6004 	.db #0x00
   159C 00                 6005 	.db #0x00
   159D E0                 6006 	.db #0xE0
   159E 00                 6007 	.db #0x00
   159F E0                 6008 	.db #0xE0
   15A0 F0                 6009 	.db #0xF0
   15A1 18                 6010 	.db #0x18
   15A2 10                 6011 	.db #0x10
   15A3 18                 6012 	.db #0x18
   15A4 10                 6013 	.db #0x10
   15A5 F0                 6014 	.db #0xF0
   15A6 10                 6015 	.db #0x10
   15A7 F0                 6016 	.db #0xF0
   15A8 E0                 6017 	.db #0xE0
   15A9 00                 6018 	.db #0x00
   15AA 00                 6019 	.db #0x00
   15AB 1F                 6020 	.db #0x1F
   15AC 1F                 6021 	.db #0x1F
   15AD 00                 6022 	.db #0x00
   15AE 00                 6023 	.db #0x00
   15AF 30                 6024 	.db #0x30
   15B0 20                 6025 	.db #0x20
   15B1 30                 6026 	.db #0x30
   15B2 20                 6027 	.db #0x20
   15B3 38                 6028 	.db #0x38
   15B4 30                 6029 	.db #0x30
   15B5 37                 6030 	.db #0x37
   15B6 28                 6031 	.db #0x28
   15B7 3F                 6032 	.db #0x3F
   15B8 2F                 6033 	.db #0x2F
   15B9 00                 6034 	.db #0x00
   15BA 00                 6035 	.db #0x00
   15BB C0                 6036 	.db #0xC0
   15BC 80                 6037 	.db #0x80
   15BD 40                 6038 	.db #0x40
   15BE 00                 6039 	.db #0x00
   15BF 78                 6040 	.db #0x78
   15C0 10                 6041 	.db #0x10
   15C1 18                 6042 	.db #0x18
   15C2 10                 6043 	.db #0x10
   15C3 18                 6044 	.db #0x18
   15C4 10                 6045 	.db #0x10
   15C5 C0                 6046 	.db #0xC0
   15C6 00                 6047 	.db #0x00
   15C7 E0                 6048 	.db #0xE0
   15C8 C0                 6049 	.db #0xC0
   15C9 00                 6050 	.db #0x00
   15CA 00                 6051 	.db #0x00
   15CB E1                 6052 	.db #0xE1
   15CC 41                 6053 	.db #0x41
   15CD 63                 6054 	.db #0x63
   15CE 43                 6055 	.db #0x43
   15CF 63                 6056 	.db #0x63
   15D0 43                 6057 	.db #0x43
   15D1 63                 6058 	.db #0x63
   15D2 42                 6059 	.db #0x42
   15D3 67                 6060 	.db #0x67
   15D4 46                 6061 	.db #0x46
   15D5 3E                 6062 	.db #0x3E
   15D6 04                 6063 	.db #0x04
   15D7 3E                 6064 	.db #0x3E
   15D8 3C                 6065 	.db #0x3C
   15D9 18                 6066 	.db #0x18
   15DA 18                 6067 	.db #0x18
   15DB E1                 6068 	.db #0xE1
   15DC A1                 6069 	.db #0xA1
   15DD 7F                 6070 	.db #0x7F
   15DE 11                 6071 	.db #0x11
   15DF FF                 6072 	.db #0xFF
   15E0 7F                 6073 	.db #0x7F
   15E1 D0                 6074 	.db #0xD0
   15E2 90                 6075 	.db #0x90
   15E3 D8                 6076 	.db #0xD8
   15E4 98                 6077 	.db #0x98
   15E5 CE                 6078 	.db #0xCE
   15E6 79                 6079 	.db #0x79
   15E7 7F                 6080 	.db #0x7F
   15E8 7F                 6081 	.db #0x7F
   15E9 08                 6082 	.db #0x08
   15EA 08                 6083 	.db #0x08
   15EB DF                 6084 	.db #0xDF
   15EC 8E                 6085 	.db #0x8E
   15ED CE                 6086 	.db #0xCE
   15EE 88                 6087 	.db #0x88
   15EF CC                 6088 	.db #0xCC
   15F0 88                 6089 	.db #0x88
   15F1 CC                 6090 	.db #0xCC
   15F2 88                 6091 	.db #0x88
   15F3 CC                 6092 	.db #0xCC
   15F4 88                 6093 	.db #0x88
   15F5 8A                 6094 	.db #0x8A
   15F6 DC                 6095 	.db #0xDC
   15F7 FF                 6096 	.db #0xFF
   15F8 DE                 6097 	.db #0xDE
   15F9 00                 6098 	.db #0x00
   15FA 00                 6099 	.db #0x00
   15FB 18                 6100 	.db #0x18
   15FC 10                 6101 	.db #0x10
   15FD 18                 6102 	.db #0x18
   15FE 10                 6103 	.db #0x10
   15FF 18                 6104 	.db #0x18
   1600 10                 6105 	.db #0x10
   1601 00                 6106 	.db #0x00
   1602 00                 6107 	.db #0x00
   1603 00                 6108 	.db #0x00
   1604 00                 6109 	.db #0x00
   1605 00                 6110 	.db #0x00
   1606 00                 6111 	.db #0x00
   1607 00                 6112 	.db #0x00
   1608 00                 6113 	.db #0x00
   1609 00                 6114 	.db #0x00
   160A 00                 6115 	.db #0x00
   160B 38                 6116 	.db #0x38
   160C 10                 6117 	.db #0x10
   160D 18                 6118 	.db #0x18
   160E 10                 6119 	.db #0x10
   160F 18                 6120 	.db #0x18
   1610 10                 6121 	.db #0x10
   1611 18                 6122 	.db #0x18
   1612 10                 6123 	.db #0x10
   1613 18                 6124 	.db #0x18
   1614 10                 6125 	.db #0x10
   1615 0F                 6126 	.db #0x0F
   1616 00                 6127 	.db #0x00
   1617 0F                 6128 	.db #0x0F
   1618 0F                 6129 	.db #0x0F
   1619 00                 6130 	.db #0x00
   161A 00                 6131 	.db #0x00
   161B 00                 6132 	.db #0x00
   161C 00                 6133 	.db #0x00
   161D 00                 6134 	.db #0x00
   161E 00                 6135 	.db #0x00
   161F 00                 6136 	.db #0x00
   1620 00                 6137 	.db #0x00
   1621 80                 6138 	.db #0x80
   1622 00                 6139 	.db #0x00
   1623 C0                 6140 	.db #0xC0
   1624 80                 6141 	.db #0x80
   1625 00                 6142 	.db #0x00
   1626 00                 6143 	.db #0x00
   1627 80                 6144 	.db #0x80
   1628 00                 6145 	.db #0x00
   1629 00                 6146 	.db #0x00
   162A 00                 6147 	.db #0x00
   162B 00                 6148 	.db #0x00
   162C 00                 6149 	.db #0x00
   162D 01                 6150 	.db #0x01
   162E 01                 6151 	.db #0x01
   162F 01                 6152 	.db #0x01
   1630 01                 6153 	.db #0x01
   1631 01                 6154 	.db #0x01
   1632 01                 6155 	.db #0x01
   1633 01                 6156 	.db #0x01
   1634 01                 6157 	.db #0x01
   1635 01                 6158 	.db #0x01
   1636 01                 6159 	.db #0x01
   1637 01                 6160 	.db #0x01
   1638 01                 6161 	.db #0x01
   1639 01                 6162 	.db #0x01
   163A 01                 6163 	.db #0x01
   163B 86                 6164 	.db #0x86
   163C 86                 6165 	.db #0x86
   163D 83                 6166 	.db #0x83
   163E 83                 6167 	.db #0x83
   163F 01                 6168 	.db #0x01
   1640 01                 6169 	.db #0x01
   1641 00                 6170 	.db #0x00
   1642 00                 6171 	.db #0x00
   1643 00                 6172 	.db #0x00
   1644 00                 6173 	.db #0x00
   1645 00                 6174 	.db #0x00
   1646 00                 6175 	.db #0x00
   1647 00                 6176 	.db #0x00
   1648 00                 6177 	.db #0x00
   1649 00                 6178 	.db #0x00
   164A 00                 6179 	.db #0x00
   164B 00                 6180 	.db #0x00
   164C 00                 6181 	.db #0x00
   164D 00                 6182 	.db #0x00
   164E 00                 6183 	.db #0x00
   164F 80                 6184 	.db #0x80
   1650 80                 6185 	.db #0x80
   1651 80                 6186 	.db #0x80
   1652 80                 6187 	.db #0x80
   1653 C0                 6188 	.db #0xC0
   1654 C0                 6189 	.db #0xC0
   1655 60                 6190 	.db #0x60
   1656 60                 6191 	.db #0x60
   1657 31                 6192 	.db #0x31
   1658 31                 6193 	.db #0x31
   1659 1F                 6194 	.db #0x1F
   165A 1F                 6195 	.db #0x1F
   165B 00                 6196 	.db #0x00
   165C 00                 6197 	.db #0x00
   165D 00                 6198 	.db #0x00
   165E 00                 6199 	.db #0x00
   165F 00                 6200 	.db #0x00
   1660 00                 6201 	.db #0x00
   1661 00                 6202 	.db #0x00
   1662 00                 6203 	.db #0x00
   1663 00                 6204 	.db #0x00
   1664 00                 6205 	.db #0x00
   1665 07                 6206 	.db #0x07
   1666 07                 6207 	.db #0x07
   1667 FF                 6208 	.db #0xFF
   1668 FC                 6209 	.db #0xFC
   1669 FF                 6210 	.db #0xFF
   166A 00                 6211 	.db #0x00
   166B 00                 6212 	.db #0x00
   166C 00                 6213 	.db #0x00
   166D 00                 6214 	.db #0x00
   166E 00                 6215 	.db #0x00
   166F 00                 6216 	.db #0x00
   1670 00                 6217 	.db #0x00
   1671 00                 6218 	.db #0x00
   1672 00                 6219 	.db #0x00
   1673 FF                 6220 	.db #0xFF
   1674 FF                 6221 	.db #0xFF
   1675 FF                 6222 	.db #0xFF
   1676 80                 6223 	.db #0x80
   1677 FF                 6224 	.db #0xFF
   1678 00                 6225 	.db #0x00
   1679 FF                 6226 	.db #0xFF
   167A 00                 6227 	.db #0x00
   167B 00                 6228 	.db #0x00
   167C 00                 6229 	.db #0x00
   167D 00                 6230 	.db #0x00
   167E 00                 6231 	.db #0x00
   167F 00                 6232 	.db #0x00
   1680 00                 6233 	.db #0x00
   1681 00                 6234 	.db #0x00
   1682 00                 6235 	.db #0x00
   1683 FE                 6236 	.db #0xFE
   1684 FE                 6237 	.db #0xFE
   1685 FF                 6238 	.db #0xFF
   1686 01                 6239 	.db #0x01
   1687 FF                 6240 	.db #0xFF
   1688 00                 6241 	.db #0x00
   1689 FF                 6242 	.db #0xFF
   168A 00                 6243 	.db #0x00
   168B 00                 6244 	.db #0x00
   168C 00                 6245 	.db #0x00
   168D 00                 6246 	.db #0x00
   168E 00                 6247 	.db #0x00
   168F 00                 6248 	.db #0x00
   1690 00                 6249 	.db #0x00
   1691 01                 6250 	.db #0x01
   1692 01                 6251 	.db #0x01
   1693 03                 6252 	.db #0x03
   1694 03                 6253 	.db #0x03
   1695 CE                 6254 	.db #0xCE
   1696 CE                 6255 	.db #0xCE
   1697 FF                 6256 	.db #0xFF
   1698 7F                 6257 	.db #0x7F
   1699 FF                 6258 	.db #0xFF
   169A 00                 6259 	.db #0x00
   169B 30                 6260 	.db #0x30
   169C 30                 6261 	.db #0x30
   169D 60                 6262 	.db #0x60
   169E 60                 6263 	.db #0x60
   169F C0                 6264 	.db #0xC0
   16A0 C0                 6265 	.db #0xC0
   16A1 80                 6266 	.db #0x80
   16A2 80                 6267 	.db #0x80
   16A3 00                 6268 	.db #0x00
   16A4 00                 6269 	.db #0x00
   16A5 00                 6270 	.db #0x00
   16A6 00                 6271 	.db #0x00
   16A7 00                 6272 	.db #0x00
   16A8 00                 6273 	.db #0x00
   16A9 FF                 6274 	.db #0xFF
   16AA FF                 6275 	.db #0xFF
   16AB 08                 6276 	.db #0x08
   16AC 08                 6277 	.db #0x08
   16AD 08                 6278 	.db #0x08
   16AE 08                 6279 	.db #0x08
   16AF 08                 6280 	.db #0x08
   16B0 08                 6281 	.db #0x08
   16B1 18                 6282 	.db #0x18
   16B2 18                 6283 	.db #0x18
   16B3 10                 6284 	.db #0x10
   16B4 10                 6285 	.db #0x10
   16B5 30                 6286 	.db #0x30
   16B6 30                 6287 	.db #0x30
   16B7 20                 6288 	.db #0x20
   16B8 20                 6289 	.db #0x20
   16B9 E0                 6290 	.db #0xE0
   16BA E0                 6291 	.db #0xE0
   16BB 01                 6292 	.db #0x01
   16BC 01                 6293 	.db #0x01
   16BD 00                 6294 	.db #0x00
   16BE 00                 6295 	.db #0x00
   16BF 00                 6296 	.db #0x00
   16C0 00                 6297 	.db #0x00
   16C1 00                 6298 	.db #0x00
   16C2 00                 6299 	.db #0x00
   16C3 00                 6300 	.db #0x00
   16C4 00                 6301 	.db #0x00
   16C5 00                 6302 	.db #0x00
   16C6 00                 6303 	.db #0x00
   16C7 00                 6304 	.db #0x00
   16C8 00                 6305 	.db #0x00
   16C9 00                 6306 	.db #0x00
   16CA 00                 6307 	.db #0x00
   16CB 80                 6308 	.db #0x80
   16CC 80                 6309 	.db #0x80
   16CD 80                 6310 	.db #0x80
   16CE 80                 6311 	.db #0x80
   16CF 80                 6312 	.db #0x80
   16D0 80                 6313 	.db #0x80
   16D1 80                 6314 	.db #0x80
   16D2 80                 6315 	.db #0x80
   16D3 80                 6316 	.db #0x80
   16D4 80                 6317 	.db #0x80
   16D5 C0                 6318 	.db #0xC0
   16D6 C0                 6319 	.db #0xC0
   16D7 40                 6320 	.db #0x40
   16D8 40                 6321 	.db #0x40
   16D9 40                 6322 	.db #0x40
   16DA 40                 6323 	.db #0x40
   16DB 07                 6324 	.db #0x07
   16DC 06                 6325 	.db #0x06
   16DD 03                 6326 	.db #0x03
   16DE 03                 6327 	.db #0x03
   16DF 01                 6328 	.db #0x01
   16E0 01                 6329 	.db #0x01
   16E1 01                 6330 	.db #0x01
   16E2 01                 6331 	.db #0x01
   16E3 00                 6332 	.db #0x00
   16E4 00                 6333 	.db #0x00
   16E5 00                 6334 	.db #0x00
   16E6 00                 6335 	.db #0x00
   16E7 01                 6336 	.db #0x01
   16E8 01                 6337 	.db #0x01
   16E9 03                 6338 	.db #0x03
   16EA 03                 6339 	.db #0x03
   16EB FF                 6340 	.db #0xFF
   16EC 00                 6341 	.db #0x00
   16ED FF                 6342 	.db #0xFF
   16EE 00                 6343 	.db #0x00
   16EF FF                 6344 	.db #0xFF
   16F0 00                 6345 	.db #0x00
   16F1 FF                 6346 	.db #0xFF
   16F2 80                 6347 	.db #0x80
   16F3 FF                 6348 	.db #0xFF
   16F4 80                 6349 	.db #0x80
   16F5 FF                 6350 	.db #0xFF
   16F6 80                 6351 	.db #0x80
   16F7 FF                 6352 	.db #0xFF
   16F8 00                 6353 	.db #0x00
   16F9 FF                 6354 	.db #0xFF
   16FA 00                 6355 	.db #0x00
   16FB FF                 6356 	.db #0xFF
   16FC 00                 6357 	.db #0x00
   16FD FF                 6358 	.db #0xFF
   16FE 00                 6359 	.db #0x00
   16FF FF                 6360 	.db #0xFF
   1700 00                 6361 	.db #0x00
   1701 FF                 6362 	.db #0xFF
   1702 00                 6363 	.db #0x00
   1703 FF                 6364 	.db #0xFF
   1704 00                 6365 	.db #0x00
   1705 FF                 6366 	.db #0xFF
   1706 00                 6367 	.db #0x00
   1707 FF                 6368 	.db #0xFF
   1708 00                 6369 	.db #0x00
   1709 FF                 6370 	.db #0xFF
   170A 00                 6371 	.db #0x00
   170B F0                 6372 	.db #0xF0
   170C 70                 6373 	.db #0x70
   170D FF                 6374 	.db #0xFF
   170E 0F                 6375 	.db #0x0F
   170F FF                 6376 	.db #0xFF
   1710 00                 6377 	.db #0x00
   1711 FF                 6378 	.db #0xFF
   1712 00                 6379 	.db #0x00
   1713 FF                 6380 	.db #0xFF
   1714 00                 6381 	.db #0x00
   1715 FF                 6382 	.db #0xFF
   1716 00                 6383 	.db #0x00
   1717 FF                 6384 	.db #0xFF
   1718 00                 6385 	.db #0x00
   1719 FF                 6386 	.db #0xFF
   171A 00                 6387 	.db #0x00
   171B 00                 6388 	.db #0x00
   171C 00                 6389 	.db #0x00
   171D C0                 6390 	.db #0xC0
   171E C0                 6391 	.db #0xC0
   171F F8                 6392 	.db #0xF8
   1720 38                 6393 	.db #0x38
   1721 FC                 6394 	.db #0xFC
   1722 04                 6395 	.db #0x04
   1723 FE                 6396 	.db #0xFE
   1724 06                 6397 	.db #0x06
   1725 FF                 6398 	.db #0xFF
   1726 03                 6399 	.db #0x03
   1727 FF                 6400 	.db #0xFF
   1728 03                 6401 	.db #0x03
   1729 FF                 6402 	.db #0xFF
   172A 01                 6403 	.db #0x01
   172B 00                 6404 	.db #0x00
   172C 00                 6405 	.db #0x00
   172D 00                 6406 	.db #0x00
   172E 00                 6407 	.db #0x00
   172F 00                 6408 	.db #0x00
   1730 00                 6409 	.db #0x00
   1731 00                 6410 	.db #0x00
   1732 00                 6411 	.db #0x00
   1733 00                 6412 	.db #0x00
   1734 00                 6413 	.db #0x00
   1735 38                 6414 	.db #0x38
   1736 38                 6415 	.db #0x38
   1737 9C                 6416 	.db #0x9C
   1738 9C                 6417 	.db #0x9C
   1739 9C                 6418 	.db #0x9C
   173A 9C                 6419 	.db #0x9C
   173B 00                 6420 	.db #0x00
   173C 00                 6421 	.db #0x00
   173D 00                 6422 	.db #0x00
   173E 00                 6423 	.db #0x00
   173F 60                 6424 	.db #0x60
   1740 60                 6425 	.db #0x60
   1741 70                 6426 	.db #0x70
   1742 70                 6427 	.db #0x70
   1743 78                 6428 	.db #0x78
   1744 58                 6429 	.db #0x58
   1745 7C                 6430 	.db #0x7C
   1746 4C                 6431 	.db #0x4C
   1747 7F                 6432 	.db #0x7F
   1748 47                 6433 	.db #0x47
   1749 7F                 6434 	.db #0x7F
   174A 41                 6435 	.db #0x41
   174B 70                 6436 	.db #0x70
   174C 70                 6437 	.db #0x70
   174D 7F                 6438 	.db #0x7F
   174E 5F                 6439 	.db #0x5F
   174F 7F                 6440 	.db #0x7F
   1750 40                 6441 	.db #0x40
   1751 7F                 6442 	.db #0x7F
   1752 40                 6443 	.db #0x40
   1753 7F                 6444 	.db #0x7F
   1754 47                 6445 	.db #0x47
   1755 7F                 6446 	.db #0x7F
   1756 40                 6447 	.db #0x40
   1757 7F                 6448 	.db #0x7F
   1758 40                 6449 	.db #0x40
   1759 FF                 6450 	.db #0xFF
   175A C0                 6451 	.db #0xC0
   175B 0F                 6452 	.db #0x0F
   175C 0E                 6453 	.db #0x0E
   175D FF                 6454 	.db #0xFF
   175E FD                 6455 	.db #0xFD
   175F FF                 6456 	.db #0xFF
   1760 03                 6457 	.db #0x03
   1761 FF                 6458 	.db #0xFF
   1762 0E                 6459 	.db #0x0E
   1763 FF                 6460 	.db #0xFF
   1764 F8                 6461 	.db #0xF8
   1765 FF                 6462 	.db #0xFF
   1766 00                 6463 	.db #0x00
   1767 FF                 6464 	.db #0xFF
   1768 00                 6465 	.db #0x00
   1769 FF                 6466 	.db #0xFF
   176A 00                 6467 	.db #0x00
   176B FF                 6468 	.db #0xFF
   176C 80                 6469 	.db #0x80
   176D FF                 6470 	.db #0xFF
   176E 80                 6471 	.db #0x80
   176F FF                 6472 	.db #0xFF
   1770 00                 6473 	.db #0x00
   1771 FF                 6474 	.db #0xFF
   1772 00                 6475 	.db #0x00
   1773 FF                 6476 	.db #0xFF
   1774 00                 6477 	.db #0x00
   1775 FF                 6478 	.db #0xFF
   1776 00                 6479 	.db #0x00
   1777 FF                 6480 	.db #0xFF
   1778 C0                 6481 	.db #0xC0
   1779 FF                 6482 	.db #0xFF
   177A E0                 6483 	.db #0xE0
   177B FF                 6484 	.db #0xFF
   177C 00                 6485 	.db #0x00
   177D FF                 6486 	.db #0xFF
   177E 80                 6487 	.db #0x80
   177F FF                 6488 	.db #0xFF
   1780 C0                 6489 	.db #0xC0
   1781 FF                 6490 	.db #0xFF
   1782 C0                 6491 	.db #0xC0
   1783 FF                 6492 	.db #0xFF
   1784 F8                 6493 	.db #0xF8
   1785 FF                 6494 	.db #0xFF
   1786 7F                 6495 	.db #0x7F
   1787 FF                 6496 	.db #0xFF
   1788 1F                 6497 	.db #0x1F
   1789 FF                 6498 	.db #0xFF
   178A 03                 6499 	.db #0x03
   178B FF                 6500 	.db #0xFF
   178C 00                 6501 	.db #0x00
   178D FF                 6502 	.db #0xFF
   178E 00                 6503 	.db #0x00
   178F FF                 6504 	.db #0xFF
   1790 00                 6505 	.db #0x00
   1791 FF                 6506 	.db #0xFF
   1792 00                 6507 	.db #0x00
   1793 FF                 6508 	.db #0xFF
   1794 00                 6509 	.db #0x00
   1795 FF                 6510 	.db #0xFF
   1796 00                 6511 	.db #0x00
   1797 FF                 6512 	.db #0xFF
   1798 FF                 6513 	.db #0xFF
   1799 FF                 6514 	.db #0xFF
   179A FF                 6515 	.db #0xFF
   179B FF                 6516 	.db #0xFF
   179C 00                 6517 	.db #0x00
   179D FF                 6518 	.db #0xFF
   179E 00                 6519 	.db #0x00
   179F FF                 6520 	.db #0xFF
   17A0 00                 6521 	.db #0x00
   17A1 FF                 6522 	.db #0xFF
   17A2 00                 6523 	.db #0x00
   17A3 FF                 6524 	.db #0xFF
   17A4 00                 6525 	.db #0x00
   17A5 FF                 6526 	.db #0xFF
   17A6 00                 6527 	.db #0x00
   17A7 FF                 6528 	.db #0xFF
   17A8 FE                 6529 	.db #0xFE
   17A9 FF                 6530 	.db #0xFF
   17AA FF                 6531 	.db #0xFF
   17AB FF                 6532 	.db #0xFF
   17AC 00                 6533 	.db #0x00
   17AD FF                 6534 	.db #0xFF
   17AE 00                 6535 	.db #0x00
   17AF FF                 6536 	.db #0xFF
   17B0 00                 6537 	.db #0x00
   17B1 FF                 6538 	.db #0xFF
   17B2 60                 6539 	.db #0x60
   17B3 FF                 6540 	.db #0xFF
   17B4 60                 6541 	.db #0x60
   17B5 FF                 6542 	.db #0xFF
   17B6 70                 6543 	.db #0x70
   17B7 FF                 6544 	.db #0xFF
   17B8 30                 6545 	.db #0x30
   17B9 FF                 6546 	.db #0xFF
   17BA B8                 6547 	.db #0xB8
   17BB FF                 6548 	.db #0xFF
   17BC 00                 6549 	.db #0x00
   17BD FF                 6550 	.db #0xFF
   17BE 00                 6551 	.db #0x00
   17BF FF                 6552 	.db #0xFF
   17C0 60                 6553 	.db #0x60
   17C1 FF                 6554 	.db #0xFF
   17C2 E7                 6555 	.db #0xE7
   17C3 FF                 6556 	.db #0xFF
   17C4 EF                 6557 	.db #0xEF
   17C5 FF                 6558 	.db #0xFF
   17C6 DE                 6559 	.db #0xDE
   17C7 FF                 6560 	.db #0xFF
   17C8 DC                 6561 	.db #0xDC
   17C9 FF                 6562 	.db #0xFF
   17CA D8                 6563 	.db #0xD8
   17CB FF                 6564 	.db #0xFF
   17CC 01                 6565 	.db #0x01
   17CD FF                 6566 	.db #0xFF
   17CE 0F                 6567 	.db #0x0F
   17CF FF                 6568 	.db #0xFF
   17D0 FF                 6569 	.db #0xFF
   17D1 FF                 6570 	.db #0xFF
   17D2 FD                 6571 	.db #0xFD
   17D3 FF                 6572 	.db #0xFF
   17D4 C1                 6573 	.db #0xC1
   17D5 FF                 6574 	.db #0xFF
   17D6 01                 6575 	.db #0x01
   17D7 FF                 6576 	.db #0xFF
   17D8 01                 6577 	.db #0x01
   17D9 FF                 6578 	.db #0xFF
   17DA 03                 6579 	.db #0x03
   17DB BC                 6580 	.db #0xBC
   17DC BC                 6581 	.db #0xBC
   17DD FC                 6582 	.db #0xFC
   17DE FC                 6583 	.db #0xFC
   17DF F0                 6584 	.db #0xF0
   17E0 F0                 6585 	.db #0xF0
   17E1 80                 6586 	.db #0x80
   17E2 80                 6587 	.db #0x80
   17E3 80                 6588 	.db #0x80
   17E4 80                 6589 	.db #0x80
   17E5 80                 6590 	.db #0x80
   17E6 80                 6591 	.db #0x80
   17E7 80                 6592 	.db #0x80
   17E8 80                 6593 	.db #0x80
   17E9 80                 6594 	.db #0x80
   17EA 80                 6595 	.db #0x80
   17EB 7F                 6596 	.db #0x7F
   17EC 40                 6597 	.db #0x40
   17ED 7F                 6598 	.db #0x7F
   17EE 63                 6599 	.db #0x63
   17EF 7F                 6600 	.db #0x7F
   17F0 63                 6601 	.db #0x63
   17F1 3F                 6602 	.db #0x3F
   17F2 21                 6603 	.db #0x21
   17F3 3F                 6604 	.db #0x3F
   17F4 21                 6605 	.db #0x21
   17F5 3F                 6606 	.db #0x3F
   17F6 21                 6607 	.db #0x21
   17F7 3F                 6608 	.db #0x3F
   17F8 30                 6609 	.db #0x30
   17F9 1F                 6610 	.db #0x1F
   17FA 10                 6611 	.db #0x10
   17FB FF                 6612 	.db #0xFF
   17FC E0                 6613 	.db #0xE0
   17FD FF                 6614 	.db #0xFF
   17FE 30                 6615 	.db #0x30
   17FF FF                 6616 	.db #0xFF
   1800 8C                 6617 	.db #0x8C
   1801 FF                 6618 	.db #0xFF
   1802 C7                 6619 	.db #0xC7
   1803 FF                 6620 	.db #0xFF
   1804 61                 6621 	.db #0x61
   1805 FF                 6622 	.db #0xFF
   1806 30                 6623 	.db #0x30
   1807 FF                 6624 	.db #0xFF
   1808 98                 6625 	.db #0x98
   1809 FF                 6626 	.db #0xFF
   180A 8C                 6627 	.db #0x8C
   180B FF                 6628 	.db #0xFF
   180C 00                 6629 	.db #0x00
   180D FF                 6630 	.db #0xFF
   180E 00                 6631 	.db #0x00
   180F FF                 6632 	.db #0xFF
   1810 00                 6633 	.db #0x00
   1811 FF                 6634 	.db #0xFF
   1812 00                 6635 	.db #0x00
   1813 FF                 6636 	.db #0xFF
   1814 80                 6637 	.db #0x80
   1815 FF                 6638 	.db #0xFF
   1816 00                 6639 	.db #0x00
   1817 FF                 6640 	.db #0xFF
   1818 00                 6641 	.db #0x00
   1819 FF                 6642 	.db #0xFF
   181A 00                 6643 	.db #0x00
   181B FF                 6644 	.db #0xFF
   181C F0                 6645 	.db #0xF0
   181D FF                 6646 	.db #0xFF
   181E 7C                 6647 	.db #0x7C
   181F FF                 6648 	.db #0xFF
   1820 3F                 6649 	.db #0x3F
   1821 FF                 6650 	.db #0xFF
   1822 0F                 6651 	.db #0x0F
   1823 FF                 6652 	.db #0xFF
   1824 01                 6653 	.db #0x01
   1825 FF                 6654 	.db #0xFF
   1826 00                 6655 	.db #0x00
   1827 FF                 6656 	.db #0xFF
   1828 00                 6657 	.db #0x00
   1829 FF                 6658 	.db #0xFF
   182A 01                 6659 	.db #0x01
   182B FF                 6660 	.db #0xFF
   182C 00                 6661 	.db #0x00
   182D FF                 6662 	.db #0xFF
   182E 00                 6663 	.db #0x00
   182F FF                 6664 	.db #0xFF
   1830 80                 6665 	.db #0x80
   1831 FF                 6666 	.db #0xFF
   1832 FF                 6667 	.db #0xFF
   1833 FF                 6668 	.db #0xFF
   1834 FF                 6669 	.db #0xFF
   1835 FF                 6670 	.db #0xFF
   1836 C0                 6671 	.db #0xC0
   1837 80                 6672 	.db #0x80
   1838 80                 6673 	.db #0x80
   1839 00                 6674 	.db #0x00
   183A 00                 6675 	.db #0x00
   183B FF                 6676 	.db #0xFF
   183C 00                 6677 	.db #0x00
   183D FF                 6678 	.db #0xFF
   183E 00                 6679 	.db #0x00
   183F FF                 6680 	.db #0xFF
   1840 00                 6681 	.db #0x00
   1841 FF                 6682 	.db #0xFF
   1842 FE                 6683 	.db #0xFE
   1843 FF                 6684 	.db #0xFF
   1844 FF                 6685 	.db #0xFF
   1845 FF                 6686 	.db #0xFF
   1846 03                 6687 	.db #0x03
   1847 07                 6688 	.db #0x07
   1848 00                 6689 	.db #0x00
   1849 00                 6690 	.db #0x00
   184A 00                 6691 	.db #0x00
   184B FF                 6692 	.db #0xFF
   184C 07                 6693 	.db #0x07
   184D FF                 6694 	.db #0xFF
   184E 01                 6695 	.db #0x01
   184F FF                 6696 	.db #0xFF
   1850 00                 6697 	.db #0x00
   1851 FF                 6698 	.db #0xFF
   1852 00                 6699 	.db #0x00
   1853 FF                 6700 	.db #0xFF
   1854 F8                 6701 	.db #0xF8
   1855 FF                 6702 	.db #0xFF
   1856 FF                 6703 	.db #0xFF
   1857 FF                 6704 	.db #0xFF
   1858 3F                 6705 	.db #0x3F
   1859 7F                 6706 	.db #0x7F
   185A 18                 6707 	.db #0x18
   185B FF                 6708 	.db #0xFF
   185C B8                 6709 	.db #0xB8
   185D FF                 6710 	.db #0xFF
   185E B8                 6711 	.db #0xB8
   185F FF                 6712 	.db #0xFF
   1860 30                 6713 	.db #0x30
   1861 FF                 6714 	.db #0xFF
   1862 31                 6715 	.db #0x31
   1863 FF                 6716 	.db #0xFF
   1864 71                 6717 	.db #0x71
   1865 FF                 6718 	.db #0xFF
   1866 F1                 6719 	.db #0xF1
   1867 FF                 6720 	.db #0xFF
   1868 E0                 6721 	.db #0xE0
   1869 FF                 6722 	.db #0xFF
   186A 00                 6723 	.db #0x00
   186B FF                 6724 	.db #0xFF
   186C C0                 6725 	.db #0xC0
   186D FF                 6726 	.db #0xFF
   186E C0                 6727 	.db #0xC0
   186F FF                 6728 	.db #0xFF
   1870 C3                 6729 	.db #0xC3
   1871 FF                 6730 	.db #0xFF
   1872 FF                 6731 	.db #0xFF
   1873 FF                 6732 	.db #0xFF
   1874 FF                 6733 	.db #0xFF
   1875 FF                 6734 	.db #0xFF
   1876 F0                 6735 	.db #0xF0
   1877 F8                 6736 	.db #0xF8
   1878 C0                 6737 	.db #0xC0
   1879 F0                 6738 	.db #0xF0
   187A C0                 6739 	.db #0xC0
   187B FF                 6740 	.db #0xFF
   187C 0F                 6741 	.db #0x0F
   187D FF                 6742 	.db #0xFF
   187E 3F                 6743 	.db #0x3F
   187F FC                 6744 	.db #0xFC
   1880 FC                 6745 	.db #0xFC
   1881 F0                 6746 	.db #0xF0
   1882 F0                 6747 	.db #0xF0
   1883 F8                 6748 	.db #0xF8
   1884 18                 6749 	.db #0x18
   1885 08                 6750 	.db #0x08
   1886 08                 6751 	.db #0x08
   1887 08                 6752 	.db #0x08
   1888 08                 6753 	.db #0x08
   1889 08                 6754 	.db #0x08
   188A 08                 6755 	.db #0x08
   188B 80                 6756 	.db #0x80
   188C 80                 6757 	.db #0x80
   188D 00                 6758 	.db #0x00
   188E 00                 6759 	.db #0x00
   188F 00                 6760 	.db #0x00
   1890 00                 6761 	.db #0x00
   1891 00                 6762 	.db #0x00
   1892 00                 6763 	.db #0x00
   1893 00                 6764 	.db #0x00
   1894 00                 6765 	.db #0x00
   1895 00                 6766 	.db #0x00
   1896 00                 6767 	.db #0x00
   1897 00                 6768 	.db #0x00
   1898 00                 6769 	.db #0x00
   1899 00                 6770 	.db #0x00
   189A 00                 6771 	.db #0x00
   189B 1F                 6772 	.db #0x1F
   189C 18                 6773 	.db #0x18
   189D 0F                 6774 	.db #0x0F
   189E 08                 6775 	.db #0x08
   189F 0F                 6776 	.db #0x0F
   18A0 0C                 6777 	.db #0x0C
   18A1 07                 6778 	.db #0x07
   18A2 06                 6779 	.db #0x06
   18A3 03                 6780 	.db #0x03
   18A4 03                 6781 	.db #0x03
   18A5 01                 6782 	.db #0x01
   18A6 01                 6783 	.db #0x01
   18A7 01                 6784 	.db #0x01
   18A8 01                 6785 	.db #0x01
   18A9 00                 6786 	.db #0x00
   18AA 00                 6787 	.db #0x00
   18AB FF                 6788 	.db #0xFF
   18AC C0                 6789 	.db #0xC0
   18AD FF                 6790 	.db #0xFF
   18AE 60                 6791 	.db #0x60
   18AF FF                 6792 	.db #0xFF
   18B0 60                 6793 	.db #0x60
   18B1 FF                 6794 	.db #0xFF
   18B2 20                 6795 	.db #0x20
   18B3 FF                 6796 	.db #0xFF
   18B4 20                 6797 	.db #0x20
   18B5 FF                 6798 	.db #0xFF
   18B6 30                 6799 	.db #0x30
   18B7 FF                 6800 	.db #0xFF
   18B8 90                 6801 	.db #0x90
   18B9 FF                 6802 	.db #0xFF
   18BA 80                 6803 	.db #0x80
   18BB FF                 6804 	.db #0xFF
   18BC 00                 6805 	.db #0x00
   18BD FF                 6806 	.db #0xFF
   18BE 00                 6807 	.db #0x00
   18BF FF                 6808 	.db #0xFF
   18C0 00                 6809 	.db #0x00
   18C1 FF                 6810 	.db #0xFF
   18C2 00                 6811 	.db #0x00
   18C3 FF                 6812 	.db #0xFF
   18C4 01                 6813 	.db #0x01
   18C5 FF                 6814 	.db #0xFF
   18C6 01                 6815 	.db #0x01
   18C7 FF                 6816 	.db #0xFF
   18C8 01                 6817 	.db #0x01
   18C9 FF                 6818 	.db #0xFF
   18CA 01                 6819 	.db #0x01
   18CB FF                 6820 	.db #0xFF
   18CC 01                 6821 	.db #0x01
   18CD FF                 6822 	.db #0xFF
   18CE 03                 6823 	.db #0x03
   18CF FE                 6824 	.db #0xFE
   18D0 02                 6825 	.db #0x02
   18D1 FE                 6826 	.db #0xFE
   18D2 02                 6827 	.db #0x02
   18D3 FF                 6828 	.db #0xFF
   18D4 03                 6829 	.db #0x03
   18D5 FF                 6830 	.db #0xFF
   18D6 00                 6831 	.db #0x00
   18D7 FF                 6832 	.db #0xFF
   18D8 00                 6833 	.db #0x00
   18D9 FF                 6834 	.db #0xFF
   18DA 00                 6835 	.db #0x00
   18DB 00                 6836 	.db #0x00
   18DC 00                 6837 	.db #0x00
   18DD 00                 6838 	.db #0x00
   18DE 00                 6839 	.db #0x00
   18DF 00                 6840 	.db #0x00
   18E0 00                 6841 	.db #0x00
   18E1 00                 6842 	.db #0x00
   18E2 00                 6843 	.db #0x00
   18E3 00                 6844 	.db #0x00
   18E4 00                 6845 	.db #0x00
   18E5 80                 6846 	.db #0x80
   18E6 80                 6847 	.db #0x80
   18E7 C0                 6848 	.db #0xC0
   18E8 C0                 6849 	.db #0xC0
   18E9 E0                 6850 	.db #0xE0
   18EA 60                 6851 	.db #0x60
   18EB 00                 6852 	.db #0x00
   18EC 00                 6853 	.db #0x00
   18ED 00                 6854 	.db #0x00
   18EE 00                 6855 	.db #0x00
   18EF 30                 6856 	.db #0x30
   18F0 30                 6857 	.db #0x30
   18F1 30                 6858 	.db #0x30
   18F2 30                 6859 	.db #0x30
   18F3 00                 6860 	.db #0x00
   18F4 00                 6861 	.db #0x00
   18F5 00                 6862 	.db #0x00
   18F6 00                 6863 	.db #0x00
   18F7 00                 6864 	.db #0x00
   18F8 00                 6865 	.db #0x00
   18F9 00                 6866 	.db #0x00
   18FA 00                 6867 	.db #0x00
   18FB 3F                 6868 	.db #0x3F
   18FC 08                 6869 	.db #0x08
   18FD 3F                 6870 	.db #0x3F
   18FE 08                 6871 	.db #0x08
   18FF 1F                 6872 	.db #0x1F
   1900 08                 6873 	.db #0x08
   1901 1F                 6874 	.db #0x1F
   1902 08                 6875 	.db #0x08
   1903 3F                 6876 	.db #0x3F
   1904 08                 6877 	.db #0x08
   1905 3F                 6878 	.db #0x3F
   1906 18                 6879 	.db #0x18
   1907 3F                 6880 	.db #0x3F
   1908 30                 6881 	.db #0x30
   1909 7F                 6882 	.db #0x7F
   190A 60                 6883 	.db #0x60
   190B FF                 6884 	.db #0xFF
   190C 00                 6885 	.db #0x00
   190D FF                 6886 	.db #0xFF
   190E 00                 6887 	.db #0x00
   190F FF                 6888 	.db #0xFF
   1910 00                 6889 	.db #0x00
   1911 FF                 6890 	.db #0xFF
   1912 00                 6891 	.db #0x00
   1913 FF                 6892 	.db #0xFF
   1914 00                 6893 	.db #0x00
   1915 FF                 6894 	.db #0xFF
   1916 00                 6895 	.db #0x00
   1917 FF                 6896 	.db #0xFF
   1918 06                 6897 	.db #0x06
   1919 FF                 6898 	.db #0xFF
   191A 1C                 6899 	.db #0x1C
   191B F6                 6900 	.db #0xF6
   191C 66                 6901 	.db #0x66
   191D F6                 6902 	.db #0xF6
   191E 36                 6903 	.db #0x36
   191F F8                 6904 	.db #0xF8
   1920 18                 6905 	.db #0x18
   1921 FC                 6906 	.db #0xFC
   1922 0C                 6907 	.db #0x0C
   1923 FF                 6908 	.db #0xFF
   1924 07                 6909 	.db #0x07
   1925 FF                 6910 	.db #0xFF
   1926 04                 6911 	.db #0x04
   1927 FF                 6912 	.db #0xFF
   1928 0C                 6913 	.db #0x0C
   1929 FF                 6914 	.db #0xFF
   192A 1C                 6915 	.db #0x1C
   192B 08                 6916 	.db #0x08
   192C 08                 6917 	.db #0x08
   192D 08                 6918 	.db #0x08
   192E 08                 6919 	.db #0x08
   192F 10                 6920 	.db #0x10
   1930 10                 6921 	.db #0x10
   1931 30                 6922 	.db #0x30
   1932 30                 6923 	.db #0x30
   1933 F8                 6924 	.db #0xF8
   1934 E8                 6925 	.db #0xE8
   1935 FC                 6926 	.db #0xFC
   1936 04                 6927 	.db #0x04
   1937 FC                 6928 	.db #0xFC
   1938 04                 6929 	.db #0x04
   1939 FC                 6930 	.db #0xFC
   193A 04                 6931 	.db #0x04
   193B 01                 6932 	.db #0x01
   193C 01                 6933 	.db #0x01
   193D 01                 6934 	.db #0x01
   193E 01                 6935 	.db #0x01
   193F 01                 6936 	.db #0x01
   1940 01                 6937 	.db #0x01
   1941 01                 6938 	.db #0x01
   1942 01                 6939 	.db #0x01
   1943 01                 6940 	.db #0x01
   1944 01                 6941 	.db #0x01
   1945 00                 6942 	.db #0x00
   1946 00                 6943 	.db #0x00
   1947 00                 6944 	.db #0x00
   1948 00                 6945 	.db #0x00
   1949 00                 6946 	.db #0x00
   194A 00                 6947 	.db #0x00
   194B FF                 6948 	.db #0xFF
   194C 80                 6949 	.db #0x80
   194D FF                 6950 	.db #0xFF
   194E 00                 6951 	.db #0x00
   194F FF                 6952 	.db #0xFF
   1950 00                 6953 	.db #0x00
   1951 FF                 6954 	.db #0xFF
   1952 00                 6955 	.db #0x00
   1953 FF                 6956 	.db #0xFF
   1954 80                 6957 	.db #0x80
   1955 FF                 6958 	.db #0xFF
   1956 90                 6959 	.db #0x90
   1957 7F                 6960 	.db #0x7F
   1958 70                 6961 	.db #0x70
   1959 1F                 6962 	.db #0x1F
   195A 10                 6963 	.db #0x10
   195B FF                 6964 	.db #0xFF
   195C 01                 6965 	.db #0x01
   195D FF                 6966 	.db #0xFF
   195E 01                 6967 	.db #0x01
   195F FF                 6968 	.db #0xFF
   1960 00                 6969 	.db #0x00
   1961 FF                 6970 	.db #0xFF
   1962 00                 6971 	.db #0x00
   1963 FF                 6972 	.db #0xFF
   1964 03                 6973 	.db #0x03
   1965 FF                 6974 	.db #0xFF
   1966 06                 6975 	.db #0x06
   1967 FF                 6976 	.db #0xFF
   1968 0C                 6977 	.db #0x0C
   1969 FF                 6978 	.db #0xFF
   196A 18                 6979 	.db #0x18
   196B FF                 6980 	.db #0xFF
   196C 00                 6981 	.db #0x00
   196D FF                 6982 	.db #0xFF
   196E 00                 6983 	.db #0x00
   196F FF                 6984 	.db #0xFF
   1970 00                 6985 	.db #0x00
   1971 FF                 6986 	.db #0xFF
   1972 00                 6987 	.db #0x00
   1973 FF                 6988 	.db #0xFF
   1974 C0                 6989 	.db #0xC0
   1975 FF                 6990 	.db #0xFF
   1976 78                 6991 	.db #0x78
   1977 FF                 6992 	.db #0xFF
   1978 00                 6993 	.db #0x00
   1979 FF                 6994 	.db #0xFF
   197A 00                 6995 	.db #0x00
   197B F0                 6996 	.db #0xF0
   197C 30                 6997 	.db #0x30
   197D FC                 6998 	.db #0xFC
   197E 1C                 6999 	.db #0x1C
   197F FF                 7000 	.db #0xFF
   1980 03                 7001 	.db #0x03
   1981 FF                 7002 	.db #0xFF
   1982 03                 7003 	.db #0x03
   1983 FF                 7004 	.db #0xFF
   1984 00                 7005 	.db #0x00
   1985 FF                 7006 	.db #0xFF
   1986 00                 7007 	.db #0x00
   1987 FF                 7008 	.db #0xFF
   1988 00                 7009 	.db #0x00
   1989 FF                 7010 	.db #0xFF
   198A 00                 7011 	.db #0x00
   198B 00                 7012 	.db #0x00
   198C 00                 7013 	.db #0x00
   198D 07                 7014 	.db #0x07
   198E 07                 7015 	.db #0x07
   198F FF                 7016 	.db #0xFF
   1990 F8                 7017 	.db #0xF8
   1991 FF                 7018 	.db #0xFF
   1992 F0                 7019 	.db #0xF0
   1993 FF                 7020 	.db #0xFF
   1994 0F                 7021 	.db #0x0F
   1995 FF                 7022 	.db #0xFF
   1996 00                 7023 	.db #0x00
   1997 FF                 7024 	.db #0xFF
   1998 00                 7025 	.db #0x00
   1999 FF                 7026 	.db #0xFF
   199A 00                 7027 	.db #0x00
   199B FF                 7028 	.db #0xFF
   199C C0                 7029 	.db #0xC0
   199D FF                 7030 	.db #0xFF
   199E 80                 7031 	.db #0x80
   199F FF                 7032 	.db #0xFF
   19A0 00                 7033 	.db #0x00
   19A1 FF                 7034 	.db #0xFF
   19A2 C0                 7035 	.db #0xC0
   19A3 FF                 7036 	.db #0xFF
   19A4 80                 7037 	.db #0x80
   19A5 FF                 7038 	.db #0xFF
   19A6 00                 7039 	.db #0x00
   19A7 FF                 7040 	.db #0xFF
   19A8 00                 7041 	.db #0x00
   19A9 FF                 7042 	.db #0xFF
   19AA 00                 7043 	.db #0x00
   19AB FF                 7044 	.db #0xFF
   19AC 70                 7045 	.db #0x70
   19AD FF                 7046 	.db #0xFF
   19AE C0                 7047 	.db #0xC0
   19AF FF                 7048 	.db #0xFF
   19B0 80                 7049 	.db #0x80
   19B1 FF                 7050 	.db #0xFF
   19B2 80                 7051 	.db #0x80
   19B3 FF                 7052 	.db #0xFF
   19B4 80                 7053 	.db #0x80
   19B5 FF                 7054 	.db #0xFF
   19B6 80                 7055 	.db #0x80
   19B7 FF                 7056 	.db #0xFF
   19B8 80                 7057 	.db #0x80
   19B9 FF                 7058 	.db #0xFF
   19BA 80                 7059 	.db #0x80
   19BB FF                 7060 	.db #0xFF
   19BC 18                 7061 	.db #0x18
   19BD FF                 7062 	.db #0xFF
   19BE 30                 7063 	.db #0x30
   19BF FF                 7064 	.db #0xFF
   19C0 20                 7065 	.db #0x20
   19C1 FF                 7066 	.db #0xFF
   19C2 20                 7067 	.db #0x20
   19C3 FF                 7068 	.db #0xFF
   19C4 30                 7069 	.db #0x30
   19C5 FF                 7070 	.db #0xFF
   19C6 1C                 7071 	.db #0x1C
   19C7 FF                 7072 	.db #0xFF
   19C8 00                 7073 	.db #0x00
   19C9 FF                 7074 	.db #0xFF
   19CA 00                 7075 	.db #0x00
   19CB FC                 7076 	.db #0xFC
   19CC 04                 7077 	.db #0x04
   19CD FC                 7078 	.db #0xFC
   19CE 7C                 7079 	.db #0x7C
   19CF FE                 7080 	.db #0xFE
   19D0 06                 7081 	.db #0x06
   19D1 FF                 7082 	.db #0xFF
   19D2 01                 7083 	.db #0x01
   19D3 FF                 7084 	.db #0xFF
   19D4 01                 7085 	.db #0x01
   19D5 FF                 7086 	.db #0xFF
   19D6 01                 7087 	.db #0x01
   19D7 FF                 7088 	.db #0xFF
   19D8 03                 7089 	.db #0x03
   19D9 FE                 7090 	.db #0xFE
   19DA 02                 7091 	.db #0x02
   19DB 1F                 7092 	.db #0x1F
   19DC 10                 7093 	.db #0x10
   19DD 1F                 7094 	.db #0x1F
   19DE 10                 7095 	.db #0x10
   19DF 1F                 7096 	.db #0x1F
   19E0 10                 7097 	.db #0x10
   19E1 1F                 7098 	.db #0x1F
   19E2 10                 7099 	.db #0x10
   19E3 1F                 7100 	.db #0x1F
   19E4 10                 7101 	.db #0x10
   19E5 1F                 7102 	.db #0x1F
   19E6 10                 7103 	.db #0x10
   19E7 1F                 7104 	.db #0x1F
   19E8 10                 7105 	.db #0x10
   19E9 1F                 7106 	.db #0x1F
   19EA 10                 7107 	.db #0x10
   19EB FF                 7108 	.db #0xFF
   19EC 10                 7109 	.db #0x10
   19ED FF                 7110 	.db #0xFF
   19EE 10                 7111 	.db #0x10
   19EF FF                 7112 	.db #0xFF
   19F0 10                 7113 	.db #0x10
   19F1 FF                 7114 	.db #0xFF
   19F2 10                 7115 	.db #0x10
   19F3 FF                 7116 	.db #0xFF
   19F4 18                 7117 	.db #0x18
   19F5 FF                 7118 	.db #0xFF
   19F6 08                 7119 	.db #0x08
   19F7 FF                 7120 	.db #0xFF
   19F8 0C                 7121 	.db #0x0C
   19F9 FF                 7122 	.db #0xFF
   19FA 06                 7123 	.db #0x06
   19FB FF                 7124 	.db #0xFF
   19FC 00                 7125 	.db #0x00
   19FD FF                 7126 	.db #0xFF
   19FE 00                 7127 	.db #0x00
   19FF FF                 7128 	.db #0xFF
   1A00 00                 7129 	.db #0x00
   1A01 FF                 7130 	.db #0xFF
   1A02 FC                 7131 	.db #0xFC
   1A03 FF                 7132 	.db #0xFF
   1A04 47                 7133 	.db #0x47
   1A05 E7                 7134 	.db #0xE7
   1A06 40                 7135 	.db #0x40
   1A07 E0                 7136 	.db #0xE0
   1A08 60                 7137 	.db #0x60
   1A09 F0                 7138 	.db #0xF0
   1A0A 30                 7139 	.db #0x30
   1A0B FF                 7140 	.db #0xFF
   1A0C 00                 7141 	.db #0x00
   1A0D FF                 7142 	.db #0xFF
   1A0E 00                 7143 	.db #0x00
   1A0F FF                 7144 	.db #0xFF
   1A10 0C                 7145 	.db #0x0C
   1A11 FF                 7146 	.db #0xFF
   1A12 07                 7147 	.db #0x07
   1A13 FF                 7148 	.db #0xFF
   1A14 00                 7149 	.db #0x00
   1A15 FF                 7150 	.db #0xFF
   1A16 E0                 7151 	.db #0xE0
   1A17 7F                 7152 	.db #0x7F
   1A18 38                 7153 	.db #0x38
   1A19 1F                 7154 	.db #0x1F
   1A1A 0F                 7155 	.db #0x0F
   1A1B FF                 7156 	.db #0xFF
   1A1C 00                 7157 	.db #0x00
   1A1D FF                 7158 	.db #0xFF
   1A1E 00                 7159 	.db #0x00
   1A1F FF                 7160 	.db #0xFF
   1A20 00                 7161 	.db #0x00
   1A21 FF                 7162 	.db #0xFF
   1A22 80                 7163 	.db #0x80
   1A23 FF                 7164 	.db #0xFF
   1A24 F8                 7165 	.db #0xF8
   1A25 FF                 7166 	.db #0xFF
   1A26 07                 7167 	.db #0x07
   1A27 FF                 7168 	.db #0xFF
   1A28 01                 7169 	.db #0x01
   1A29 FF                 7170 	.db #0xFF
   1A2A 80                 7171 	.db #0x80
   1A2B FF                 7172 	.db #0xFF
   1A2C 01                 7173 	.db #0x01
   1A2D FF                 7174 	.db #0xFF
   1A2E 02                 7175 	.db #0x02
   1A2F FF                 7176 	.db #0xFF
   1A30 01                 7177 	.db #0x01
   1A31 FF                 7178 	.db #0xFF
   1A32 00                 7179 	.db #0x00
   1A33 FF                 7180 	.db #0xFF
   1A34 00                 7181 	.db #0x00
   1A35 FF                 7182 	.db #0xFF
   1A36 00                 7183 	.db #0x00
   1A37 FF                 7184 	.db #0xFF
   1A38 F0                 7185 	.db #0xF0
   1A39 FF                 7186 	.db #0xFF
   1A3A 0E                 7187 	.db #0x0E
   1A3B FF                 7188 	.db #0xFF
   1A3C 80                 7189 	.db #0x80
   1A3D FF                 7190 	.db #0xFF
   1A3E 00                 7191 	.db #0x00
   1A3F FF                 7192 	.db #0xFF
   1A40 F0                 7193 	.db #0xF0
   1A41 FF                 7194 	.db #0xFF
   1A42 0F                 7195 	.db #0x0F
   1A43 FF                 7196 	.db #0xFF
   1A44 00                 7197 	.db #0x00
   1A45 FF                 7198 	.db #0xFF
   1A46 00                 7199 	.db #0x00
   1A47 FF                 7200 	.db #0xFF
   1A48 00                 7201 	.db #0x00
   1A49 FF                 7202 	.db #0xFF
   1A4A 00                 7203 	.db #0x00
   1A4B FF                 7204 	.db #0xFF
   1A4C 00                 7205 	.db #0x00
   1A4D FF                 7206 	.db #0xFF
   1A4E 00                 7207 	.db #0x00
   1A4F FF                 7208 	.db #0xFF
   1A50 00                 7209 	.db #0x00
   1A51 FF                 7210 	.db #0xFF
   1A52 C0                 7211 	.db #0xC0
   1A53 FF                 7212 	.db #0xFF
   1A54 7F                 7213 	.db #0x7F
   1A55 FE                 7214 	.db #0xFE
   1A56 06                 7215 	.db #0x06
   1A57 FF                 7216 	.db #0xFF
   1A58 01                 7217 	.db #0x01
   1A59 FF                 7218 	.db #0xFF
   1A5A 00                 7219 	.db #0x00
   1A5B FE                 7220 	.db #0xFE
   1A5C 06                 7221 	.db #0x06
   1A5D FE                 7222 	.db #0xFE
   1A5E 06                 7223 	.db #0x06
   1A5F FC                 7224 	.db #0xFC
   1A60 04                 7225 	.db #0x04
   1A61 FC                 7226 	.db #0xFC
   1A62 0C                 7227 	.db #0x0C
   1A63 F8                 7228 	.db #0xF8
   1A64 F8                 7229 	.db #0xF8
   1A65 00                 7230 	.db #0x00
   1A66 00                 7231 	.db #0x00
   1A67 00                 7232 	.db #0x00
   1A68 00                 7233 	.db #0x00
   1A69 80                 7234 	.db #0x80
   1A6A 80                 7235 	.db #0x80
   1A6B 1F                 7236 	.db #0x1F
   1A6C 10                 7237 	.db #0x10
   1A6D 1F                 7238 	.db #0x1F
   1A6E 10                 7239 	.db #0x10
   1A6F 1F                 7240 	.db #0x1F
   1A70 10                 7241 	.db #0x10
   1A71 1F                 7242 	.db #0x1F
   1A72 10                 7243 	.db #0x10
   1A73 1F                 7244 	.db #0x1F
   1A74 10                 7245 	.db #0x10
   1A75 3F                 7246 	.db #0x3F
   1A76 30                 7247 	.db #0x30
   1A77 BF                 7248 	.db #0xBF
   1A78 B0                 7249 	.db #0xB0
   1A79 7F                 7250 	.db #0x7F
   1A7A 70                 7251 	.db #0x70
   1A7B FF                 7252 	.db #0xFF
   1A7C 03                 7253 	.db #0x03
   1A7D FF                 7254 	.db #0xFF
   1A7E 01                 7255 	.db #0x01
   1A7F FF                 7256 	.db #0xFF
   1A80 00                 7257 	.db #0x00
   1A81 FF                 7258 	.db #0xFF
   1A82 00                 7259 	.db #0x00
   1A83 FF                 7260 	.db #0xFF
   1A84 00                 7261 	.db #0x00
   1A85 FF                 7262 	.db #0xFF
   1A86 00                 7263 	.db #0x00
   1A87 FF                 7264 	.db #0xFF
   1A88 00                 7265 	.db #0x00
   1A89 FF                 7266 	.db #0xFF
   1A8A 00                 7267 	.db #0x00
   1A8B F8                 7268 	.db #0xF8
   1A8C 18                 7269 	.db #0x18
   1A8D FE                 7270 	.db #0xFE
   1A8E 8E                 7271 	.db #0x8E
   1A8F FF                 7272 	.db #0xFF
   1A90 87                 7273 	.db #0x87
   1A91 FF                 7274 	.db #0xFF
   1A92 40                 7275 	.db #0x40
   1A93 FF                 7276 	.db #0xFF
   1A94 00                 7277 	.db #0x00
   1A95 FF                 7278 	.db #0xFF
   1A96 00                 7279 	.db #0x00
   1A97 FF                 7280 	.db #0xFF
   1A98 00                 7281 	.db #0x00
   1A99 FF                 7282 	.db #0xFF
   1A9A 00                 7283 	.db #0x00
   1A9B 0F                 7284 	.db #0x0F
   1A9C 02                 7285 	.db #0x02
   1A9D 02                 7286 	.db #0x02
   1A9E 02                 7287 	.db #0x02
   1A9F 82                 7288 	.db #0x82
   1AA0 82                 7289 	.db #0x82
   1AA1 E2                 7290 	.db #0xE2
   1AA2 E2                 7291 	.db #0xE2
   1AA3 FB                 7292 	.db #0xFB
   1AA4 3B                 7293 	.db #0x3B
   1AA5 FF                 7294 	.db #0xFF
   1AA6 0F                 7295 	.db #0x0F
   1AA7 FF                 7296 	.db #0xFF
   1AA8 01                 7297 	.db #0x01
   1AA9 FF                 7298 	.db #0xFF
   1AAA 00                 7299 	.db #0x00
   1AAB FF                 7300 	.db #0xFF
   1AAC F0                 7301 	.db #0xF0
   1AAD FF                 7302 	.db #0xFF
   1AAE 1F                 7303 	.db #0x1F
   1AAF 1F                 7304 	.db #0x1F
   1AB0 00                 7305 	.db #0x00
   1AB1 00                 7306 	.db #0x00
   1AB2 00                 7307 	.db #0x00
   1AB3 00                 7308 	.db #0x00
   1AB4 00                 7309 	.db #0x00
   1AB5 00                 7310 	.db #0x00
   1AB6 00                 7311 	.db #0x00
   1AB7 E0                 7312 	.db #0xE0
   1AB8 E0                 7313 	.db #0xE0
   1AB9 FE                 7314 	.db #0xFE
   1ABA 3E                 7315 	.db #0x3E
   1ABB FF                 7316 	.db #0xFF
   1ABC 00                 7317 	.db #0x00
   1ABD FF                 7318 	.db #0xFF
   1ABE C0                 7319 	.db #0xC0
   1ABF FF                 7320 	.db #0xFF
   1AC0 7F                 7321 	.db #0x7F
   1AC1 7F                 7322 	.db #0x7F
   1AC2 10                 7323 	.db #0x10
   1AC3 10                 7324 	.db #0x10
   1AC4 10                 7325 	.db #0x10
   1AC5 10                 7326 	.db #0x10
   1AC6 10                 7327 	.db #0x10
   1AC7 18                 7328 	.db #0x18
   1AC8 18                 7329 	.db #0x18
   1AC9 08                 7330 	.db #0x08
   1ACA 08                 7331 	.db #0x08
   1ACB FF                 7332 	.db #0xFF
   1ACC 00                 7333 	.db #0x00
   1ACD FF                 7334 	.db #0xFF
   1ACE 00                 7335 	.db #0x00
   1ACF FF                 7336 	.db #0xFF
   1AD0 80                 7337 	.db #0x80
   1AD1 FF                 7338 	.db #0xFF
   1AD2 7F                 7339 	.db #0x7F
   1AD3 7F                 7340 	.db #0x7F
   1AD4 18                 7341 	.db #0x18
   1AD5 0C                 7342 	.db #0x0C
   1AD6 0C                 7343 	.db #0x0C
   1AD7 04                 7344 	.db #0x04
   1AD8 04                 7345 	.db #0x04
   1AD9 06                 7346 	.db #0x06
   1ADA 06                 7347 	.db #0x06
   1ADB FF                 7348 	.db #0xFF
   1ADC 00                 7349 	.db #0x00
   1ADD FF                 7350 	.db #0xFF
   1ADE 00                 7351 	.db #0x00
   1ADF FF                 7352 	.db #0xFF
   1AE0 01                 7353 	.db #0x01
   1AE1 FE                 7354 	.db #0xFE
   1AE2 FE                 7355 	.db #0xFE
   1AE3 FE                 7356 	.db #0xFE
   1AE4 02                 7357 	.db #0x02
   1AE5 02                 7358 	.db #0x02
   1AE6 02                 7359 	.db #0x02
   1AE7 03                 7360 	.db #0x03
   1AE8 03                 7361 	.db #0x03
   1AE9 0F                 7362 	.db #0x0F
   1AEA 0E                 7363 	.db #0x0E
   1AEB 80                 7364 	.db #0x80
   1AEC 80                 7365 	.db #0x80
   1AED 80                 7366 	.db #0x80
   1AEE 80                 7367 	.db #0x80
   1AEF 00                 7368 	.db #0x00
   1AF0 00                 7369 	.db #0x00
   1AF1 00                 7370 	.db #0x00
   1AF2 00                 7371 	.db #0x00
   1AF3 00                 7372 	.db #0x00
   1AF4 00                 7373 	.db #0x00
   1AF5 00                 7374 	.db #0x00
   1AF6 00                 7375 	.db #0x00
   1AF7 80                 7376 	.db #0x80
   1AF8 80                 7377 	.db #0x80
   1AF9 C0                 7378 	.db #0xC0
   1AFA C0                 7379 	.db #0xC0
   1AFB 00                 7380 	.db #0x00
   1AFC 00                 7381 	.db #0x00
   1AFD 00                 7382 	.db #0x00
   1AFE 00                 7383 	.db #0x00
   1AFF 00                 7384 	.db #0x00
   1B00 00                 7385 	.db #0x00
   1B01 00                 7386 	.db #0x00
   1B02 00                 7387 	.db #0x00
   1B03 00                 7388 	.db #0x00
   1B04 00                 7389 	.db #0x00
   1B05 00                 7390 	.db #0x00
   1B06 00                 7391 	.db #0x00
   1B07 00                 7392 	.db #0x00
   1B08 00                 7393 	.db #0x00
   1B09 01                 7394 	.db #0x01
   1B0A 01                 7395 	.db #0x01
   1B0B 3F                 7396 	.db #0x3F
   1B0C 30                 7397 	.db #0x30
   1B0D 3F                 7398 	.db #0x3F
   1B0E 38                 7399 	.db #0x38
   1B0F 2F                 7400 	.db #0x2F
   1B10 3E                 7401 	.db #0x3E
   1B11 3F                 7402 	.db #0x3F
   1B12 23                 7403 	.db #0x23
   1B13 3F                 7404 	.db #0x3F
   1B14 20                 7405 	.db #0x20
   1B15 3F                 7406 	.db #0x3F
   1B16 20                 7407 	.db #0x20
   1B17 3F                 7408 	.db #0x3F
   1B18 20                 7409 	.db #0x20
   1B19 FF                 7410 	.db #0xFF
   1B1A E0                 7411 	.db #0xE0
   1B1B FF                 7412 	.db #0xFF
   1B1C 00                 7413 	.db #0x00
   1B1D FF                 7414 	.db #0xFF
   1B1E 00                 7415 	.db #0x00
   1B1F FF                 7416 	.db #0xFF
   1B20 00                 7417 	.db #0x00
   1B21 FF                 7418 	.db #0xFF
   1B22 80                 7419 	.db #0x80
   1B23 FF                 7420 	.db #0xFF
   1B24 C0                 7421 	.db #0xC0
   1B25 FF                 7422 	.db #0xFF
   1B26 03                 7423 	.db #0x03
   1B27 FF                 7424 	.db #0xFF
   1B28 00                 7425 	.db #0x00
   1B29 FF                 7426 	.db #0xFF
   1B2A 00                 7427 	.db #0x00
   1B2B FF                 7428 	.db #0xFF
   1B2C 00                 7429 	.db #0x00
   1B2D FF                 7430 	.db #0xFF
   1B2E 00                 7431 	.db #0x00
   1B2F FF                 7432 	.db #0xFF
   1B30 00                 7433 	.db #0x00
   1B31 FF                 7434 	.db #0xFF
   1B32 00                 7435 	.db #0x00
   1B33 FF                 7436 	.db #0xFF
   1B34 00                 7437 	.db #0x00
   1B35 FF                 7438 	.db #0xFF
   1B36 C0                 7439 	.db #0xC0
   1B37 FF                 7440 	.db #0xFF
   1B38 7C                 7441 	.db #0x7C
   1B39 FF                 7442 	.db #0xFF
   1B3A 07                 7443 	.db #0x07
   1B3B FF                 7444 	.db #0xFF
   1B3C 00                 7445 	.db #0x00
   1B3D FF                 7446 	.db #0xFF
   1B3E 00                 7447 	.db #0x00
   1B3F FF                 7448 	.db #0xFF
   1B40 00                 7449 	.db #0x00
   1B41 FF                 7450 	.db #0xFF
   1B42 00                 7451 	.db #0x00
   1B43 FF                 7452 	.db #0xFF
   1B44 00                 7453 	.db #0x00
   1B45 FF                 7454 	.db #0xFF
   1B46 00                 7455 	.db #0x00
   1B47 FF                 7456 	.db #0xFF
   1B48 00                 7457 	.db #0x00
   1B49 FF                 7458 	.db #0xFF
   1B4A 80                 7459 	.db #0x80
   1B4B FF                 7460 	.db #0xFF
   1B4C 03                 7461 	.db #0x03
   1B4D FF                 7462 	.db #0xFF
   1B4E 00                 7463 	.db #0x00
   1B4F FF                 7464 	.db #0xFF
   1B50 00                 7465 	.db #0x00
   1B51 FF                 7466 	.db #0xFF
   1B52 00                 7467 	.db #0x00
   1B53 FF                 7468 	.db #0xFF
   1B54 00                 7469 	.db #0x00
   1B55 FF                 7470 	.db #0xFF
   1B56 00                 7471 	.db #0x00
   1B57 FF                 7472 	.db #0xFF
   1B58 00                 7473 	.db #0x00
   1B59 FF                 7474 	.db #0xFF
   1B5A 00                 7475 	.db #0x00
   1B5B F8                 7476 	.db #0xF8
   1B5C F8                 7477 	.db #0xF8
   1B5D FF                 7478 	.db #0xFF
   1B5E 1F                 7479 	.db #0x1F
   1B5F FF                 7480 	.db #0xFF
   1B60 00                 7481 	.db #0x00
   1B61 FF                 7482 	.db #0xFF
   1B62 00                 7483 	.db #0x00
   1B63 FF                 7484 	.db #0xFF
   1B64 00                 7485 	.db #0x00
   1B65 FF                 7486 	.db #0xFF
   1B66 00                 7487 	.db #0x00
   1B67 FF                 7488 	.db #0xFF
   1B68 00                 7489 	.db #0x00
   1B69 FF                 7490 	.db #0xFF
   1B6A 00                 7491 	.db #0x00
   1B6B 03                 7492 	.db #0x03
   1B6C 03                 7493 	.db #0x03
   1B6D FF                 7494 	.db #0xFF
   1B6E FF                 7495 	.db #0xFF
   1B6F FF                 7496 	.db #0xFF
   1B70 00                 7497 	.db #0x00
   1B71 FF                 7498 	.db #0xFF
   1B72 00                 7499 	.db #0x00
   1B73 FF                 7500 	.db #0xFF
   1B74 00                 7501 	.db #0x00
   1B75 FF                 7502 	.db #0xFF
   1B76 00                 7503 	.db #0x00
   1B77 FF                 7504 	.db #0xFF
   1B78 00                 7505 	.db #0x00
   1B79 FF                 7506 	.db #0xFF
   1B7A 00                 7507 	.db #0x00
   1B7B 3F                 7508 	.db #0x3F
   1B7C 38                 7509 	.db #0x38
   1B7D FF                 7510 	.db #0xFF
   1B7E E0                 7511 	.db #0xE0
   1B7F FF                 7512 	.db #0xFF
   1B80 00                 7513 	.db #0x00
   1B81 FF                 7514 	.db #0xFF
   1B82 00                 7515 	.db #0x00
   1B83 FF                 7516 	.db #0xFF
   1B84 08                 7517 	.db #0x08
   1B85 FF                 7518 	.db #0xFF
   1B86 07                 7519 	.db #0x07
   1B87 FF                 7520 	.db #0xFF
   1B88 00                 7521 	.db #0x00
   1B89 FF                 7522 	.db #0xFF
   1B8A 00                 7523 	.db #0x00
   1B8B C0                 7524 	.db #0xC0
   1B8C 40                 7525 	.db #0x40
   1B8D C0                 7526 	.db #0xC0
   1B8E 40                 7527 	.db #0x40
   1B8F C0                 7528 	.db #0xC0
   1B90 40                 7529 	.db #0x40
   1B91 E0                 7530 	.db #0xE0
   1B92 60                 7531 	.db #0x60
   1B93 F8                 7532 	.db #0xF8
   1B94 98                 7533 	.db #0x98
   1B95 FC                 7534 	.db #0xFC
   1B96 0C                 7535 	.db #0x0C
   1B97 FE                 7536 	.db #0xFE
   1B98 06                 7537 	.db #0x06
   1B99 FF                 7538 	.db #0xFF
   1B9A 03                 7539 	.db #0x03
   1B9B 00                 7540 	.db #0x00
   1B9C 00                 7541 	.db #0x00
   1B9D 00                 7542 	.db #0x00
   1B9E 00                 7543 	.db #0x00
   1B9F 00                 7544 	.db #0x00
   1BA0 00                 7545 	.db #0x00
   1BA1 00                 7546 	.db #0x00
   1BA2 00                 7547 	.db #0x00
   1BA3 00                 7548 	.db #0x00
   1BA4 00                 7549 	.db #0x00
   1BA5 00                 7550 	.db #0x00
   1BA6 00                 7551 	.db #0x00
   1BA7 01                 7552 	.db #0x01
   1BA8 01                 7553 	.db #0x01
   1BA9 00                 7554 	.db #0x00
   1BAA 00                 7555 	.db #0x00
   1BAB FF                 7556 	.db #0xFF
   1BAC E0                 7557 	.db #0xE0
   1BAD 7F                 7558 	.db #0x7F
   1BAE 70                 7559 	.db #0x70
   1BAF 7F                 7560 	.db #0x7F
   1BB0 4C                 7561 	.db #0x4C
   1BB1 7F                 7562 	.db #0x7F
   1BB2 47                 7563 	.db #0x47
   1BB3 7F                 7564 	.db #0x7F
   1BB4 40                 7565 	.db #0x40
   1BB5 7F                 7566 	.db #0x7F
   1BB6 40                 7567 	.db #0x40
   1BB7 FF                 7568 	.db #0xFF
   1BB8 E0                 7569 	.db #0xE0
   1BB9 7F                 7570 	.db #0x7F
   1BBA 7E                 7571 	.db #0x7E
   1BBB FC                 7572 	.db #0xFC
   1BBC 04                 7573 	.db #0x04
   1BBD FC                 7574 	.db #0xFC
   1BBE 04                 7575 	.db #0x04
   1BBF FC                 7576 	.db #0xFC
   1BC0 04                 7577 	.db #0x04
   1BC1 FE                 7578 	.db #0xFE
   1BC2 06                 7579 	.db #0x06
   1BC3 FE                 7580 	.db #0xFE
   1BC4 02                 7581 	.db #0x02
   1BC5 FF                 7582 	.db #0xFF
   1BC6 03                 7583 	.db #0x03
   1BC7 FF                 7584 	.db #0xFF
   1BC8 01                 7585 	.db #0x01
   1BC9 FF                 7586 	.db #0xFF
   1BCA 01                 7587 	.db #0x01
   1BCB 7F                 7588 	.db #0x7F
   1BCC 70                 7589 	.db #0x70
   1BCD 1F                 7590 	.db #0x1F
   1BCE 1C                 7591 	.db #0x1C
   1BCF 07                 7592 	.db #0x07
   1BD0 07                 7593 	.db #0x07
   1BD1 01                 7594 	.db #0x01
   1BD2 01                 7595 	.db #0x01
   1BD3 00                 7596 	.db #0x00
   1BD4 00                 7597 	.db #0x00
   1BD5 00                 7598 	.db #0x00
   1BD6 00                 7599 	.db #0x00
   1BD7 00                 7600 	.db #0x00
   1BD8 00                 7601 	.db #0x00
   1BD9 80                 7602 	.db #0x80
   1BDA 80                 7603 	.db #0x80
   1BDB FF                 7604 	.db #0xFF
   1BDC 00                 7605 	.db #0x00
   1BDD FF                 7606 	.db #0xFF
   1BDE 00                 7607 	.db #0x00
   1BDF 7F                 7608 	.db #0x7F
   1BE0 80                 7609 	.db #0x80
   1BE1 FF                 7610 	.db #0xFF
   1BE2 F0                 7611 	.db #0xF0
   1BE3 1F                 7612 	.db #0x1F
   1BE4 1E                 7613 	.db #0x1E
   1BE5 03                 7614 	.db #0x03
   1BE6 03                 7615 	.db #0x03
   1BE7 00                 7616 	.db #0x00
   1BE8 00                 7617 	.db #0x00
   1BE9 00                 7618 	.db #0x00
   1BEA 00                 7619 	.db #0x00
   1BEB FF                 7620 	.db #0xFF
   1BEC 00                 7621 	.db #0x00
   1BED FF                 7622 	.db #0xFF
   1BEE 00                 7623 	.db #0x00
   1BEF FF                 7624 	.db #0xFF
   1BF0 00                 7625 	.db #0x00
   1BF1 FF                 7626 	.db #0xFF
   1BF2 00                 7627 	.db #0x00
   1BF3 FF                 7628 	.db #0xFF
   1BF4 00                 7629 	.db #0x00
   1BF5 FF                 7630 	.db #0xFF
   1BF6 80                 7631 	.db #0x80
   1BF7 7F                 7632 	.db #0x7F
   1BF8 70                 7633 	.db #0x70
   1BF9 1F                 7634 	.db #0x1F
   1BFA 18                 7635 	.db #0x18
   1BFB FF                 7636 	.db #0xFF
   1BFC 01                 7637 	.db #0x01
   1BFD FF                 7638 	.db #0xFF
   1BFE 00                 7639 	.db #0x00
   1BFF FF                 7640 	.db #0xFF
   1C00 00                 7641 	.db #0x00
   1C01 FF                 7642 	.db #0xFF
   1C02 00                 7643 	.db #0x00
   1C03 FF                 7644 	.db #0xFF
   1C04 00                 7645 	.db #0x00
   1C05 FF                 7646 	.db #0xFF
   1C06 00                 7647 	.db #0x00
   1C07 FF                 7648 	.db #0xFF
   1C08 00                 7649 	.db #0x00
   1C09 FF                 7650 	.db #0xFF
   1C0A 03                 7651 	.db #0x03
   1C0B 80                 7652 	.db #0x80
   1C0C 80                 7653 	.db #0x80
   1C0D C0                 7654 	.db #0xC0
   1C0E C0                 7655 	.db #0xC0
   1C0F C0                 7656 	.db #0xC0
   1C10 40                 7657 	.db #0x40
   1C11 E0                 7658 	.db #0xE0
   1C12 60                 7659 	.db #0x60
   1C13 E0                 7660 	.db #0xE0
   1C14 20                 7661 	.db #0x20
   1C15 E0                 7662 	.db #0xE0
   1C16 20                 7663 	.db #0x20
   1C17 E0                 7664 	.db #0xE0
   1C18 60                 7665 	.db #0x60
   1C19 C0                 7666 	.db #0xC0
   1C1A C0                 7667 	.db #0xC0
   1C1B 00                 7668 	.db #0x00
   1C1C 00                 7669 	.db #0x00
   1C1D 00                 7670 	.db #0x00
   1C1E 00                 7671 	.db #0x00
   1C1F 00                 7672 	.db #0x00
   1C20 00                 7673 	.db #0x00
   1C21 00                 7674 	.db #0x00
   1C22 00                 7675 	.db #0x00
   1C23 00                 7676 	.db #0x00
   1C24 00                 7677 	.db #0x00
   1C25 1F                 7678 	.db #0x1F
   1C26 1F                 7679 	.db #0x1F
   1C27 3F                 7680 	.db #0x3F
   1C28 3F                 7681 	.db #0x3F
   1C29 3F                 7682 	.db #0x3F
   1C2A 3F                 7683 	.db #0x3F
   1C2B 00                 7684 	.db #0x00
   1C2C 00                 7685 	.db #0x00
   1C2D 00                 7686 	.db #0x00
   1C2E 00                 7687 	.db #0x00
   1C2F 00                 7688 	.db #0x00
   1C30 00                 7689 	.db #0x00
   1C31 00                 7690 	.db #0x00
   1C32 00                 7691 	.db #0x00
   1C33 00                 7692 	.db #0x00
   1C34 00                 7693 	.db #0x00
   1C35 FE                 7694 	.db #0xFE
   1C36 FE                 7695 	.db #0xFE
   1C37 FF                 7696 	.db #0xFF
   1C38 FF                 7697 	.db #0xFF
   1C39 FF                 7698 	.db #0xFF
   1C3A FF                 7699 	.db #0xFF
   1C3B 00                 7700 	.db #0x00
   1C3C 00                 7701 	.db #0x00
   1C3D 00                 7702 	.db #0x00
   1C3E 00                 7703 	.db #0x00
   1C3F 00                 7704 	.db #0x00
   1C40 00                 7705 	.db #0x00
   1C41 00                 7706 	.db #0x00
   1C42 00                 7707 	.db #0x00
   1C43 00                 7708 	.db #0x00
   1C44 00                 7709 	.db #0x00
   1C45 07                 7710 	.db #0x07
   1C46 07                 7711 	.db #0x07
   1C47 FF                 7712 	.db #0xFF
   1C48 FF                 7713 	.db #0xFF
   1C49 FF                 7714 	.db #0xFF
   1C4A FF                 7715 	.db #0xFF
   1C4B 7F                 7716 	.db #0x7F
   1C4C 47                 7717 	.db #0x47
   1C4D 7F                 7718 	.db #0x7F
   1C4E 40                 7719 	.db #0x40
   1C4F 7F                 7720 	.db #0x7F
   1C50 40                 7721 	.db #0x40
   1C51 7F                 7722 	.db #0x7F
   1C52 40                 7723 	.db #0x40
   1C53 FF                 7724 	.db #0xFF
   1C54 C0                 7725 	.db #0xC0
   1C55 FF                 7726 	.db #0xFF
   1C56 F0                 7727 	.db #0xF0
   1C57 FF                 7728 	.db #0xFF
   1C58 F8                 7729 	.db #0xF8
   1C59 FF                 7730 	.db #0xFF
   1C5A F8                 7731 	.db #0xF8
   1C5B 80                 7732 	.db #0x80
   1C5C 80                 7733 	.db #0x80
   1C5D 80                 7734 	.db #0x80
   1C5E 80                 7735 	.db #0x80
   1C5F C0                 7736 	.db #0xC0
   1C60 C0                 7737 	.db #0xC0
   1C61 C0                 7738 	.db #0xC0
   1C62 40                 7739 	.db #0x40
   1C63 E0                 7740 	.db #0xE0
   1C64 60                 7741 	.db #0x60
   1C65 E0                 7742 	.db #0xE0
   1C66 60                 7743 	.db #0x60
   1C67 F0                 7744 	.db #0xF0
   1C68 70                 7745 	.db #0x70
   1C69 F0                 7746 	.db #0xF0
   1C6A 30                 7747 	.db #0x30
   1C6B 0F                 7748 	.db #0x0F
   1C6C 0E                 7749 	.db #0x0E
   1C6D 03                 7750 	.db #0x03
   1C6E 03                 7751 	.db #0x03
   1C6F 00                 7752 	.db #0x00
   1C70 00                 7753 	.db #0x00
   1C71 00                 7754 	.db #0x00
   1C72 00                 7755 	.db #0x00
   1C73 00                 7756 	.db #0x00
   1C74 00                 7757 	.db #0x00
   1C75 00                 7758 	.db #0x00
   1C76 00                 7759 	.db #0x00
   1C77 00                 7760 	.db #0x00
   1C78 00                 7761 	.db #0x00
   1C79 0F                 7762 	.db #0x0F
   1C7A 0F                 7763 	.db #0x0F
   1C7B FF                 7764 	.db #0xFF
   1C7C 00                 7765 	.db #0x00
   1C7D FF                 7766 	.db #0xFF
   1C7E C0                 7767 	.db #0xC0
   1C7F 7F                 7768 	.db #0x7F
   1C80 7F                 7769 	.db #0x7F
   1C81 01                 7770 	.db #0x01
   1C82 01                 7771 	.db #0x01
   1C83 00                 7772 	.db #0x00
   1C84 00                 7773 	.db #0x00
   1C85 00                 7774 	.db #0x00
   1C86 00                 7775 	.db #0x00
   1C87 00                 7776 	.db #0x00
   1C88 00                 7777 	.db #0x00
   1C89 80                 7778 	.db #0x80
   1C8A 80                 7779 	.db #0x80
   1C8B FF                 7780 	.db #0xFF
   1C8C 00                 7781 	.db #0x00
   1C8D FF                 7782 	.db #0xFF
   1C8E 00                 7783 	.db #0x00
   1C8F FF                 7784 	.db #0xFF
   1C90 00                 7785 	.db #0x00
   1C91 FF                 7786 	.db #0xFF
   1C92 E1                 7787 	.db #0xE1
   1C93 3F                 7788 	.db #0x3F
   1C94 3F                 7789 	.db #0x3F
   1C95 00                 7790 	.db #0x00
   1C96 00                 7791 	.db #0x00
   1C97 00                 7792 	.db #0x00
   1C98 00                 7793 	.db #0x00
   1C99 00                 7794 	.db #0x00
   1C9A 00                 7795 	.db #0x00
   1C9B FE                 7796 	.db #0xFE
   1C9C 0E                 7797 	.db #0x0E
   1C9D F8                 7798 	.db #0xF8
   1C9E 38                 7799 	.db #0x38
   1C9F E0                 7800 	.db #0xE0
   1CA0 E0                 7801 	.db #0xE0
   1CA1 80                 7802 	.db #0x80
   1CA2 80                 7803 	.db #0x80
   1CA3 00                 7804 	.db #0x00
   1CA4 00                 7805 	.db #0x00
   1CA5 00                 7806 	.db #0x00
   1CA6 00                 7807 	.db #0x00
   1CA7 00                 7808 	.db #0x00
   1CA8 00                 7809 	.db #0x00
   1CA9 00                 7810 	.db #0x00
   1CAA 00                 7811 	.db #0x00
   1CAB                    7812 _splash_map:
   1CAB 00                 7813 	.db #0x00
   1CAC 01                 7814 	.db #0x01
   1CAD 02                 7815 	.db #0x02
   1CAE 03                 7816 	.db #0x03
   1CAF 04                 7817 	.db #0x04
   1CB0 05                 7818 	.db #0x05
   1CB1 06                 7819 	.db #0x06
   1CB2 00                 7820 	.db #0x00
   1CB3 07                 7821 	.db #0x07
   1CB4 00                 7822 	.db #0x00
   1CB5 05                 7823 	.db #0x05
   1CB6 08                 7824 	.db #0x08
   1CB7 09                 7825 	.db #0x09
   1CB8 0A                 7826 	.db #0x0A
   1CB9 00                 7827 	.db #0x00
   1CBA 0B                 7828 	.db #0x0B
   1CBB 0C                 7829 	.db #0x0C
   1CBC 0D                 7830 	.db #0x0D
   1CBD 0E                 7831 	.db #0x0E
   1CBE 00                 7832 	.db #0x00
   1CBF 00                 7833 	.db #0x00
   1CC0 0F                 7834 	.db #0x0F
   1CC1 10                 7835 	.db #0x10
   1CC2 11                 7836 	.db #0x11
   1CC3 12                 7837 	.db #0x12
   1CC4 13                 7838 	.db #0x13
   1CC5 14                 7839 	.db #0x14
   1CC6 00                 7840 	.db #0x00
   1CC7 15                 7841 	.db #0x15
   1CC8 00                 7842 	.db #0x00
   1CC9 16                 7843 	.db #0x16
   1CCA 17                 7844 	.db #0x17
   1CCB 18                 7845 	.db #0x18
   1CCC 19                 7846 	.db #0x19
   1CCD 00                 7847 	.db #0x00
   1CCE 1A                 7848 	.db #0x1A
   1CCF 1B                 7849 	.db #0x1B
   1CD0 1C                 7850 	.db #0x1C
   1CD1 1D                 7851 	.db #0x1D
   1CD2 00                 7852 	.db #0x00
   1CD3 00                 7853 	.db #0x00
   1CD4 1E                 7854 	.db #0x1E
   1CD5 1F                 7855 	.db #0x1F
   1CD6 20                 7856 	.db #0x20
   1CD7 21                 7857 	.db #0x21
   1CD8 22                 7858 	.db #0x22
   1CD9 23                 7859 	.db #0x23
   1CDA 24                 7860 	.db #0x24
   1CDB 25                 7861 	.db #0x25
   1CDC 26                 7862 	.db #0x26
   1CDD 00                 7863 	.db #0x00
   1CDE 27                 7864 	.db #0x27
   1CDF 28                 7865 	.db #0x28
   1CE0 25                 7866 	.db #0x25
   1CE1 00                 7867 	.db #0x00
   1CE2 29                 7868 	.db #0x29
   1CE3 2A                 7869 	.db #0x2A
   1CE4 2B                 7870 	.db #0x2B
   1CE5 2C                 7871 	.db #0x2C
   1CE6 00                 7872 	.db #0x00
   1CE7 00                 7873 	.db #0x00
   1CE8 2D                 7874 	.db #0x2D
   1CE9 2E                 7875 	.db #0x2E
   1CEA 2F                 7876 	.db #0x2F
   1CEB 30                 7877 	.db #0x30
   1CEC 31                 7878 	.db #0x31
   1CED 32                 7879 	.db #0x32
   1CEE 33                 7880 	.db #0x33
   1CEF 34                 7881 	.db #0x34
   1CF0 35                 7882 	.db #0x35
   1CF1 36                 7883 	.db #0x36
   1CF2 37                 7884 	.db #0x37
   1CF3 38                 7885 	.db #0x38
   1CF4 39                 7886 	.db #0x39
   1CF5 3A                 7887 	.db #0x3A
   1CF6 3B                 7888 	.db #0x3B
   1CF7 00                 7889 	.db #0x00
   1CF8 3C                 7890 	.db #0x3C
   1CF9 3D                 7891 	.db #0x3D
   1CFA 00                 7892 	.db #0x00
   1CFB 00                 7893 	.db #0x00
   1CFC 3E                 7894 	.db #0x3E
   1CFD 3F                 7895 	.db #0x3F
   1CFE 40                 7896 	.db #0x40
   1CFF 41                 7897 	.db #0x41
   1D00 42                 7898 	.db #0x42
   1D01 43                 7899 	.db #0x43
   1D02 44                 7900 	.db #0x44
   1D03 45                 7901 	.db #0x45
   1D04 46                 7902 	.db #0x46
   1D05 47                 7903 	.db #0x47
   1D06 48                 7904 	.db #0x48
   1D07 49                 7905 	.db #0x49
   1D08 4A                 7906 	.db #0x4A
   1D09 00                 7907 	.db #0x00
   1D0A 4B                 7908 	.db #0x4B
   1D0B 4C                 7909 	.db #0x4C
   1D0C 4D                 7910 	.db #0x4D
   1D0D 4E                 7911 	.db #0x4E
   1D0E 00                 7912 	.db #0x00
   1D0F 00                 7913 	.db #0x00
   1D10 00                 7914 	.db #0x00
   1D11 4F                 7915 	.db #0x4F
   1D12 50                 7916 	.db #0x50
   1D13 51                 7917 	.db #0x51
   1D14 52                 7918 	.db #0x52
   1D15 53                 7919 	.db #0x53
   1D16 54                 7920 	.db #0x54
   1D17 55                 7921 	.db #0x55
   1D18 56                 7922 	.db #0x56
   1D19 57                 7923 	.db #0x57
   1D1A 58                 7924 	.db #0x58
   1D1B 59                 7925 	.db #0x59
   1D1C 5A                 7926 	.db #0x5A
   1D1D 5B                 7927 	.db #0x5B
   1D1E 56                 7928 	.db #0x56
   1D1F 5C                 7929 	.db #0x5C
   1D20 00                 7930 	.db #0x00
   1D21 00                 7931 	.db #0x00
   1D22 00                 7932 	.db #0x00
   1D23 00                 7933 	.db #0x00
   1D24 00                 7934 	.db #0x00
   1D25 5D                 7935 	.db #0x5D
   1D26 5E                 7936 	.db #0x5E
   1D27 5F                 7937 	.db #0x5F
   1D28 60                 7938 	.db #0x60
   1D29 61                 7939 	.db #0x61
   1D2A 62                 7940 	.db #0x62
   1D2B 63                 7941 	.db #0x63
   1D2C 64                 7942 	.db #0x64
   1D2D 65                 7943 	.db #0x65
   1D2E 66                 7944 	.db #0x66
   1D2F 67                 7945 	.db #0x67
   1D30 68                 7946 	.db #0x68
   1D31 69                 7947 	.db #0x69
   1D32 6A                 7948 	.db #0x6A
   1D33 6B                 7949 	.db #0x6B
   1D34 6C                 7950 	.db #0x6C
   1D35 00                 7951 	.db #0x00
   1D36 00                 7952 	.db #0x00
   1D37 00                 7953 	.db #0x00
   1D38 00                 7954 	.db #0x00
   1D39 00                 7955 	.db #0x00
   1D3A 00                 7956 	.db #0x00
   1D3B 00                 7957 	.db #0x00
   1D3C 6D                 7958 	.db #0x6D
   1D3D 6E                 7959 	.db #0x6E
   1D3E 6F                 7960 	.db #0x6F
   1D3F 70                 7961 	.db #0x70
   1D40 71                 7962 	.db #0x71
   1D41 72                 7963 	.db #0x72
   1D42 73                 7964 	.db #0x73
   1D43 74                 7965 	.db #0x74
   1D44 75                 7966 	.db #0x75
   1D45 00                 7967 	.db #0x00
   1D46 00                 7968 	.db #0x00
   1D47 00                 7969 	.db #0x00
   1D48 00                 7970 	.db #0x00
   1D49 00                 7971 	.db #0x00
   1D4A 00                 7972 	.db #0x00
   1D4B 00                 7973 	.db #0x00
   1D4C 00                 7974 	.db #0x00
   1D4D 00                 7975 	.db #0x00
   1D4E 00                 7976 	.db #0x00
   1D4F 00                 7977 	.db #0x00
   1D50 76                 7978 	.db #0x76
   1D51 77                 7979 	.db #0x77
   1D52 78                 7980 	.db #0x78
   1D53 79                 7981 	.db #0x79
   1D54 7A                 7982 	.db #0x7A
   1D55 7A                 7983 	.db #0x7A
   1D56 7A                 7984 	.db #0x7A
   1D57 7A                 7985 	.db #0x7A
   1D58 7B                 7986 	.db #0x7B
   1D59 7C                 7987 	.db #0x7C
   1D5A 7D                 7988 	.db #0x7D
   1D5B 00                 7989 	.db #0x00
   1D5C 00                 7990 	.db #0x00
   1D5D 00                 7991 	.db #0x00
   1D5E 00                 7992 	.db #0x00
   1D5F 00                 7993 	.db #0x00
   1D60 00                 7994 	.db #0x00
   1D61 00                 7995 	.db #0x00
   1D62 00                 7996 	.db #0x00
   1D63 00                 7997 	.db #0x00
   1D64 7E                 7998 	.db #0x7E
   1D65 7F                 7999 	.db #0x7F
   1D66 80                 8000 	.db #0x80
   1D67 81                 8001 	.db #0x81
   1D68 82                 8002 	.db #0x82
   1D69 83                 8003 	.db #0x83
   1D6A 84                 8004 	.db #0x84
   1D6B 85                 8005 	.db #0x85
   1D6C 86                 8006 	.db #0x86
   1D6D 87                 8007 	.db #0x87
   1D6E 88                 8008 	.db #0x88
   1D6F 00                 8009 	.db #0x00
   1D70 00                 8010 	.db #0x00
   1D71 00                 8011 	.db #0x00
   1D72 00                 8012 	.db #0x00
   1D73 00                 8013 	.db #0x00
   1D74 00                 8014 	.db #0x00
   1D75 00                 8015 	.db #0x00
   1D76 00                 8016 	.db #0x00
   1D77 00                 8017 	.db #0x00
   1D78 89                 8018 	.db #0x89
   1D79 8A                 8019 	.db #0x8A
   1D7A 8B                 8020 	.db #0x8B
   1D7B 8C                 8021 	.db #0x8C
   1D7C 8D                 8022 	.db #0x8D
   1D7D 8E                 8023 	.db #0x8E
   1D7E 8F                 8024 	.db #0x8F
   1D7F 90                 8025 	.db #0x90
   1D80 91                 8026 	.db #0x91
   1D81 92                 8027 	.db #0x92
   1D82 93                 8028 	.db #0x93
   1D83 00                 8029 	.db #0x00
   1D84 00                 8030 	.db #0x00
   1D85 00                 8031 	.db #0x00
   1D86 00                 8032 	.db #0x00
   1D87 00                 8033 	.db #0x00
   1D88 00                 8034 	.db #0x00
   1D89 00                 8035 	.db #0x00
   1D8A 00                 8036 	.db #0x00
   1D8B 00                 8037 	.db #0x00
   1D8C 94                 8038 	.db #0x94
   1D8D 95                 8039 	.db #0x95
   1D8E 96                 8040 	.db #0x96
   1D8F 97                 8041 	.db #0x97
   1D90 98                 8042 	.db #0x98
   1D91 99                 8043 	.db #0x99
   1D92 9A                 8044 	.db #0x9A
   1D93 9B                 8045 	.db #0x9B
   1D94 9C                 8046 	.db #0x9C
   1D95 9D                 8047 	.db #0x9D
   1D96 00                 8048 	.db #0x00
   1D97 00                 8049 	.db #0x00
   1D98 00                 8050 	.db #0x00
   1D99 00                 8051 	.db #0x00
   1D9A 00                 8052 	.db #0x00
   1D9B 00                 8053 	.db #0x00
   1D9C 00                 8054 	.db #0x00
   1D9D 00                 8055 	.db #0x00
   1D9E 00                 8056 	.db #0x00
   1D9F 00                 8057 	.db #0x00
   1DA0 9E                 8058 	.db #0x9E
   1DA1 9F                 8059 	.db #0x9F
   1DA2 A0                 8060 	.db #0xA0
   1DA3 A1                 8061 	.db #0xA1
   1DA4 A2                 8062 	.db #0xA2
   1DA5 A3                 8063 	.db #0xA3
   1DA6 A4                 8064 	.db #0xA4
   1DA7 A5                 8065 	.db #0xA5
   1DA8 A6                 8066 	.db #0xA6
   1DA9 A7                 8067 	.db #0xA7
   1DAA 00                 8068 	.db #0x00
   1DAB 00                 8069 	.db #0x00
   1DAC 00                 8070 	.db #0x00
   1DAD 00                 8071 	.db #0x00
   1DAE 00                 8072 	.db #0x00
   1DAF 00                 8073 	.db #0x00
   1DB0 00                 8074 	.db #0x00
   1DB1 00                 8075 	.db #0x00
   1DB2 00                 8076 	.db #0x00
   1DB3 00                 8077 	.db #0x00
   1DB4 00                 8078 	.db #0x00
   1DB5 A8                 8079 	.db #0xA8
   1DB6 A9                 8080 	.db #0xA9
   1DB7 AA                 8081 	.db #0xAA
   1DB8 AB                 8082 	.db #0xAB
   1DB9 AC                 8083 	.db #0xAC
   1DBA AD                 8084 	.db #0xAD
   1DBB AE                 8085 	.db #0xAE
   1DBC AF                 8086 	.db #0xAF
   1DBD B0                 8087 	.db #0xB0
   1DBE 00                 8088 	.db #0x00
   1DBF 00                 8089 	.db #0x00
   1DC0 00                 8090 	.db #0x00
   1DC1 00                 8091 	.db #0x00
   1DC2 00                 8092 	.db #0x00
   1DC3 00                 8093 	.db #0x00
   1DC4 00                 8094 	.db #0x00
   1DC5 00                 8095 	.db #0x00
   1DC6 00                 8096 	.db #0x00
   1DC7 00                 8097 	.db #0x00
   1DC8 00                 8098 	.db #0x00
   1DC9 B1                 8099 	.db #0xB1
   1DCA B2                 8100 	.db #0xB2
   1DCB B3                 8101 	.db #0xB3
   1DCC B4                 8102 	.db #0xB4
   1DCD B5                 8103 	.db #0xB5
   1DCE B6                 8104 	.db #0xB6
   1DCF B7                 8105 	.db #0xB7
   1DD0 B8                 8106 	.db #0xB8
   1DD1 B9                 8107 	.db #0xB9
   1DD2 00                 8108 	.db #0x00
   1DD3 00                 8109 	.db #0x00
   1DD4 00                 8110 	.db #0x00
   1DD5 00                 8111 	.db #0x00
   1DD6 00                 8112 	.db #0x00
   1DD7 00                 8113 	.db #0x00
   1DD8 00                 8114 	.db #0x00
   1DD9 00                 8115 	.db #0x00
   1DDA 00                 8116 	.db #0x00
   1DDB 00                 8117 	.db #0x00
   1DDC BA                 8118 	.db #0xBA
   1DDD BB                 8119 	.db #0xBB
   1DDE BC                 8120 	.db #0xBC
   1DDF BD                 8121 	.db #0xBD
   1DE0 BE                 8122 	.db #0xBE
   1DE1 BF                 8123 	.db #0xBF
   1DE2 C0                 8124 	.db #0xC0
   1DE3 C1                 8125 	.db #0xC1
   1DE4 C2                 8126 	.db #0xC2
   1DE5 C3                 8127 	.db #0xC3
   1DE6 00                 8128 	.db #0x00
   1DE7 00                 8129 	.db #0x00
   1DE8 00                 8130 	.db #0x00
   1DE9 00                 8131 	.db #0x00
   1DEA 00                 8132 	.db #0x00
   1DEB 00                 8133 	.db #0x00
   1DEC 00                 8134 	.db #0x00
   1DED 00                 8135 	.db #0x00
   1DEE 00                 8136 	.db #0x00
   1DEF 00                 8137 	.db #0x00
   1DF0 C4                 8138 	.db #0xC4
   1DF1 C5                 8139 	.db #0xC5
   1DF2 7A                 8140 	.db #0x7A
   1DF3 C6                 8141 	.db #0xC6
   1DF4 C7                 8142 	.db #0xC7
   1DF5 C8                 8143 	.db #0xC8
   1DF6 C9                 8144 	.db #0xC9
   1DF7 7A                 8145 	.db #0x7A
   1DF8 7A                 8146 	.db #0x7A
   1DF9 CA                 8147 	.db #0xCA
   1DFA CB                 8148 	.db #0xCB
   1DFB 00                 8149 	.db #0x00
   1DFC 00                 8150 	.db #0x00
   1DFD 00                 8151 	.db #0x00
   1DFE 00                 8152 	.db #0x00
   1DFF 00                 8153 	.db #0x00
   1E00 00                 8154 	.db #0x00
   1E01 00                 8155 	.db #0x00
   1E02 CC                 8156 	.db #0xCC
   1E03 CD                 8157 	.db #0xCD
   1E04 CE                 8158 	.db #0xCE
   1E05 CF                 8159 	.db #0xCF
   1E06 7A                 8160 	.db #0x7A
   1E07 7A                 8161 	.db #0x7A
   1E08 D0                 8162 	.db #0xD0
   1E09 00                 8163 	.db #0x00
   1E0A D1                 8164 	.db #0xD1
   1E0B D2                 8165 	.db #0xD2
   1E0C D3                 8166 	.db #0xD3
   1E0D D4                 8167 	.db #0xD4
   1E0E 00                 8168 	.db #0x00
   1E0F 00                 8169 	.db #0x00
   1E10 00                 8170 	.db #0x00
   1E11 00                 8171 	.db #0x00
   1E12 00                 8172 	.db #0x00
   1E13                    8173 _credits_data:
   1E13 00                 8174 	.db #0x00
   1E14 00                 8175 	.db #0x00
   1E15 00                 8176 	.db #0x00
   1E16 00                 8177 	.db #0x00
   1E17 00                 8178 	.db #0x00
   1E18 00                 8179 	.db #0x00
   1E19 00                 8180 	.db #0x00
   1E1A 00                 8181 	.db #0x00
   1E1B 00                 8182 	.db #0x00
   1E1C 00                 8183 	.db #0x00
   1E1D 00                 8184 	.db #0x00
   1E1E 00                 8185 	.db #0x00
   1E1F 00                 8186 	.db #0x00
   1E20 00                 8187 	.db #0x00
   1E21 00                 8188 	.db #0x00
   1E22 00                 8189 	.db #0x00
   1E23 00                 8190 	.db #0x00
   1E24 00                 8191 	.db #0x00
   1E25 00                 8192 	.db #0x00
   1E26 00                 8193 	.db #0x00
   1E27 00                 8194 	.db #0x00
   1E28 00                 8195 	.db #0x00
   1E29 0F                 8196 	.db #0x0F
   1E2A 0F                 8197 	.db #0x0F
   1E2B 0F                 8198 	.db #0x0F
   1E2C 0F                 8199 	.db #0x0F
   1E2D 0F                 8200 	.db #0x0F
   1E2E 00                 8201 	.db #0x00
   1E2F 00                 8202 	.db #0x00
   1E30 00                 8203 	.db #0x00
   1E31 00                 8204 	.db #0x00
   1E32 00                 8205 	.db #0x00
   1E33 00                 8206 	.db #0x00
   1E34 00                 8207 	.db #0x00
   1E35 00                 8208 	.db #0x00
   1E36 00                 8209 	.db #0x00
   1E37 00                 8210 	.db #0x00
   1E38 00                 8211 	.db #0x00
   1E39 FF                 8212 	.db #0xFF
   1E3A FF                 8213 	.db #0xFF
   1E3B FF                 8214 	.db #0xFF
   1E3C FF                 8215 	.db #0xFF
   1E3D FF                 8216 	.db #0xFF
   1E3E 0C                 8217 	.db #0x0C
   1E3F 0C                 8218 	.db #0x0C
   1E40 0C                 8219 	.db #0x0C
   1E41 0C                 8220 	.db #0x0C
   1E42 0C                 8221 	.db #0x0C
   1E43 00                 8222 	.db #0x00
   1E44 00                 8223 	.db #0x00
   1E45 00                 8224 	.db #0x00
   1E46 00                 8225 	.db #0x00
   1E47 00                 8226 	.db #0x00
   1E48 00                 8227 	.db #0x00
   1E49 E0                 8228 	.db #0xE0
   1E4A E0                 8229 	.db #0xE0
   1E4B E0                 8230 	.db #0xE0
   1E4C E0                 8231 	.db #0xE0
   1E4D E0                 8232 	.db #0xE0
   1E4E 00                 8233 	.db #0x00
   1E4F 00                 8234 	.db #0x00
   1E50 00                 8235 	.db #0x00
   1E51 00                 8236 	.db #0x00
   1E52 00                 8237 	.db #0x00
   1E53 00                 8238 	.db #0x00
   1E54 00                 8239 	.db #0x00
   1E55 00                 8240 	.db #0x00
   1E56 00                 8241 	.db #0x00
   1E57 00                 8242 	.db #0x00
   1E58 00                 8243 	.db #0x00
   1E59 1F                 8244 	.db #0x1F
   1E5A 1F                 8245 	.db #0x1F
   1E5B 1F                 8246 	.db #0x1F
   1E5C 1F                 8247 	.db #0x1F
   1E5D 1B                 8248 	.db #0x1B
   1E5E 07                 8249 	.db #0x07
   1E5F 07                 8250 	.db #0x07
   1E60 03                 8251 	.db #0x03
   1E61 07                 8252 	.db #0x07
   1E62 03                 8253 	.db #0x03
   1E63 00                 8254 	.db #0x00
   1E64 00                 8255 	.db #0x00
   1E65 00                 8256 	.db #0x00
   1E66 00                 8257 	.db #0x00
   1E67 00                 8258 	.db #0x00
   1E68 00                 8259 	.db #0x00
   1E69 00                 8260 	.db #0x00
   1E6A 00                 8261 	.db #0x00
   1E6B 00                 8262 	.db #0x00
   1E6C 00                 8263 	.db #0x00
   1E6D 01                 8264 	.db #0x01
   1E6E 01                 8265 	.db #0x01
   1E6F 01                 8266 	.db #0x01
   1E70 01                 8267 	.db #0x01
   1E71 01                 8268 	.db #0x01
   1E72 01                 8269 	.db #0x01
   1E73 00                 8270 	.db #0x00
   1E74 00                 8271 	.db #0x00
   1E75 00                 8272 	.db #0x00
   1E76 00                 8273 	.db #0x00
   1E77 00                 8274 	.db #0x00
   1E78 00                 8275 	.db #0x00
   1E79 00                 8276 	.db #0x00
   1E7A 00                 8277 	.db #0x00
   1E7B 00                 8278 	.db #0x00
   1E7C 00                 8279 	.db #0x00
   1E7D F0                 8280 	.db #0xF0
   1E7E F0                 8281 	.db #0xF0
   1E7F F0                 8282 	.db #0xF0
   1E80 F0                 8283 	.db #0xF0
   1E81 B0                 8284 	.db #0xB0
   1E82 C0                 8285 	.db #0xC0
   1E83 0C                 8286 	.db #0x0C
   1E84 0C                 8287 	.db #0x0C
   1E85 0C                 8288 	.db #0x0C
   1E86 0C                 8289 	.db #0x0C
   1E87 0C                 8290 	.db #0x0C
   1E88 0C                 8291 	.db #0x0C
   1E89 0C                 8292 	.db #0x0C
   1E8A 0C                 8293 	.db #0x0C
   1E8B 0C                 8294 	.db #0x0C
   1E8C 0C                 8295 	.db #0x0C
   1E8D 0C                 8296 	.db #0x0C
   1E8E 0C                 8297 	.db #0x0C
   1E8F 0C                 8298 	.db #0x0C
   1E90 0C                 8299 	.db #0x0C
   1E91 0C                 8300 	.db #0x0C
   1E92 0C                 8301 	.db #0x0C
   1E93 00                 8302 	.db #0x00
   1E94 00                 8303 	.db #0x00
   1E95 00                 8304 	.db #0x00
   1E96 00                 8305 	.db #0x00
   1E97 00                 8306 	.db #0x00
   1E98 00                 8307 	.db #0x00
   1E99 00                 8308 	.db #0x00
   1E9A 00                 8309 	.db #0x00
   1E9B 00                 8310 	.db #0x00
   1E9C 00                 8311 	.db #0x00
   1E9D 00                 8312 	.db #0x00
   1E9E 00                 8313 	.db #0x00
   1E9F 00                 8314 	.db #0x00
   1EA0 00                 8315 	.db #0x00
   1EA1 03                 8316 	.db #0x03
   1EA2 03                 8317 	.db #0x03
   1EA3 FF                 8318 	.db #0xFF
   1EA4 7F                 8319 	.db #0x7F
   1EA5 FF                 8320 	.db #0xFF
   1EA6 7F                 8321 	.db #0x7F
   1EA7 7F                 8322 	.db #0x7F
   1EA8 00                 8323 	.db #0x00
   1EA9 00                 8324 	.db #0x00
   1EAA 00                 8325 	.db #0x00
   1EAB 00                 8326 	.db #0x00
   1EAC 00                 8327 	.db #0x00
   1EAD FF                 8328 	.db #0xFF
   1EAE 7F                 8329 	.db #0x7F
   1EAF FF                 8330 	.db #0xFF
   1EB0 7F                 8331 	.db #0x7F
   1EB1 80                 8332 	.db #0x80
   1EB2 00                 8333 	.db #0x00
   1EB3 F8                 8334 	.db #0xF8
   1EB4 F8                 8335 	.db #0xF8
   1EB5 F8                 8336 	.db #0xF8
   1EB6 F8                 8337 	.db #0xF8
   1EB7 FE                 8338 	.db #0xFE
   1EB8 00                 8339 	.db #0x00
   1EB9 07                 8340 	.db #0x07
   1EBA 06                 8341 	.db #0x06
   1EBB 07                 8342 	.db #0x07
   1EBC 06                 8343 	.db #0x06
   1EBD FF                 8344 	.db #0xFF
   1EBE FE                 8345 	.db #0xFE
   1EBF FF                 8346 	.db #0xFF
   1EC0 FE                 8347 	.db #0xFE
   1EC1 07                 8348 	.db #0x07
   1EC2 06                 8349 	.db #0x06
   1EC3 00                 8350 	.db #0x00
   1EC4 00                 8351 	.db #0x00
   1EC5 00                 8352 	.db #0x00
   1EC6 00                 8353 	.db #0x00
   1EC7 06                 8354 	.db #0x06
   1EC8 00                 8355 	.db #0x00
   1EC9 07                 8356 	.db #0x07
   1ECA 06                 8357 	.db #0x06
   1ECB 07                 8358 	.db #0x07
   1ECC 06                 8359 	.db #0x06
   1ECD 07                 8360 	.db #0x07
   1ECE 06                 8361 	.db #0x06
   1ECF 07                 8362 	.db #0x07
   1ED0 06                 8363 	.db #0x06
   1ED1 07                 8364 	.db #0x07
   1ED2 06                 8365 	.db #0x06
   1ED3 FF                 8366 	.db #0xFF
   1ED4 FF                 8367 	.db #0xFF
   1ED5 FF                 8368 	.db #0xFF
   1ED6 FF                 8369 	.db #0xFF
   1ED7 FF                 8370 	.db #0xFF
   1ED8 00                 8371 	.db #0x00
   1ED9 00                 8372 	.db #0x00
   1EDA 00                 8373 	.db #0x00
   1EDB 00                 8374 	.db #0x00
   1EDC 00                 8375 	.db #0x00
   1EDD 00                 8376 	.db #0x00
   1EDE 00                 8377 	.db #0x00
   1EDF 00                 8378 	.db #0x00
   1EE0 00                 8379 	.db #0x00
   1EE1 00                 8380 	.db #0x00
   1EE2 00                 8381 	.db #0x00
   1EE3 FE                 8382 	.db #0xFE
   1EE4 FE                 8383 	.db #0xFE
   1EE5 FE                 8384 	.db #0xFE
   1EE6 FE                 8385 	.db #0xFE
   1EE7 FF                 8386 	.db #0xFF
   1EE8 00                 8387 	.db #0x00
   1EE9 01                 8388 	.db #0x01
   1EEA 01                 8389 	.db #0x01
   1EEB 01                 8390 	.db #0x01
   1EEC 01                 8391 	.db #0x01
   1EED 00                 8392 	.db #0x00
   1EEE 00                 8393 	.db #0x00
   1EEF 00                 8394 	.db #0x00
   1EF0 00                 8395 	.db #0x00
   1EF1 01                 8396 	.db #0x01
   1EF2 01                 8397 	.db #0x01
   1EF3 01                 8398 	.db #0x01
   1EF4 01                 8399 	.db #0x01
   1EF5 01                 8400 	.db #0x01
   1EF6 01                 8401 	.db #0x01
   1EF7 8F                 8402 	.db #0x8F
   1EF8 0C                 8403 	.db #0x0C
   1EF9 8E                 8404 	.db #0x8E
   1EFA 8C                 8405 	.db #0x8C
   1EFB 8E                 8406 	.db #0x8E
   1EFC 8C                 8407 	.db #0x8C
   1EFD 0E                 8408 	.db #0x0E
   1EFE 0C                 8409 	.db #0x0C
   1EFF 0E                 8410 	.db #0x0E
   1F00 0C                 8411 	.db #0x0C
   1F01 8E                 8412 	.db #0x8E
   1F02 8C                 8413 	.db #0x8C
   1F03 FC                 8414 	.db #0xFC
   1F04 FC                 8415 	.db #0xFC
   1F05 FC                 8416 	.db #0xFC
   1F06 FC                 8417 	.db #0xFC
   1F07 FF                 8418 	.db #0xFF
   1F08 03                 8419 	.db #0x03
   1F09 03                 8420 	.db #0x03
   1F0A 03                 8421 	.db #0x03
   1F0B 03                 8422 	.db #0x03
   1F0C 03                 8423 	.db #0x03
   1F0D 03                 8424 	.db #0x03
   1F0E 03                 8425 	.db #0x03
   1F0F 03                 8426 	.db #0x03
   1F10 03                 8427 	.db #0x03
   1F11 03                 8428 	.db #0x03
   1F12 03                 8429 	.db #0x03
   1F13 07                 8430 	.db #0x07
   1F14 03                 8431 	.db #0x03
   1F15 07                 8432 	.db #0x07
   1F16 03                 8433 	.db #0x03
   1F17 07                 8434 	.db #0x07
   1F18 03                 8435 	.db #0x03
   1F19 07                 8436 	.db #0x07
   1F1A 03                 8437 	.db #0x03
   1F1B 07                 8438 	.db #0x07
   1F1C 03                 8439 	.db #0x03
   1F1D 07                 8440 	.db #0x07
   1F1E 03                 8441 	.db #0x03
   1F1F 07                 8442 	.db #0x07
   1F20 03                 8443 	.db #0x03
   1F21 07                 8444 	.db #0x07
   1F22 03                 8445 	.db #0x03
   1F23 1F                 8446 	.db #0x1F
   1F24 1F                 8447 	.db #0x1F
   1F25 1F                 8448 	.db #0x1F
   1F26 1F                 8449 	.db #0x1F
   1F27 FF                 8450 	.db #0xFF
   1F28 E0                 8451 	.db #0xE0
   1F29 E0                 8452 	.db #0xE0
   1F2A E0                 8453 	.db #0xE0
   1F2B E0                 8454 	.db #0xE0
   1F2C 00                 8455 	.db #0x00
   1F2D 00                 8456 	.db #0x00
   1F2E 00                 8457 	.db #0x00
   1F2F 00                 8458 	.db #0x00
   1F30 00                 8459 	.db #0x00
   1F31 00                 8460 	.db #0x00
   1F32 00                 8461 	.db #0x00
   1F33 F8                 8462 	.db #0xF8
   1F34 F8                 8463 	.db #0xF8
   1F35 F8                 8464 	.db #0xF8
   1F36 F8                 8465 	.db #0xF8
   1F37 FE                 8466 	.db #0xFE
   1F38 06                 8467 	.db #0x06
   1F39 06                 8468 	.db #0x06
   1F3A 06                 8469 	.db #0x06
   1F3B 06                 8470 	.db #0x06
   1F3C 06                 8471 	.db #0x06
   1F3D 06                 8472 	.db #0x06
   1F3E 06                 8473 	.db #0x06
   1F3F 06                 8474 	.db #0x06
   1F40 06                 8475 	.db #0x06
   1F41 06                 8476 	.db #0x06
   1F42 06                 8477 	.db #0x06
   1F43 01                 8478 	.db #0x01
   1F44 01                 8479 	.db #0x01
   1F45 01                 8480 	.db #0x01
   1F46 01                 8481 	.db #0x01
   1F47 01                 8482 	.db #0x01
   1F48 01                 8483 	.db #0x01
   1F49 01                 8484 	.db #0x01
   1F4A 01                 8485 	.db #0x01
   1F4B 01                 8486 	.db #0x01
   1F4C 00                 8487 	.db #0x00
   1F4D 00                 8488 	.db #0x00
   1F4E 00                 8489 	.db #0x00
   1F4F 00                 8490 	.db #0x00
   1F50 00                 8491 	.db #0x00
   1F51 00                 8492 	.db #0x00
   1F52 00                 8493 	.db #0x00
   1F53 C0                 8494 	.db #0xC0
   1F54 80                 8495 	.db #0x80
   1F55 C0                 8496 	.db #0xC0
   1F56 80                 8497 	.db #0x80
   1F57 C0                 8498 	.db #0xC0
   1F58 80                 8499 	.db #0x80
   1F59 C0                 8500 	.db #0xC0
   1F5A 80                 8501 	.db #0x80
   1F5B BF                 8502 	.db #0xBF
   1F5C 00                 8503 	.db #0x00
   1F5D 3F                 8504 	.db #0x3F
   1F5E 3F                 8505 	.db #0x3F
   1F5F 3F                 8506 	.db #0x3F
   1F60 3F                 8507 	.db #0x3F
   1F61 00                 8508 	.db #0x00
   1F62 00                 8509 	.db #0x00
   1F63 0C                 8510 	.db #0x0C
   1F64 0C                 8511 	.db #0x0C
   1F65 0C                 8512 	.db #0x0C
   1F66 0C                 8513 	.db #0x0C
   1F67 0C                 8514 	.db #0x0C
   1F68 0C                 8515 	.db #0x0C
   1F69 0C                 8516 	.db #0x0C
   1F6A 0C                 8517 	.db #0x0C
   1F6B FC                 8518 	.db #0xFC
   1F6C 00                 8519 	.db #0x00
   1F6D F0                 8520 	.db #0xF0
   1F6E F0                 8521 	.db #0xF0
   1F6F F0                 8522 	.db #0xF0
   1F70 F0                 8523 	.db #0xF0
   1F71 00                 8524 	.db #0x00
   1F72 00                 8525 	.db #0x00
   1F73 03                 8526 	.db #0x03
   1F74 03                 8527 	.db #0x03
   1F75 03                 8528 	.db #0x03
   1F76 03                 8529 	.db #0x03
   1F77 03                 8530 	.db #0x03
   1F78 03                 8531 	.db #0x03
   1F79 03                 8532 	.db #0x03
   1F7A 03                 8533 	.db #0x03
   1F7B 00                 8534 	.db #0x00
   1F7C 00                 8535 	.db #0x00
   1F7D 00                 8536 	.db #0x00
   1F7E 00                 8537 	.db #0x00
   1F7F 00                 8538 	.db #0x00
   1F80 00                 8539 	.db #0x00
   1F81 00                 8540 	.db #0x00
   1F82 00                 8541 	.db #0x00
   1F83 80                 8542 	.db #0x80
   1F84 00                 8543 	.db #0x00
   1F85 80                 8544 	.db #0x80
   1F86 00                 8545 	.db #0x00
   1F87 80                 8546 	.db #0x80
   1F88 00                 8547 	.db #0x00
   1F89 80                 8548 	.db #0x80
   1F8A 00                 8549 	.db #0x00
   1F8B 7F                 8550 	.db #0x7F
   1F8C 00                 8551 	.db #0x00
   1F8D FF                 8552 	.db #0xFF
   1F8E 7F                 8553 	.db #0x7F
   1F8F FF                 8554 	.db #0xFF
   1F90 7F                 8555 	.db #0x7F
   1F91 00                 8556 	.db #0x00
   1F92 00                 8557 	.db #0x00
   1F93 07                 8558 	.db #0x07
   1F94 06                 8559 	.db #0x06
   1F95 07                 8560 	.db #0x07
   1F96 06                 8561 	.db #0x06
   1F97 07                 8562 	.db #0x07
   1F98 06                 8563 	.db #0x06
   1F99 07                 8564 	.db #0x07
   1F9A 06                 8565 	.db #0x06
   1F9B FE                 8566 	.db #0xFE
   1F9C 07                 8567 	.db #0x07
   1F9D FF                 8568 	.db #0xFF
   1F9E FF                 8569 	.db #0xFF
   1F9F FF                 8570 	.db #0xFF
   1FA0 FF                 8571 	.db #0xFF
   1FA1 00                 8572 	.db #0x00
   1FA2 00                 8573 	.db #0x00
   1FA3 07                 8574 	.db #0x07
   1FA4 06                 8575 	.db #0x06
   1FA5 07                 8576 	.db #0x07
   1FA6 06                 8577 	.db #0x06
   1FA7 07                 8578 	.db #0x07
   1FA8 06                 8579 	.db #0x06
   1FA9 07                 8580 	.db #0x07
   1FAA 06                 8581 	.db #0x06
   1FAB C0                 8582 	.db #0xC0
   1FAC 00                 8583 	.db #0x00
   1FAD E0                 8584 	.db #0xE0
   1FAE C0                 8585 	.db #0xC0
   1FAF E0                 8586 	.db #0xE0
   1FB0 C0                 8587 	.db #0xC0
   1FB1 00                 8588 	.db #0x00
   1FB2 00                 8589 	.db #0x00
   1FB3 00                 8590 	.db #0x00
   1FB4 00                 8591 	.db #0x00
   1FB5 00                 8592 	.db #0x00
   1FB6 00                 8593 	.db #0x00
   1FB7 00                 8594 	.db #0x00
   1FB8 00                 8595 	.db #0x00
   1FB9 00                 8596 	.db #0x00
   1FBA 00                 8597 	.db #0x00
   1FBB FF                 8598 	.db #0xFF
   1FBC 00                 8599 	.db #0x00
   1FBD FF                 8600 	.db #0xFF
   1FBE FF                 8601 	.db #0xFF
   1FBF FF                 8602 	.db #0xFF
   1FC0 FF                 8603 	.db #0xFF
   1FC1 00                 8604 	.db #0x00
   1FC2 00                 8605 	.db #0x00
   1FC3 01                 8606 	.db #0x01
   1FC4 01                 8607 	.db #0x01
   1FC5 01                 8608 	.db #0x01
   1FC6 01                 8609 	.db #0x01
   1FC7 01                 8610 	.db #0x01
   1FC8 01                 8611 	.db #0x01
   1FC9 01                 8612 	.db #0x01
   1FCA 01                 8613 	.db #0x01
   1FCB FE                 8614 	.db #0xFE
   1FCC 00                 8615 	.db #0x00
   1FCD FE                 8616 	.db #0xFE
   1FCE FE                 8617 	.db #0xFE
   1FCF FE                 8618 	.db #0xFE
   1FD0 FE                 8619 	.db #0xFE
   1FD1 00                 8620 	.db #0x00
   1FD2 00                 8621 	.db #0x00
   1FD3 8E                 8622 	.db #0x8E
   1FD4 8C                 8623 	.db #0x8C
   1FD5 8E                 8624 	.db #0x8E
   1FD6 8C                 8625 	.db #0x8C
   1FD7 8E                 8626 	.db #0x8E
   1FD8 8C                 8627 	.db #0x8C
   1FD9 8E                 8628 	.db #0x8E
   1FDA 8C                 8629 	.db #0x8C
   1FDB 01                 8630 	.db #0x01
   1FDC 00                 8631 	.db #0x00
   1FDD 01                 8632 	.db #0x01
   1FDE 01                 8633 	.db #0x01
   1FDF 01                 8634 	.db #0x01
   1FE0 01                 8635 	.db #0x01
   1FE1 00                 8636 	.db #0x00
   1FE2 00                 8637 	.db #0x00
   1FE3 03                 8638 	.db #0x03
   1FE4 03                 8639 	.db #0x03
   1FE5 03                 8640 	.db #0x03
   1FE6 03                 8641 	.db #0x03
   1FE7 03                 8642 	.db #0x03
   1FE8 03                 8643 	.db #0x03
   1FE9 03                 8644 	.db #0x03
   1FEA 03                 8645 	.db #0x03
   1FEB FC                 8646 	.db #0xFC
   1FEC 00                 8647 	.db #0x00
   1FED FC                 8648 	.db #0xFC
   1FEE FC                 8649 	.db #0xFC
   1FEF FC                 8650 	.db #0xFC
   1FF0 FC                 8651 	.db #0xFC
   1FF1 00                 8652 	.db #0x00
   1FF2 00                 8653 	.db #0x00
   1FF3 07                 8654 	.db #0x07
   1FF4 03                 8655 	.db #0x03
   1FF5 07                 8656 	.db #0x07
   1FF6 03                 8657 	.db #0x03
   1FF7 07                 8658 	.db #0x07
   1FF8 03                 8659 	.db #0x03
   1FF9 07                 8660 	.db #0x07
   1FFA 03                 8661 	.db #0x03
   1FFB 1B                 8662 	.db #0x1B
   1FFC 07                 8663 	.db #0x07
   1FFD 1F                 8664 	.db #0x1F
   1FFE 1F                 8665 	.db #0x1F
   1FFF 1F                 8666 	.db #0x1F
   2000 1F                 8667 	.db #0x1F
   2001 00                 8668 	.db #0x00
   2002 00                 8669 	.db #0x00
   2003 06                 8670 	.db #0x06
   2004 06                 8671 	.db #0x06
   2005 06                 8672 	.db #0x06
   2006 06                 8673 	.db #0x06
   2007 06                 8674 	.db #0x06
   2008 06                 8675 	.db #0x06
   2009 06                 8676 	.db #0x06
   200A 06                 8677 	.db #0x06
   200B F8                 8678 	.db #0xF8
   200C 00                 8679 	.db #0x00
   200D F8                 8680 	.db #0xF8
   200E F8                 8681 	.db #0xF8
   200F F8                 8682 	.db #0xF8
   2010 F8                 8683 	.db #0xF8
   2011 00                 8684 	.db #0x00
   2012 00                 8685 	.db #0x00
   2013 00                 8686 	.db #0x00
   2014 00                 8687 	.db #0x00
   2015 00                 8688 	.db #0x00
   2016 00                 8689 	.db #0x00
   2017 00                 8690 	.db #0x00
   2018 00                 8691 	.db #0x00
   2019 00                 8692 	.db #0x00
   201A 00                 8693 	.db #0x00
   201B 00                 8694 	.db #0x00
   201C 00                 8695 	.db #0x00
   201D 00                 8696 	.db #0x00
   201E 00                 8697 	.db #0x00
   201F 00                 8698 	.db #0x00
   2020 00                 8699 	.db #0x00
   2021 E0                 8700 	.db #0xE0
   2022 60                 8701 	.db #0x60
   2023 00                 8702 	.db #0x00
   2024 00                 8703 	.db #0x00
   2025 00                 8704 	.db #0x00
   2026 00                 8705 	.db #0x00
   2027 00                 8706 	.db #0x00
   2028 00                 8707 	.db #0x00
   2029 00                 8708 	.db #0x00
   202A 00                 8709 	.db #0x00
   202B 1F                 8710 	.db #0x1F
   202C 0F                 8711 	.db #0x0F
   202D 1F                 8712 	.db #0x1F
   202E 0F                 8713 	.db #0x0F
   202F 0F                 8714 	.db #0x0F
   2030 00                 8715 	.db #0x00
   2031 00                 8716 	.db #0x00
   2032 00                 8717 	.db #0x00
   2033 00                 8718 	.db #0x00
   2034 00                 8719 	.db #0x00
   2035 00                 8720 	.db #0x00
   2036 00                 8721 	.db #0x00
   2037 00                 8722 	.db #0x00
   2038 00                 8723 	.db #0x00
   2039 00                 8724 	.db #0x00
   203A 00                 8725 	.db #0x00
   203B FF                 8726 	.db #0xFF
   203C FF                 8727 	.db #0xFF
   203D FF                 8728 	.db #0xFF
   203E FF                 8729 	.db #0xFF
   203F FF                 8730 	.db #0xFF
   2040 00                 8731 	.db #0x00
   2041 00                 8732 	.db #0x00
   2042 00                 8733 	.db #0x00
   2043 00                 8734 	.db #0x00
   2044 00                 8735 	.db #0x00
   2045 00                 8736 	.db #0x00
   2046 00                 8737 	.db #0x00
   2047 00                 8738 	.db #0x00
   2048 00                 8739 	.db #0x00
   2049 00                 8740 	.db #0x00
   204A 00                 8741 	.db #0x00
   204B 00                 8742 	.db #0x00
   204C 00                 8743 	.db #0x00
   204D 00                 8744 	.db #0x00
   204E 00                 8745 	.db #0x00
   204F C0                 8746 	.db #0xC0
   2050 00                 8747 	.db #0x00
   2051 E0                 8748 	.db #0xE0
   2052 C0                 8749 	.db #0xC0
   2053 00                 8750 	.db #0x00
   2054 00                 8751 	.db #0x00
   2055 00                 8752 	.db #0x00
   2056 00                 8753 	.db #0x00
   2057 00                 8754 	.db #0x00
   2058 00                 8755 	.db #0x00
   2059 00                 8756 	.db #0x00
   205A 00                 8757 	.db #0x00
   205B F8                 8758 	.db #0xF8
   205C F8                 8759 	.db #0xF8
   205D F8                 8760 	.db #0xF8
   205E F8                 8761 	.db #0xF8
   205F DF                 8762 	.db #0xDF
   2060 38                 8763 	.db #0x38
   2061 3F                 8764 	.db #0x3F
   2062 1F                 8765 	.db #0x1F
   2063 00                 8766 	.db #0x00
   2064 00                 8767 	.db #0x00
   2065 00                 8768 	.db #0x00
   2066 00                 8769 	.db #0x00
   2067 00                 8770 	.db #0x00
   2068 00                 8771 	.db #0x00
   2069 00                 8772 	.db #0x00
   206A 00                 8773 	.db #0x00
   206B FE                 8774 	.db #0xFE
   206C FE                 8775 	.db #0xFE
   206D FE                 8776 	.db #0xFE
   206E FE                 8777 	.db #0xFE
   206F FF                 8778 	.db #0xFF
   2070 00                 8779 	.db #0x00
   2071 01                 8780 	.db #0x01
   2072 01                 8781 	.db #0x01
   2073 00                 8782 	.db #0x00
   2074 00                 8783 	.db #0x00
   2075 00                 8784 	.db #0x00
   2076 00                 8785 	.db #0x00
   2077 00                 8786 	.db #0x00
   2078 00                 8787 	.db #0x00
   2079 00                 8788 	.db #0x00
   207A 00                 8789 	.db #0x00
   207B 00                 8790 	.db #0x00
   207C 00                 8791 	.db #0x00
   207D 00                 8792 	.db #0x00
   207E 00                 8793 	.db #0x00
   207F 81                 8794 	.db #0x81
   2080 00                 8795 	.db #0x00
   2081 C1                 8796 	.db #0xC1
   2082 81                 8797 	.db #0x81
   2083 00                 8798 	.db #0x00
   2084 00                 8799 	.db #0x00
   2085 00                 8800 	.db #0x00
   2086 00                 8801 	.db #0x00
   2087 00                 8802 	.db #0x00
   2088 00                 8803 	.db #0x00
   2089 00                 8804 	.db #0x00
   208A 00                 8805 	.db #0x00
   208B 7F                 8806 	.db #0x7F
   208C 3F                 8807 	.db #0x3F
   208D 7F                 8808 	.db #0x7F
   208E 3F                 8809 	.db #0x3F
   208F FF                 8810 	.db #0xFF
   2090 00                 8811 	.db #0x00
   2091 C0                 8812 	.db #0xC0
   2092 80                 8813 	.db #0x80
   2093 00                 8814 	.db #0x00
   2094 00                 8815 	.db #0x00
   2095 00                 8816 	.db #0x00
   2096 00                 8817 	.db #0x00
   2097 00                 8818 	.db #0x00
   2098 00                 8819 	.db #0x00
   2099 00                 8820 	.db #0x00
   209A 00                 8821 	.db #0x00
   209B FC                 8822 	.db #0xFC
   209C FC                 8823 	.db #0xFC
   209D FC                 8824 	.db #0xFC
   209E FC                 8825 	.db #0xFC
   209F FF                 8826 	.db #0xFF
   20A0 00                 8827 	.db #0x00
   20A1 03                 8828 	.db #0x03
   20A2 03                 8829 	.db #0x03
   20A3 E0                 8830 	.db #0xE0
   20A4 60                 8831 	.db #0x60
   20A5 E0                 8832 	.db #0xE0
   20A6 60                 8833 	.db #0x60
   20A7 E0                 8834 	.db #0xE0
   20A8 60                 8835 	.db #0x60
   20A9 E0                 8836 	.db #0xE0
   20AA 60                 8837 	.db #0x60
   20AB E0                 8838 	.db #0xE0
   20AC 60                 8839 	.db #0x60
   20AD E0                 8840 	.db #0xE0
   20AE 60                 8841 	.db #0x60
   20AF 60                 8842 	.db #0x60
   20B0 E0                 8843 	.db #0xE0
   20B1 E0                 8844 	.db #0xE0
   20B2 E0                 8845 	.db #0xE0
   20B3 00                 8846 	.db #0x00
   20B4 00                 8847 	.db #0x00
   20B5 1F                 8848 	.db #0x1F
   20B6 0F                 8849 	.db #0x0F
   20B7 1F                 8850 	.db #0x1F
   20B8 0F                 8851 	.db #0x0F
   20B9 70                 8852 	.db #0x70
   20BA 60                 8853 	.db #0x60
   20BB 70                 8854 	.db #0x70
   20BC 60                 8855 	.db #0x60
   20BD 70                 8856 	.db #0x70
   20BE 60                 8857 	.db #0x60
   20BF 70                 8858 	.db #0x70
   20C0 60                 8859 	.db #0x60
   20C1 70                 8860 	.db #0x70
   20C2 60                 8861 	.db #0x60
   20C3 00                 8862 	.db #0x00
   20C4 00                 8863 	.db #0x00
   20C5 FF                 8864 	.db #0xFF
   20C6 FF                 8865 	.db #0xFF
   20C7 FF                 8866 	.db #0xFF
   20C8 FF                 8867 	.db #0xFF
   20C9 00                 8868 	.db #0x00
   20CA 00                 8869 	.db #0x00
   20CB 00                 8870 	.db #0x00
   20CC 00                 8871 	.db #0x00
   20CD 00                 8872 	.db #0x00
   20CE 00                 8873 	.db #0x00
   20CF 00                 8874 	.db #0x00
   20D0 00                 8875 	.db #0x00
   20D1 00                 8876 	.db #0x00
   20D2 00                 8877 	.db #0x00
   20D3 E0                 8878 	.db #0xE0
   20D4 C0                 8879 	.db #0xC0
   20D5 E0                 8880 	.db #0xE0
   20D6 C0                 8881 	.db #0xC0
   20D7 E0                 8882 	.db #0xE0
   20D8 C0                 8883 	.db #0xC0
   20D9 E0                 8884 	.db #0xE0
   20DA C0                 8885 	.db #0xC0
   20DB E0                 8886 	.db #0xE0
   20DC C0                 8887 	.db #0xC0
   20DD E0                 8888 	.db #0xE0
   20DE C0                 8889 	.db #0xC0
   20DF E0                 8890 	.db #0xE0
   20E0 C0                 8891 	.db #0xC0
   20E1 E0                 8892 	.db #0xE0
   20E2 C0                 8893 	.db #0xC0
   20E3 3F                 8894 	.db #0x3F
   20E4 1F                 8895 	.db #0x1F
   20E5 38                 8896 	.db #0x38
   20E6 18                 8897 	.db #0x18
   20E7 38                 8898 	.db #0x38
   20E8 18                 8899 	.db #0x18
   20E9 38                 8900 	.db #0x38
   20EA 18                 8901 	.db #0x18
   20EB 38                 8902 	.db #0x38
   20EC 18                 8903 	.db #0x18
   20ED 38                 8904 	.db #0x38
   20EE 18                 8905 	.db #0x18
   20EF 38                 8906 	.db #0x38
   20F0 18                 8907 	.db #0x18
   20F1 38                 8908 	.db #0x38
   20F2 18                 8909 	.db #0x18
   20F3 01                 8910 	.db #0x01
   20F4 01                 8911 	.db #0x01
   20F5 01                 8912 	.db #0x01
   20F6 01                 8913 	.db #0x01
   20F7 01                 8914 	.db #0x01
   20F8 01                 8915 	.db #0x01
   20F9 01                 8916 	.db #0x01
   20FA 01                 8917 	.db #0x01
   20FB 01                 8918 	.db #0x01
   20FC 01                 8919 	.db #0x01
   20FD 01                 8920 	.db #0x01
   20FE 01                 8921 	.db #0x01
   20FF 01                 8922 	.db #0x01
   2100 01                 8923 	.db #0x01
   2101 01                 8924 	.db #0x01
   2102 01                 8925 	.db #0x01
   2103 C1                 8926 	.db #0xC1
   2104 81                 8927 	.db #0x81
   2105 C1                 8928 	.db #0xC1
   2106 81                 8929 	.db #0x81
   2107 C1                 8930 	.db #0xC1
   2108 81                 8931 	.db #0x81
   2109 C1                 8932 	.db #0xC1
   210A 81                 8933 	.db #0x81
   210B C1                 8934 	.db #0xC1
   210C 81                 8935 	.db #0x81
   210D C1                 8936 	.db #0xC1
   210E 81                 8937 	.db #0x81
   210F C1                 8938 	.db #0xC1
   2110 81                 8939 	.db #0x81
   2111 C1                 8940 	.db #0xC1
   2112 81                 8941 	.db #0x81
   2113 C0                 8942 	.db #0xC0
   2114 80                 8943 	.db #0x80
   2115 C0                 8944 	.db #0xC0
   2116 80                 8945 	.db #0x80
   2117 C0                 8946 	.db #0xC0
   2118 80                 8947 	.db #0x80
   2119 C0                 8948 	.db #0xC0
   211A 80                 8949 	.db #0x80
   211B C0                 8950 	.db #0xC0
   211C 80                 8951 	.db #0x80
   211D C0                 8952 	.db #0xC0
   211E 80                 8953 	.db #0x80
   211F C0                 8954 	.db #0xC0
   2120 80                 8955 	.db #0x80
   2121 C0                 8956 	.db #0xC0
   2122 80                 8957 	.db #0x80
   2123 03                 8958 	.db #0x03
   2124 03                 8959 	.db #0x03
   2125 00                 8960 	.db #0x00
   2126 00                 8961 	.db #0x00
   2127 00                 8962 	.db #0x00
   2128 00                 8963 	.db #0x00
   2129 00                 8964 	.db #0x00
   212A 00                 8965 	.db #0x00
   212B 00                 8966 	.db #0x00
   212C 00                 8967 	.db #0x00
   212D 00                 8968 	.db #0x00
   212E 00                 8969 	.db #0x00
   212F 03                 8970 	.db #0x03
   2130 03                 8971 	.db #0x03
   2131 03                 8972 	.db #0x03
   2132 03                 8973 	.db #0x03
   2133 E0                 8974 	.db #0xE0
   2134 E0                 8975 	.db #0xE0
   2135 E0                 8976 	.db #0xE0
   2136 60                 8977 	.db #0x60
   2137 E0                 8978 	.db #0xE0
   2138 60                 8979 	.db #0x60
   2139 E0                 8980 	.db #0xE0
   213A 60                 8981 	.db #0x60
   213B E0                 8982 	.db #0xE0
   213C 60                 8983 	.db #0x60
   213D E0                 8984 	.db #0xE0
   213E 60                 8985 	.db #0x60
   213F E0                 8986 	.db #0xE0
   2140 E0                 8987 	.db #0xE0
   2141 E0                 8988 	.db #0xE0
   2142 E0                 8989 	.db #0xE0
   2143 0F                 8990 	.db #0x0F
   2144 00                 8991 	.db #0x00
   2145 1F                 8992 	.db #0x1F
   2146 0F                 8993 	.db #0x0F
   2147 1F                 8994 	.db #0x1F
   2148 0F                 8995 	.db #0x0F
   2149 00                 8996 	.db #0x00
   214A 00                 8997 	.db #0x00
   214B 00                 8998 	.db #0x00
   214C 00                 8999 	.db #0x00
   214D 00                 9000 	.db #0x00
   214E 00                 9001 	.db #0x00
   214F 00                 9002 	.db #0x00
   2150 00                 9003 	.db #0x00
   2151 00                 9004 	.db #0x00
   2152 00                 9005 	.db #0x00
   2153 FF                 9006 	.db #0xFF
   2154 00                 9007 	.db #0x00
   2155 FF                 9008 	.db #0xFF
   2156 FF                 9009 	.db #0xFF
   2157 FF                 9010 	.db #0xFF
   2158 FF                 9011 	.db #0xFF
   2159 00                 9012 	.db #0x00
   215A 00                 9013 	.db #0x00
   215B 00                 9014 	.db #0x00
   215C 00                 9015 	.db #0x00
   215D 00                 9016 	.db #0x00
   215E 00                 9017 	.db #0x00
   215F 00                 9018 	.db #0x00
   2160 00                 9019 	.db #0x00
   2161 00                 9020 	.db #0x00
   2162 00                 9021 	.db #0x00
   2163 D8                 9022 	.db #0xD8
   2164 E0                 9023 	.db #0xE0
   2165 FC                 9024 	.db #0xFC
   2166 F8                 9025 	.db #0xF8
   2167 FC                 9026 	.db #0xFC
   2168 F8                 9027 	.db #0xF8
   2169 00                 9028 	.db #0x00
   216A 00                 9029 	.db #0x00
   216B 00                 9030 	.db #0x00
   216C 00                 9031 	.db #0x00
   216D 00                 9032 	.db #0x00
   216E 00                 9033 	.db #0x00
   216F 00                 9034 	.db #0x00
   2170 00                 9035 	.db #0x00
   2171 00                 9036 	.db #0x00
   2172 00                 9037 	.db #0x00
   2173 DF                 9038 	.db #0xDF
   2174 38                 9039 	.db #0x38
   2175 FF                 9040 	.db #0xFF
   2176 FF                 9041 	.db #0xFF
   2177 FF                 9042 	.db #0xFF
   2178 FF                 9043 	.db #0xFF
   2179 00                 9044 	.db #0x00
   217A 00                 9045 	.db #0x00
   217B 00                 9046 	.db #0x00
   217C 00                 9047 	.db #0x00
   217D 00                 9048 	.db #0x00
   217E 00                 9049 	.db #0x00
   217F 00                 9050 	.db #0x00
   2180 00                 9051 	.db #0x00
   2181 00                 9052 	.db #0x00
   2182 00                 9053 	.db #0x00
   2183 0F                 9054 	.db #0x0F
   2184 01                 9055 	.db #0x01
   2185 0F                 9056 	.db #0x0F
   2186 0F                 9057 	.db #0x0F
   2187 0F                 9058 	.db #0x0F
   2188 0F                 9059 	.db #0x0F
   2189 00                 9060 	.db #0x00
   218A 00                 9061 	.db #0x00
   218B 00                 9062 	.db #0x00
   218C 00                 9063 	.db #0x00
   218D 00                 9064 	.db #0x00
   218E 00                 9065 	.db #0x00
   218F 00                 9066 	.db #0x00
   2190 00                 9067 	.db #0x00
   2191 00                 9068 	.db #0x00
   2192 00                 9069 	.db #0x00
   2193 B1                 9070 	.db #0xB1
   2194 C0                 9071 	.db #0xC0
   2195 F0                 9072 	.db #0xF0
   2196 F0                 9073 	.db #0xF0
   2197 F0                 9074 	.db #0xF0
   2198 F0                 9075 	.db #0xF0
   2199 00                 9076 	.db #0x00
   219A 00                 9077 	.db #0x00
   219B 00                 9078 	.db #0x00
   219C 00                 9079 	.db #0x00
   219D 00                 9080 	.db #0x00
   219E 00                 9081 	.db #0x00
   219F 00                 9082 	.db #0x00
   21A0 00                 9083 	.db #0x00
   21A1 00                 9084 	.db #0x00
   21A2 00                 9085 	.db #0x00
   21A3 FF                 9086 	.db #0xFF
   21A4 00                 9087 	.db #0x00
   21A5 7F                 9088 	.db #0x7F
   21A6 3F                 9089 	.db #0x3F
   21A7 7F                 9090 	.db #0x7F
   21A8 3F                 9091 	.db #0x3F
   21A9 00                 9092 	.db #0x00
   21AA 00                 9093 	.db #0x00
   21AB 00                 9094 	.db #0x00
   21AC 00                 9095 	.db #0x00
   21AD 00                 9096 	.db #0x00
   21AE 00                 9097 	.db #0x00
   21AF 00                 9098 	.db #0x00
   21B0 00                 9099 	.db #0x00
   21B1 00                 9100 	.db #0x00
   21B2 00                 9101 	.db #0x00
   21B3 FF                 9102 	.db #0xFF
   21B4 00                 9103 	.db #0x00
   21B5 FC                 9104 	.db #0xFC
   21B6 FC                 9105 	.db #0xFC
   21B7 FC                 9106 	.db #0xFC
   21B8 FC                 9107 	.db #0xFC
   21B9 00                 9108 	.db #0x00
   21BA 00                 9109 	.db #0x00
   21BB 00                 9110 	.db #0x00
   21BC 00                 9111 	.db #0x00
   21BD 00                 9112 	.db #0x00
   21BE 00                 9113 	.db #0x00
   21BF 00                 9114 	.db #0x00
   21C0 00                 9115 	.db #0x00
   21C1 00                 9116 	.db #0x00
   21C2 00                 9117 	.db #0x00
   21C3 60                 9118 	.db #0x60
   21C4 E0                 9119 	.db #0xE0
   21C5 E0                 9120 	.db #0xE0
   21C6 60                 9121 	.db #0x60
   21C7 E0                 9122 	.db #0xE0
   21C8 60                 9123 	.db #0x60
   21C9 00                 9124 	.db #0x00
   21CA 00                 9125 	.db #0x00
   21CB 00                 9126 	.db #0x00
   21CC 00                 9127 	.db #0x00
   21CD 00                 9128 	.db #0x00
   21CE 00                 9129 	.db #0x00
   21CF 00                 9130 	.db #0x00
   21D0 00                 9131 	.db #0x00
   21D1 00                 9132 	.db #0x00
   21D2 00                 9133 	.db #0x00
   21D3 00                 9134 	.db #0x00
   21D4 00                 9135 	.db #0x00
   21D5 00                 9136 	.db #0x00
   21D6 00                 9137 	.db #0x00
   21D7 00                 9138 	.db #0x00
   21D8 00                 9139 	.db #0x00
   21D9 01                 9140 	.db #0x01
   21DA 00                 9141 	.db #0x00
   21DB 01                 9142 	.db #0x01
   21DC 00                 9143 	.db #0x00
   21DD E0                 9144 	.db #0xE0
   21DE 00                 9145 	.db #0x00
   21DF E0                 9146 	.db #0xE0
   21E0 E0                 9147 	.db #0xE0
   21E1 E0                 9148 	.db #0xE0
   21E2 E0                 9149 	.db #0xE0
   21E3 00                 9150 	.db #0x00
   21E4 00                 9151 	.db #0x00
   21E5 00                 9152 	.db #0x00
   21E6 00                 9153 	.db #0x00
   21E7 00                 9154 	.db #0x00
   21E8 00                 9155 	.db #0x00
   21E9 FE                 9156 	.db #0xFE
   21EA FE                 9157 	.db #0xFE
   21EB FE                 9158 	.db #0xFE
   21EC FE                 9159 	.db #0xFE
   21ED F6                 9160 	.db #0xF6
   21EE 38                 9161 	.db #0x38
   21EF 38                 9162 	.db #0x38
   21F0 30                 9163 	.db #0x30
   21F1 38                 9164 	.db #0x38
   21F2 30                 9165 	.db #0x30
   21F3 00                 9166 	.db #0x00
   21F4 00                 9167 	.db #0x00
   21F5 00                 9168 	.db #0x00
   21F6 00                 9169 	.db #0x00
   21F7 00                 9170 	.db #0x00
   21F8 00                 9171 	.db #0x00
   21F9 70                 9172 	.db #0x70
   21FA 60                 9173 	.db #0x60
   21FB 70                 9174 	.db #0x70
   21FC 60                 9175 	.db #0x60
   21FD 60                 9176 	.db #0x60
   21FE 00                 9177 	.db #0x00
   21FF 00                 9178 	.db #0x00
   2200 00                 9179 	.db #0x00
   2201 00                 9180 	.db #0x00
   2202 00                 9181 	.db #0x00
   2203 00                 9182 	.db #0x00
   2204 00                 9183 	.db #0x00
   2205 00                 9184 	.db #0x00
   2206 00                 9185 	.db #0x00
   2207 00                 9186 	.db #0x00
   2208 00                 9187 	.db #0x00
   2209 FF                 9188 	.db #0xFF
   220A FF                 9189 	.db #0xFF
   220B FF                 9190 	.db #0xFF
   220C FF                 9191 	.db #0xFF
   220D DF                 9192 	.db #0xDF
   220E 38                 9193 	.db #0x38
   220F 38                 9194 	.db #0x38
   2210 18                 9195 	.db #0x18
   2211 38                 9196 	.db #0x38
   2212 18                 9197 	.db #0x18
   2213 00                 9198 	.db #0x00
   2214 00                 9199 	.db #0x00
   2215 00                 9200 	.db #0x00
   2216 00                 9201 	.db #0x00
   2217 00                 9202 	.db #0x00
   2218 00                 9203 	.db #0x00
   2219 00                 9204 	.db #0x00
   221A 00                 9205 	.db #0x00
   221B 00                 9206 	.db #0x00
   221C 00                 9207 	.db #0x00
   221D 3F                 9208 	.db #0x3F
   221E 00                 9209 	.db #0x00
   221F 3F                 9210 	.db #0x3F
   2220 3F                 9211 	.db #0x3F
   2221 3F                 9212 	.db #0x3F
   2222 3F                 9213 	.db #0x3F
   2223 00                 9214 	.db #0x00
   2224 00                 9215 	.db #0x00
   2225 00                 9216 	.db #0x00
   2226 00                 9217 	.db #0x00
   2227 00                 9218 	.db #0x00
   2228 00                 9219 	.db #0x00
   2229 00                 9220 	.db #0x00
   222A 00                 9221 	.db #0x00
   222B 00                 9222 	.db #0x00
   222C 00                 9223 	.db #0x00
   222D 80                 9224 	.db #0x80
   222E 00                 9225 	.db #0x00
   222F C0                 9226 	.db #0xC0
   2230 80                 9227 	.db #0x80
   2231 C0                 9228 	.db #0xC0
   2232 80                 9229 	.db #0x80
   2233 18                 9230 	.db #0x18
   2234 18                 9231 	.db #0x18
   2235 18                 9232 	.db #0x18
   2236 18                 9233 	.db #0x18
   2237 1E                 9234 	.db #0x1E
   2238 00                 9235 	.db #0x00
   2239 07                 9236 	.db #0x07
   223A 06                 9237 	.db #0x06
   223B 07                 9238 	.db #0x07
   223C 06                 9239 	.db #0x06
   223D 01                 9240 	.db #0x01
   223E 00                 9241 	.db #0x00
   223F 01                 9242 	.db #0x01
   2240 00                 9243 	.db #0x00
   2241 00                 9244 	.db #0x00
   2242 00                 9245 	.db #0x00
   2243 38                 9246 	.db #0x38
   2244 30                 9247 	.db #0x30
   2245 38                 9248 	.db #0x38
   2246 30                 9249 	.db #0x30
   2247 38                 9250 	.db #0x38
   2248 30                 9251 	.db #0x30
   2249 38                 9252 	.db #0x38
   224A 30                 9253 	.db #0x30
   224B 38                 9254 	.db #0x38
   224C 30                 9255 	.db #0x30
   224D F8                 9256 	.db #0xF8
   224E F0                 9257 	.db #0xF0
   224F F8                 9258 	.db #0xF8
   2250 F0                 9259 	.db #0xF0
   2251 F8                 9260 	.db #0xF8
   2252 30                 9261 	.db #0x30
   2253 03                 9262 	.db #0x03
   2254 01                 9263 	.db #0x01
   2255 03                 9264 	.db #0x03
   2256 01                 9265 	.db #0x01
   2257 01                 9266 	.db #0x01
   2258 00                 9267 	.db #0x00
   2259 00                 9268 	.db #0x00
   225A 00                 9269 	.db #0x00
   225B 00                 9270 	.db #0x00
   225C 00                 9271 	.db #0x00
   225D 00                 9272 	.db #0x00
   225E 00                 9273 	.db #0x00
   225F 00                 9274 	.db #0x00
   2260 00                 9275 	.db #0x00
   2261 00                 9276 	.db #0x00
   2262 00                 9277 	.db #0x00
   2263 F0                 9278 	.db #0xF0
   2264 E0                 9279 	.db #0xE0
   2265 F0                 9280 	.db #0xF0
   2266 E0                 9281 	.db #0xE0
   2267 F0                 9282 	.db #0xF0
   2268 60                 9283 	.db #0x60
   2269 70                 9284 	.db #0x70
   226A 60                 9285 	.db #0x60
   226B 70                 9286 	.db #0x70
   226C 60                 9287 	.db #0x60
   226D 70                 9288 	.db #0x70
   226E 60                 9289 	.db #0x60
   226F 70                 9290 	.db #0x70
   2270 60                 9291 	.db #0x60
   2271 70                 9292 	.db #0x70
   2272 60                 9293 	.db #0x60
   2273 0F                 9294 	.db #0x0F
   2274 0F                 9295 	.db #0x0F
   2275 0F                 9296 	.db #0x0F
   2276 0F                 9297 	.db #0x0F
   2277 6F                 9298 	.db #0x6F
   2278 00                 9299 	.db #0x00
   2279 70                 9300 	.db #0x70
   227A 60                 9301 	.db #0x60
   227B 70                 9302 	.db #0x70
   227C 60                 9303 	.db #0x60
   227D 70                 9304 	.db #0x70
   227E 60                 9305 	.db #0x60
   227F 70                 9306 	.db #0x70
   2280 60                 9307 	.db #0x60
   2281 70                 9308 	.db #0x70
   2282 60                 9309 	.db #0x60
   2283 E0                 9310 	.db #0xE0
   2284 E0                 9311 	.db #0xE0
   2285 E0                 9312 	.db #0xE0
   2286 E0                 9313 	.db #0xE0
   2287 F8                 9314 	.db #0xF8
   2288 00                 9315 	.db #0x00
   2289 18                 9316 	.db #0x18
   228A 18                 9317 	.db #0x18
   228B 18                 9318 	.db #0x18
   228C 18                 9319 	.db #0x18
   228D 00                 9320 	.db #0x00
   228E 00                 9321 	.db #0x00
   228F 00                 9322 	.db #0x00
   2290 00                 9323 	.db #0x00
   2291 18                 9324 	.db #0x18
   2292 18                 9325 	.db #0x18
   2293 38                 9326 	.db #0x38
   2294 18                 9327 	.db #0x18
   2295 38                 9328 	.db #0x38
   2296 18                 9329 	.db #0x18
   2297 3F                 9330 	.db #0x3F
   2298 18                 9331 	.db #0x18
   2299 3F                 9332 	.db #0x3F
   229A 1F                 9333 	.db #0x1F
   229B 3F                 9334 	.db #0x3F
   229C 1F                 9335 	.db #0x1F
   229D 38                 9336 	.db #0x38
   229E 18                 9337 	.db #0x18
   229F 38                 9338 	.db #0x38
   22A0 18                 9339 	.db #0x18
   22A1 38                 9340 	.db #0x38
   22A2 18                 9341 	.db #0x18
   22A3 0E                 9342 	.db #0x0E
   22A4 06                 9343 	.db #0x06
   22A5 0E                 9344 	.db #0x0E
   22A6 06                 9345 	.db #0x06
   22A7 FE                 9346 	.db #0xFE
   22A8 00                 9347 	.db #0x00
   22A9 F8                 9348 	.db #0xF8
   22AA F0                 9349 	.db #0xF0
   22AB F8                 9350 	.db #0xF8
   22AC F0                 9351 	.db #0xF0
   22AD 38                 9352 	.db #0x38
   22AE 30                 9353 	.db #0x30
   22AF 38                 9354 	.db #0x38
   22B0 30                 9355 	.db #0x30
   22B1 3E                 9356 	.db #0x3E
   22B2 00                 9357 	.db #0x00
   22B3 00                 9358 	.db #0x00
   22B4 00                 9359 	.db #0x00
   22B5 00                 9360 	.db #0x00
   22B6 00                 9361 	.db #0x00
   22B7 00                 9362 	.db #0x00
   22B8 00                 9363 	.db #0x00
   22B9 00                 9364 	.db #0x00
   22BA 00                 9365 	.db #0x00
   22BB E0                 9366 	.db #0xE0
   22BC 00                 9367 	.db #0x00
   22BD E1                 9368 	.db #0xE1
   22BE E0                 9369 	.db #0xE0
   22BF E1                 9370 	.db #0xE1
   22C0 E0                 9371 	.db #0xE0
   22C1 00                 9372 	.db #0x00
   22C2 00                 9373 	.db #0x00
   22C3 38                 9374 	.db #0x38
   22C4 30                 9375 	.db #0x30
   22C5 38                 9376 	.db #0x38
   22C6 30                 9377 	.db #0x30
   22C7 38                 9378 	.db #0x38
   22C8 30                 9379 	.db #0x30
   22C9 38                 9380 	.db #0x38
   22CA 30                 9381 	.db #0x30
   22CB F6                 9382 	.db #0xF6
   22CC 38                 9383 	.db #0x38
   22CD FE                 9384 	.db #0xFE
   22CE FE                 9385 	.db #0xFE
   22CF FE                 9386 	.db #0xFE
   22D0 FE                 9387 	.db #0xFE
   22D1 00                 9388 	.db #0x00
   22D2 00                 9389 	.db #0x00
   22D3 00                 9390 	.db #0x00
   22D4 00                 9391 	.db #0x00
   22D5 00                 9392 	.db #0x00
   22D6 00                 9393 	.db #0x00
   22D7 00                 9394 	.db #0x00
   22D8 00                 9395 	.db #0x00
   22D9 00                 9396 	.db #0x00
   22DA 00                 9397 	.db #0x00
   22DB 0F                 9398 	.db #0x0F
   22DC 00                 9399 	.db #0x00
   22DD 0F                 9400 	.db #0x0F
   22DE 0F                 9401 	.db #0x0F
   22DF 0F                 9402 	.db #0x0F
   22E0 0F                 9403 	.db #0x0F
   22E1 00                 9404 	.db #0x00
   22E2 00                 9405 	.db #0x00
   22E3 70                 9406 	.db #0x70
   22E4 60                 9407 	.db #0x60
   22E5 70                 9408 	.db #0x70
   22E6 60                 9409 	.db #0x60
   22E7 70                 9410 	.db #0x70
   22E8 60                 9411 	.db #0x60
   22E9 70                 9412 	.db #0x70
   22EA 60                 9413 	.db #0x60
   22EB EF                 9414 	.db #0xEF
   22EC 70                 9415 	.db #0x70
   22ED FF                 9416 	.db #0xFF
   22EE FF                 9417 	.db #0xFF
   22EF FF                 9418 	.db #0xFF
   22F0 FF                 9419 	.db #0xFF
   22F1 00                 9420 	.db #0x00
   22F2 00                 9421 	.db #0x00
   22F3 00                 9422 	.db #0x00
   22F4 00                 9423 	.db #0x00
   22F5 00                 9424 	.db #0x00
   22F6 00                 9425 	.db #0x00
   22F7 00                 9426 	.db #0x00
   22F8 00                 9427 	.db #0x00
   22F9 00                 9428 	.db #0x00
   22FA 00                 9429 	.db #0x00
   22FB 80                 9430 	.db #0x80
   22FC 00                 9431 	.db #0x00
   22FD 80                 9432 	.db #0x80
   22FE 80                 9433 	.db #0x80
   22FF 80                 9434 	.db #0x80
   2300 80                 9435 	.db #0x80
   2301 00                 9436 	.db #0x00
   2302 00                 9437 	.db #0x00
   2303 70                 9438 	.db #0x70
   2304 60                 9439 	.db #0x60
   2305 70                 9440 	.db #0x70
   2306 60                 9441 	.db #0x60
   2307 70                 9442 	.db #0x70
   2308 60                 9443 	.db #0x60
   2309 70                 9444 	.db #0x70
   230A 60                 9445 	.db #0x60
   230B 0F                 9446 	.db #0x0F
   230C 00                 9447 	.db #0x00
   230D 0F                 9448 	.db #0x0F
   230E 0F                 9449 	.db #0x0F
   230F 0F                 9450 	.db #0x0F
   2310 0F                 9451 	.db #0x0F
   2311 00                 9452 	.db #0x00
   2312 00                 9453 	.db #0x00
   2313 18                 9454 	.db #0x18
   2314 18                 9455 	.db #0x18
   2315 18                 9456 	.db #0x18
   2316 18                 9457 	.db #0x18
   2317 18                 9458 	.db #0x18
   2318 18                 9459 	.db #0x18
   2319 18                 9460 	.db #0x18
   231A 18                 9461 	.db #0x18
   231B E0                 9462 	.db #0xE0
   231C 00                 9463 	.db #0x00
   231D E0                 9464 	.db #0xE0
   231E E0                 9465 	.db #0xE0
   231F E0                 9466 	.db #0xE0
   2320 E0                 9467 	.db #0xE0
   2321 00                 9468 	.db #0x00
   2322 00                 9469 	.db #0x00
   2323 38                 9470 	.db #0x38
   2324 18                 9471 	.db #0x18
   2325 38                 9472 	.db #0x38
   2326 18                 9473 	.db #0x18
   2327 38                 9474 	.db #0x38
   2328 18                 9475 	.db #0x18
   2329 38                 9476 	.db #0x38
   232A 18                 9477 	.db #0x18
   232B DF                 9478 	.db #0xDF
   232C 38                 9479 	.db #0x38
   232D FF                 9480 	.db #0xFF
   232E FF                 9481 	.db #0xFF
   232F FF                 9482 	.db #0xFF
   2330 FF                 9483 	.db #0xFF
   2331 00                 9484 	.db #0x00
   2332 00                 9485 	.db #0x00
   2333 0E                 9486 	.db #0x0E
   2334 06                 9487 	.db #0x06
   2335 0E                 9488 	.db #0x0E
   2336 06                 9489 	.db #0x06
   2337 01                 9490 	.db #0x01
   2338 01                 9491 	.db #0x01
   2339 01                 9492 	.db #0x01
   233A 01                 9493 	.db #0x01
   233B 07                 9494 	.db #0x07
   233C 01                 9495 	.db #0x01
   233D 0F                 9496 	.db #0x0F
   233E 07                 9497 	.db #0x07
   233F 0F                 9498 	.db #0x0F
   2340 07                 9499 	.db #0x07
   2341 00                 9500 	.db #0x00
   2342 00                 9501 	.db #0x00
   2343 00                 9502 	.db #0x00
   2344 00                 9503 	.db #0x00
   2345 00                 9504 	.db #0x00
   2346 00                 9505 	.db #0x00
   2347 C0                 9506 	.db #0xC0
   2348 80                 9507 	.db #0x80
   2349 C0                 9508 	.db #0xC0
   234A 80                 9509 	.db #0x80
   234B B0                 9510 	.db #0xB0
   234C C0                 9511 	.db #0xC0
   234D F8                 9512 	.db #0xF8
   234E F0                 9513 	.db #0xF0
   234F F8                 9514 	.db #0xF8
   2350 F0                 9515 	.db #0xF0
   2351 00                 9516 	.db #0x00
   2352 00                 9517 	.db #0x00
   2353 00                 9518 	.db #0x00
   2354 00                 9519 	.db #0x00
   2355 00                 9520 	.db #0x00
   2356 00                 9521 	.db #0x00
   2357 00                 9522 	.db #0x00
   2358 00                 9523 	.db #0x00
   2359 00                 9524 	.db #0x00
   235A 00                 9525 	.db #0x00
   235B 00                 9526 	.db #0x00
   235C 00                 9527 	.db #0x00
   235D 00                 9528 	.db #0x00
   235E 00                 9529 	.db #0x00
   235F 00                 9530 	.db #0x00
   2360 00                 9531 	.db #0x00
   2361 7F                 9532 	.db #0x7F
   2362 7F                 9533 	.db #0x7F
   2363 00                 9534 	.db #0x00
   2364 00                 9535 	.db #0x00
   2365 00                 9536 	.db #0x00
   2366 00                 9537 	.db #0x00
   2367 00                 9538 	.db #0x00
   2368 00                 9539 	.db #0x00
   2369 00                 9540 	.db #0x00
   236A 00                 9541 	.db #0x00
   236B 00                 9542 	.db #0x00
   236C 00                 9543 	.db #0x00
   236D 00                 9544 	.db #0x00
   236E 00                 9545 	.db #0x00
   236F 00                 9546 	.db #0x00
   2370 00                 9547 	.db #0x00
   2371 80                 9548 	.db #0x80
   2372 80                 9549 	.db #0x80
   2373 00                 9550 	.db #0x00
   2374 00                 9551 	.db #0x00
   2375 00                 9552 	.db #0x00
   2376 00                 9553 	.db #0x00
   2377 00                 9554 	.db #0x00
   2378 00                 9555 	.db #0x00
   2379 00                 9556 	.db #0x00
   237A 00                 9557 	.db #0x00
   237B 00                 9558 	.db #0x00
   237C 00                 9559 	.db #0x00
   237D 00                 9560 	.db #0x00
   237E 00                 9561 	.db #0x00
   237F 00                 9562 	.db #0x00
   2380 00                 9563 	.db #0x00
   2381 07                 9564 	.db #0x07
   2382 07                 9565 	.db #0x07
   2383 00                 9566 	.db #0x00
   2384 00                 9567 	.db #0x00
   2385 00                 9568 	.db #0x00
   2386 00                 9569 	.db #0x00
   2387 00                 9570 	.db #0x00
   2388 00                 9571 	.db #0x00
   2389 00                 9572 	.db #0x00
   238A 00                 9573 	.db #0x00
   238B 00                 9574 	.db #0x00
   238C 00                 9575 	.db #0x00
   238D 00                 9576 	.db #0x00
   238E 00                 9577 	.db #0x00
   238F 00                 9578 	.db #0x00
   2390 00                 9579 	.db #0x00
   2391 FF                 9580 	.db #0xFF
   2392 FF                 9581 	.db #0xFF
   2393 00                 9582 	.db #0x00
   2394 00                 9583 	.db #0x00
   2395 00                 9584 	.db #0x00
   2396 00                 9585 	.db #0x00
   2397 00                 9586 	.db #0x00
   2398 00                 9587 	.db #0x00
   2399 00                 9588 	.db #0x00
   239A 00                 9589 	.db #0x00
   239B 00                 9590 	.db #0x00
   239C 00                 9591 	.db #0x00
   239D 00                 9592 	.db #0x00
   239E 00                 9593 	.db #0x00
   239F 00                 9594 	.db #0x00
   23A0 00                 9595 	.db #0x00
   23A1 F0                 9596 	.db #0xF0
   23A2 F0                 9597 	.db #0xF0
   23A3 00                 9598 	.db #0x00
   23A4 00                 9599 	.db #0x00
   23A5 00                 9600 	.db #0x00
   23A6 00                 9601 	.db #0x00
   23A7 00                 9602 	.db #0x00
   23A8 00                 9603 	.db #0x00
   23A9 00                 9604 	.db #0x00
   23AA 00                 9605 	.db #0x00
   23AB 00                 9606 	.db #0x00
   23AC 00                 9607 	.db #0x00
   23AD 00                 9608 	.db #0x00
   23AE 00                 9609 	.db #0x00
   23AF 00                 9610 	.db #0x00
   23B0 00                 9611 	.db #0x00
   23B1 1F                 9612 	.db #0x1F
   23B2 1F                 9613 	.db #0x1F
   23B3 00                 9614 	.db #0x00
   23B4 00                 9615 	.db #0x00
   23B5 00                 9616 	.db #0x00
   23B6 00                 9617 	.db #0x00
   23B7 00                 9618 	.db #0x00
   23B8 00                 9619 	.db #0x00
   23B9 00                 9620 	.db #0x00
   23BA 00                 9621 	.db #0x00
   23BB 00                 9622 	.db #0x00
   23BC 00                 9623 	.db #0x00
   23BD 00                 9624 	.db #0x00
   23BE 00                 9625 	.db #0x00
   23BF 00                 9626 	.db #0x00
   23C0 00                 9627 	.db #0x00
   23C1 01                 9628 	.db #0x01
   23C2 00                 9629 	.db #0x00
   23C3 00                 9630 	.db #0x00
   23C4 00                 9631 	.db #0x00
   23C5 00                 9632 	.db #0x00
   23C6 00                 9633 	.db #0x00
   23C7 00                 9634 	.db #0x00
   23C8 00                 9635 	.db #0x00
   23C9 00                 9636 	.db #0x00
   23CA 00                 9637 	.db #0x00
   23CB 00                 9638 	.db #0x00
   23CC 00                 9639 	.db #0x00
   23CD 00                 9640 	.db #0x00
   23CE 00                 9641 	.db #0x00
   23CF 00                 9642 	.db #0x00
   23D0 00                 9643 	.db #0x00
   23D1 FE                 9644 	.db #0xFE
   23D2 FE                 9645 	.db #0xFE
   23D3 00                 9646 	.db #0x00
   23D4 00                 9647 	.db #0x00
   23D5 00                 9648 	.db #0x00
   23D6 00                 9649 	.db #0x00
   23D7 00                 9650 	.db #0x00
   23D8 00                 9651 	.db #0x00
   23D9 00                 9652 	.db #0x00
   23DA 00                 9653 	.db #0x00
   23DB 00                 9654 	.db #0x00
   23DC 00                 9655 	.db #0x00
   23DD 00                 9656 	.db #0x00
   23DE 00                 9657 	.db #0x00
   23DF 00                 9658 	.db #0x00
   23E0 00                 9659 	.db #0x00
   23E1 03                 9660 	.db #0x03
   23E2 01                 9661 	.db #0x01
   23E3 00                 9662 	.db #0x00
   23E4 00                 9663 	.db #0x00
   23E5 00                 9664 	.db #0x00
   23E6 00                 9665 	.db #0x00
   23E7 00                 9666 	.db #0x00
   23E8 00                 9667 	.db #0x00
   23E9 00                 9668 	.db #0x00
   23EA 00                 9669 	.db #0x00
   23EB 00                 9670 	.db #0x00
   23EC 00                 9671 	.db #0x00
   23ED 00                 9672 	.db #0x00
   23EE 00                 9673 	.db #0x00
   23EF 00                 9674 	.db #0x00
   23F0 00                 9675 	.db #0x00
   23F1 F0                 9676 	.db #0xF0
   23F2 E0                 9677 	.db #0xE0
   23F3 00                 9678 	.db #0x00
   23F4 00                 9679 	.db #0x00
   23F5 00                 9680 	.db #0x00
   23F6 00                 9681 	.db #0x00
   23F7 00                 9682 	.db #0x00
   23F8 00                 9683 	.db #0x00
   23F9 00                 9684 	.db #0x00
   23FA 00                 9685 	.db #0x00
   23FB 00                 9686 	.db #0x00
   23FC 00                 9687 	.db #0x00
   23FD 00                 9688 	.db #0x00
   23FE 00                 9689 	.db #0x00
   23FF 00                 9690 	.db #0x00
   2400 00                 9691 	.db #0x00
   2401 F8                 9692 	.db #0xF8
   2402 F8                 9693 	.db #0xF8
   2403 7F                 9694 	.db #0x7F
   2404 7F                 9695 	.db #0x7F
   2405 6F                 9696 	.db #0x6F
   2406 1C                 9697 	.db #0x1C
   2407 1C                 9698 	.db #0x1C
   2408 0C                 9699 	.db #0x0C
   2409 1C                 9700 	.db #0x1C
   240A 0C                 9701 	.db #0x0C
   240B 1C                 9702 	.db #0x1C
   240C 0C                 9703 	.db #0x0C
   240D 1C                 9704 	.db #0x1C
   240E 0C                 9705 	.db #0x0C
   240F 1C                 9706 	.db #0x1C
   2410 0C                 9707 	.db #0x0C
   2411 1C                 9708 	.db #0x1C
   2412 0C                 9709 	.db #0x0C
   2413 80                 9710 	.db #0x80
   2414 80                 9711 	.db #0x80
   2415 80                 9712 	.db #0x80
   2416 00                 9713 	.db #0x00
   2417 00                 9714 	.db #0x00
   2418 00                 9715 	.db #0x00
   2419 00                 9716 	.db #0x00
   241A 00                 9717 	.db #0x00
   241B 00                 9718 	.db #0x00
   241C 00                 9719 	.db #0x00
   241D 00                 9720 	.db #0x00
   241E 00                 9721 	.db #0x00
   241F 00                 9722 	.db #0x00
   2420 00                 9723 	.db #0x00
   2421 00                 9724 	.db #0x00
   2422 00                 9725 	.db #0x00
   2423 07                 9726 	.db #0x07
   2424 07                 9727 	.db #0x07
   2425 06                 9728 	.db #0x06
   2426 01                 9729 	.db #0x01
   2427 01                 9730 	.db #0x01
   2428 00                 9731 	.db #0x00
   2429 01                 9732 	.db #0x01
   242A 00                 9733 	.db #0x00
   242B 01                 9734 	.db #0x01
   242C 00                 9735 	.db #0x00
   242D 01                 9736 	.db #0x01
   242E 00                 9737 	.db #0x00
   242F 01                 9738 	.db #0x01
   2430 00                 9739 	.db #0x00
   2431 01                 9740 	.db #0x01
   2432 00                 9741 	.db #0x00
   2433 FF                 9742 	.db #0xFF
   2434 FF                 9743 	.db #0xFF
   2435 FF                 9744 	.db #0xFF
   2436 C0                 9745 	.db #0xC0
   2437 C0                 9746 	.db #0xC0
   2438 C0                 9747 	.db #0xC0
   2439 C0                 9748 	.db #0xC0
   243A C0                 9749 	.db #0xC0
   243B C0                 9750 	.db #0xC0
   243C C0                 9751 	.db #0xC0
   243D C0                 9752 	.db #0xC0
   243E C0                 9753 	.db #0xC0
   243F C0                 9754 	.db #0xC0
   2440 C0                 9755 	.db #0xC0
   2441 C0                 9756 	.db #0xC0
   2442 C0                 9757 	.db #0xC0
   2443 F0                 9758 	.db #0xF0
   2444 F0                 9759 	.db #0xF0
   2445 FC                 9760 	.db #0xFC
   2446 00                 9761 	.db #0x00
   2447 0E                 9762 	.db #0x0E
   2448 0C                 9763 	.db #0x0C
   2449 0E                 9764 	.db #0x0E
   244A 0C                 9765 	.db #0x0C
   244B 03                 9766 	.db #0x03
   244C 01                 9767 	.db #0x01
   244D 03                 9768 	.db #0x03
   244E 01                 9769 	.db #0x01
   244F 03                 9770 	.db #0x03
   2450 01                 9771 	.db #0x01
   2451 03                 9772 	.db #0x03
   2452 01                 9773 	.db #0x01
   2453 00                 9774 	.db #0x00
   2454 00                 9775 	.db #0x00
   2455 00                 9776 	.db #0x00
   2456 00                 9777 	.db #0x00
   2457 00                 9778 	.db #0x00
   2458 00                 9779 	.db #0x00
   2459 00                 9780 	.db #0x00
   245A 00                 9781 	.db #0x00
   245B 80                 9782 	.db #0x80
   245C 80                 9783 	.db #0x80
   245D 80                 9784 	.db #0x80
   245E 80                 9785 	.db #0x80
   245F 80                 9786 	.db #0x80
   2460 80                 9787 	.db #0x80
   2461 80                 9788 	.db #0x80
   2462 80                 9789 	.db #0x80
   2463 7F                 9790 	.db #0x7F
   2464 7F                 9791 	.db #0x7F
   2465 7F                 9792 	.db #0x7F
   2466 00                 9793 	.db #0x00
   2467 00                 9794 	.db #0x00
   2468 00                 9795 	.db #0x00
   2469 00                 9796 	.db #0x00
   246A 00                 9797 	.db #0x00
   246B 00                 9798 	.db #0x00
   246C 00                 9799 	.db #0x00
   246D 00                 9800 	.db #0x00
   246E 00                 9801 	.db #0x00
   246F 00                 9802 	.db #0x00
   2470 00                 9803 	.db #0x00
   2471 00                 9804 	.db #0x00
   2472 00                 9805 	.db #0x00
   2473 FF                 9806 	.db #0xFF
   2474 FF                 9807 	.db #0xFF
   2475 FF                 9808 	.db #0xFF
   2476 60                 9809 	.db #0x60
   2477 60                 9810 	.db #0x60
   2478 60                 9811 	.db #0x60
   2479 60                 9812 	.db #0x60
   247A 60                 9813 	.db #0x60
   247B 60                 9814 	.db #0x60
   247C 60                 9815 	.db #0x60
   247D 60                 9816 	.db #0x60
   247E 60                 9817 	.db #0x60
   247F 60                 9818 	.db #0x60
   2480 60                 9819 	.db #0x60
   2481 60                 9820 	.db #0x60
   2482 60                 9821 	.db #0x60
   2483 00                 9822 	.db #0x00
   2484 00                 9823 	.db #0x00
   2485 00                 9824 	.db #0x00
   2486 00                 9825 	.db #0x00
   2487 00                 9826 	.db #0x00
   2488 00                 9827 	.db #0x00
   2489 00                 9828 	.db #0x00
   248A 00                 9829 	.db #0x00
   248B 07                 9830 	.db #0x07
   248C 03                 9831 	.db #0x03
   248D 07                 9832 	.db #0x07
   248E 03                 9833 	.db #0x03
   248F 07                 9834 	.db #0x07
   2490 03                 9835 	.db #0x03
   2491 07                 9836 	.db #0x07
   2492 03                 9837 	.db #0x03
   2493 1F                 9838 	.db #0x1F
   2494 1F                 9839 	.db #0x1F
   2495 DF                 9840 	.db #0xDF
   2496 00                 9841 	.db #0x00
   2497 E0                 9842 	.db #0xE0
   2498 C0                 9843 	.db #0xC0
   2499 E0                 9844 	.db #0xE0
   249A C0                 9845 	.db #0xC0
   249B 00                 9846 	.db #0x00
   249C 00                 9847 	.db #0x00
   249D 00                 9848 	.db #0x00
   249E 00                 9849 	.db #0x00
   249F 00                 9850 	.db #0x00
   24A0 00                 9851 	.db #0x00
   24A1 00                 9852 	.db #0x00
   24A2 00                 9853 	.db #0x00
   24A3 00                 9854 	.db #0x00
   24A4 00                 9855 	.db #0x00
   24A5 C0                 9856 	.db #0xC0
   24A6 00                 9857 	.db #0x00
   24A7 C0                 9858 	.db #0xC0
   24A8 C0                 9859 	.db #0xC0
   24A9 C0                 9860 	.db #0xC0
   24AA C0                 9861 	.db #0xC0
   24AB 38                 9862 	.db #0x38
   24AC 30                 9863 	.db #0x30
   24AD 38                 9864 	.db #0x38
   24AE 30                 9865 	.db #0x30
   24AF 38                 9866 	.db #0x38
   24B0 30                 9867 	.db #0x30
   24B1 38                 9868 	.db #0x38
   24B2 30                 9869 	.db #0x30
   24B3 1F                 9870 	.db #0x1F
   24B4 1F                 9871 	.db #0x1F
   24B5 1B                 9872 	.db #0x1B
   24B6 07                 9873 	.db #0x07
   24B7 07                 9874 	.db #0x07
   24B8 03                 9875 	.db #0x03
   24B9 07                 9876 	.db #0x07
   24BA 03                 9877 	.db #0x03
   24BB 07                 9878 	.db #0x07
   24BC 03                 9879 	.db #0x03
   24BD 07                 9880 	.db #0x07
   24BE 03                 9881 	.db #0x03
   24BF 07                 9882 	.db #0x07
   24C0 03                 9883 	.db #0x03
   24C1 07                 9884 	.db #0x07
   24C2 03                 9885 	.db #0x03
   24C3 01                 9886 	.db #0x01
   24C4 00                 9887 	.db #0x00
   24C5 E7                 9888 	.db #0xE7
   24C6 00                 9889 	.db #0x00
   24C7 E7                 9890 	.db #0xE7
   24C8 E6                 9891 	.db #0xE6
   24C9 E7                 9892 	.db #0xE7
   24CA E6                 9893 	.db #0xE6
   24CB 18                 9894 	.db #0x18
   24CC 18                 9895 	.db #0x18
   24CD 18                 9896 	.db #0x18
   24CE 18                 9897 	.db #0x18
   24CF 18                 9898 	.db #0x18
   24D0 18                 9899 	.db #0x18
   24D1 18                 9900 	.db #0x18
   24D2 18                 9901 	.db #0x18
   24D3 FE                 9902 	.db #0xFE
   24D4 FE                 9903 	.db #0xFE
   24D5 F6                 9904 	.db #0xF6
   24D6 38                 9905 	.db #0x38
   24D7 38                 9906 	.db #0x38
   24D8 30                 9907 	.db #0x30
   24D9 38                 9908 	.db #0x38
   24DA 30                 9909 	.db #0x30
   24DB 38                 9910 	.db #0x38
   24DC 30                 9911 	.db #0x30
   24DD 38                 9912 	.db #0x38
   24DE 30                 9913 	.db #0x30
   24DF 38                 9914 	.db #0x38
   24E0 30                 9915 	.db #0x30
   24E1 38                 9916 	.db #0x38
   24E2 30                 9917 	.db #0x30
   24E3 00                 9918 	.db #0x00
   24E4 00                 9919 	.db #0x00
   24E5 00                 9920 	.db #0x00
   24E6 00                 9921 	.db #0x00
   24E7 00                 9922 	.db #0x00
   24E8 00                 9923 	.db #0x00
   24E9 00                 9924 	.db #0x00
   24EA 00                 9925 	.db #0x00
   24EB 00                 9926 	.db #0x00
   24EC 00                 9927 	.db #0x00
   24ED 00                 9928 	.db #0x00
   24EE 00                 9929 	.db #0x00
   24EF 01                 9930 	.db #0x01
   24F0 00                 9931 	.db #0x00
   24F1 01                 9932 	.db #0x01
   24F2 01                 9933 	.db #0x01
   24F3 03                 9934 	.db #0x03
   24F4 01                 9935 	.db #0x01
   24F5 0F                 9936 	.db #0x0F
   24F6 00                 9937 	.db #0x00
   24F7 0E                 9938 	.db #0x0E
   24F8 0C                 9939 	.db #0x0C
   24F9 0E                 9940 	.db #0x0E
   24FA 0C                 9941 	.db #0x0C
   24FB 70                 9942 	.db #0x70
   24FC 30                 9943 	.db #0x30
   24FD 70                 9944 	.db #0x70
   24FE 30                 9945 	.db #0x30
   24FF F0                 9946 	.db #0xF0
   2500 00                 9947 	.db #0x00
   2501 C0                 9948 	.db #0xC0
   2502 80                 9949 	.db #0x80
   2503 F0                 9950 	.db #0xF0
   2504 E0                 9951 	.db #0xE0
   2505 F0                 9952 	.db #0xF0
   2506 60                 9953 	.db #0x60
   2507 70                 9954 	.db #0x70
   2508 60                 9955 	.db #0x60
   2509 70                 9956 	.db #0x70
   250A 60                 9957 	.db #0x60
   250B 70                 9958 	.db #0x70
   250C 60                 9959 	.db #0x60
   250D 70                 9960 	.db #0x70
   250E 60                 9961 	.db #0x60
   250F 70                 9962 	.db #0x70
   2510 60                 9963 	.db #0x60
   2511 70                 9964 	.db #0x70
   2512 60                 9965 	.db #0x60
   2513 7F                 9966 	.db #0x7F
   2514 7F                 9967 	.db #0x7F
   2515 6F                 9968 	.db #0x6F
   2516 70                 9969 	.db #0x70
   2517 70                 9970 	.db #0x70
   2518 60                 9971 	.db #0x60
   2519 70                 9972 	.db #0x70
   251A 60                 9973 	.db #0x60
   251B 70                 9974 	.db #0x70
   251C 60                 9975 	.db #0x60
   251D 70                 9976 	.db #0x70
   251E 60                 9977 	.db #0x60
   251F 6F                 9978 	.db #0x6F
   2520 70                 9979 	.db #0x70
   2521 7F                 9980 	.db #0x7F
   2522 7F                 9981 	.db #0x7F
   2523 FF                 9982 	.db #0xFF
   2524 FF                 9983 	.db #0xFF
   2525 FF                 9984 	.db #0xFF
   2526 00                 9985 	.db #0x00
   2527 00                 9986 	.db #0x00
   2528 00                 9987 	.db #0x00
   2529 00                 9988 	.db #0x00
   252A 00                 9989 	.db #0x00
   252B 00                 9990 	.db #0x00
   252C 00                 9991 	.db #0x00
   252D 00                 9992 	.db #0x00
   252E 00                 9993 	.db #0x00
   252F FF                 9994 	.db #0xFF
   2530 00                 9995 	.db #0x00
   2531 FF                 9996 	.db #0xFF
   2532 FF                 9997 	.db #0xFF
   2533 F8                 9998 	.db #0xF8
   2534 F8                 9999 	.db #0xF8
   2535 F8                10000 	.db #0xF8
   2536 18                10001 	.db #0x18
   2537 18                10002 	.db #0x18
   2538 18                10003 	.db #0x18
   2539 18                10004 	.db #0x18
   253A 18                10005 	.db #0x18
   253B 00                10006 	.db #0x00
   253C 00                10007 	.db #0x00
   253D 00                10008 	.db #0x00
   253E 00                10009 	.db #0x00
   253F E0                10010 	.db #0xE0
   2540 00                10011 	.db #0x00
   2541 E0                10012 	.db #0xE0
   2542 E0                10013 	.db #0xE0
   2543 1C                10014 	.db #0x1C
   2544 0C                10015 	.db #0x0C
   2545 1C                10016 	.db #0x1C
   2546 0C                10017 	.db #0x0C
   2547 1C                10018 	.db #0x1C
   2548 0C                10019 	.db #0x0C
   2549 1C                10020 	.db #0x1C
   254A 0C                10021 	.db #0x0C
   254B 1C                10022 	.db #0x1C
   254C 0C                10023 	.db #0x0C
   254D 1C                10024 	.db #0x1C
   254E 0C                10025 	.db #0x0C
   254F 1C                10026 	.db #0x1C
   2550 0C                10027 	.db #0x0C
   2551 1C                10028 	.db #0x1C
   2552 0C                10029 	.db #0x0C
   2553 01                10030 	.db #0x01
   2554 00                10031 	.db #0x00
   2555 01                10032 	.db #0x01
   2556 00                10033 	.db #0x00
   2557 01                10034 	.db #0x01
   2558 00                10035 	.db #0x00
   2559 C1                10036 	.db #0xC1
   255A 00                10037 	.db #0x00
   255B E1                10038 	.db #0xE1
   255C C0                10039 	.db #0xC0
   255D E1                10040 	.db #0xE1
   255E C0                10041 	.db #0xC0
   255F E1                10042 	.db #0xE1
   2560 C0                10043 	.db #0xC0
   2561 E1                10044 	.db #0xE1
   2562 C0                10045 	.db #0xC0
   2563 C0                10046 	.db #0xC0
   2564 C0                10047 	.db #0xC0
   2565 C0                10048 	.db #0xC0
   2566 C0                10049 	.db #0xC0
   2567 C0                10050 	.db #0xC0
   2568 C0                10051 	.db #0xC0
   2569 C0                10052 	.db #0xC0
   256A C0                10053 	.db #0xC0
   256B C0                10054 	.db #0xC0
   256C C0                10055 	.db #0xC0
   256D C0                10056 	.db #0xC0
   256E C0                10057 	.db #0xC0
   256F C0                10058 	.db #0xC0
   2570 C0                10059 	.db #0xC0
   2571 C0                10060 	.db #0xC0
   2572 C0                10061 	.db #0xC0
   2573 03                10062 	.db #0x03
   2574 01                10063 	.db #0x01
   2575 03                10064 	.db #0x03
   2576 01                10065 	.db #0x01
   2577 03                10066 	.db #0x03
   2578 01                10067 	.db #0x01
   2579 03                10068 	.db #0x03
   257A 01                10069 	.db #0x01
   257B 03                10070 	.db #0x03
   257C 01                10071 	.db #0x01
   257D 03                10072 	.db #0x03
   257E 01                10073 	.db #0x01
   257F 0E                10074 	.db #0x0E
   2580 0C                10075 	.db #0x0C
   2581 0E                10076 	.db #0x0E
   2582 0C                10077 	.db #0x0C
   2583 80                10078 	.db #0x80
   2584 80                10079 	.db #0x80
   2585 8F                10080 	.db #0x8F
   2586 8F                10081 	.db #0x8F
   2587 8F                10082 	.db #0x8F
   2588 8F                10083 	.db #0x8F
   2589 8D                10084 	.db #0x8D
   258A 8E                10085 	.db #0x8E
   258B 8E                10086 	.db #0x8E
   258C 8C                10087 	.db #0x8C
   258D 8E                10088 	.db #0x8E
   258E 8C                10089 	.db #0x8C
   258F 0E                10090 	.db #0x0E
   2590 0C                10091 	.db #0x0C
   2591 0E                10092 	.db #0x0E
   2592 0C                10093 	.db #0x0C
   2593 00                10094 	.db #0x00
   2594 00                10095 	.db #0x00
   2595 80                10096 	.db #0x80
   2596 80                10097 	.db #0x80
   2597 80                10098 	.db #0x80
   2598 80                10099 	.db #0x80
   2599 80                10100 	.db #0x80
   259A 00                10101 	.db #0x00
   259B 00                10102 	.db #0x00
   259C 00                10103 	.db #0x00
   259D 00                10104 	.db #0x00
   259E 00                10105 	.db #0x00
   259F 00                10106 	.db #0x00
   25A0 00                10107 	.db #0x00
   25A1 00                10108 	.db #0x00
   25A2 00                10109 	.db #0x00
   25A3 60                10110 	.db #0x60
   25A4 60                10111 	.db #0x60
   25A5 60                10112 	.db #0x60
   25A6 60                10113 	.db #0x60
   25A7 60                10114 	.db #0x60
   25A8 60                10115 	.db #0x60
   25A9 60                10116 	.db #0x60
   25AA 60                10117 	.db #0x60
   25AB 60                10118 	.db #0x60
   25AC 60                10119 	.db #0x60
   25AD 60                10120 	.db #0x60
   25AE 60                10121 	.db #0x60
   25AF 60                10122 	.db #0x60
   25B0 60                10123 	.db #0x60
   25B1 60                10124 	.db #0x60
   25B2 60                10125 	.db #0x60
   25B3 00                10126 	.db #0x00
   25B4 00                10127 	.db #0x00
   25B5 FF                10128 	.db #0xFF
   25B6 FF                10129 	.db #0xFF
   25B7 FF                10130 	.db #0xFF
   25B8 FF                10131 	.db #0xFF
   25B9 FF                10132 	.db #0xFF
   25BA 00                10133 	.db #0x00
   25BB 00                10134 	.db #0x00
   25BC 00                10135 	.db #0x00
   25BD 00                10136 	.db #0x00
   25BE 00                10137 	.db #0x00
   25BF 00                10138 	.db #0x00
   25C0 00                10139 	.db #0x00
   25C1 00                10140 	.db #0x00
   25C2 00                10141 	.db #0x00
   25C3 38                10142 	.db #0x38
   25C4 30                10143 	.db #0x30
   25C5 F8                10144 	.db #0xF8
   25C6 F0                10145 	.db #0xF0
   25C7 F8                10146 	.db #0xF8
   25C8 F0                10147 	.db #0xF0
   25C9 F8                10148 	.db #0xF8
   25CA 30                10149 	.db #0x30
   25CB 38                10150 	.db #0x38
   25CC 30                10151 	.db #0x30
   25CD 38                10152 	.db #0x38
   25CE 30                10153 	.db #0x30
   25CF 38                10154 	.db #0x38
   25D0 30                10155 	.db #0x30
   25D1 38                10156 	.db #0x38
   25D2 30                10157 	.db #0x30
   25D3 18                10158 	.db #0x18
   25D4 18                10159 	.db #0x18
   25D5 00                10160 	.db #0x00
   25D6 00                10161 	.db #0x00
   25D7 00                10162 	.db #0x00
   25D8 00                10163 	.db #0x00
   25D9 00                10164 	.db #0x00
   25DA 00                10165 	.db #0x00
   25DB 00                10166 	.db #0x00
   25DC 00                10167 	.db #0x00
   25DD 00                10168 	.db #0x00
   25DE 00                10169 	.db #0x00
   25DF 00                10170 	.db #0x00
   25E0 00                10171 	.db #0x00
   25E1 00                10172 	.db #0x00
   25E2 00                10173 	.db #0x00
   25E3 38                10174 	.db #0x38
   25E4 30                10175 	.db #0x30
   25E5 38                10176 	.db #0x38
   25E6 30                10177 	.db #0x30
   25E7 38                10178 	.db #0x38
   25E8 30                10179 	.db #0x30
   25E9 38                10180 	.db #0x38
   25EA 30                10181 	.db #0x30
   25EB 38                10182 	.db #0x38
   25EC 30                10183 	.db #0x30
   25ED 38                10184 	.db #0x38
   25EE 30                10185 	.db #0x30
   25EF 38                10186 	.db #0x38
   25F0 30                10187 	.db #0x30
   25F1 38                10188 	.db #0x38
   25F2 30                10189 	.db #0x30
   25F3 01                10190 	.db #0x01
   25F4 01                10191 	.db #0x01
   25F5 0E                10192 	.db #0x0E
   25F6 06                10193 	.db #0x06
   25F7 0E                10194 	.db #0x0E
   25F8 06                10195 	.db #0x06
   25F9 37                10196 	.db #0x37
   25FA 0E                10197 	.db #0x0E
   25FB 3F                10198 	.db #0x3F
   25FC 3F                10199 	.db #0x3F
   25FD 3F                10200 	.db #0x3F
   25FE 3F                10201 	.db #0x3F
   25FF 00                10202 	.db #0x00
   2600 00                10203 	.db #0x00
   2601 00                10204 	.db #0x00
   2602 00                10205 	.db #0x00
   2603 C0                10206 	.db #0xC0
   2604 80                10207 	.db #0x80
   2605 00                10208 	.db #0x00
   2606 00                10209 	.db #0x00
   2607 00                10210 	.db #0x00
   2608 00                10211 	.db #0x00
   2609 FF                10212 	.db #0xFF
   260A 00                10213 	.db #0x00
   260B FF                10214 	.db #0xFF
   260C FF                10215 	.db #0xFF
   260D FF                10216 	.db #0xFF
   260E FF                10217 	.db #0xFF
   260F 00                10218 	.db #0x00
   2610 00                10219 	.db #0x00
   2611 00                10220 	.db #0x00
   2612 00                10221 	.db #0x00
   2613 70                10222 	.db #0x70
   2614 60                10223 	.db #0x60
   2615 70                10224 	.db #0x70
   2616 60                10225 	.db #0x60
   2617 70                10226 	.db #0x70
   2618 60                10227 	.db #0x60
   2619 EC                10228 	.db #0xEC
   261A 70                10229 	.db #0x70
   261B FC                10230 	.db #0xFC
   261C FC                10231 	.db #0xFC
   261D FC                10232 	.db #0xFC
   261E FC                10233 	.db #0xFC
   261F 70                10234 	.db #0x70
   2620 60                10235 	.db #0x60
   2621 70                10236 	.db #0x70
   2622 60                10237 	.db #0x60
   2623 00                10238 	.db #0x00
   2624 00                10239 	.db #0x00
   2625 00                10240 	.db #0x00
   2626 00                10241 	.db #0x00
   2627 00                10242 	.db #0x00
   2628 00                10243 	.db #0x00
   2629 70                10244 	.db #0x70
   262A 60                10245 	.db #0x60
   262B 70                10246 	.db #0x70
   262C 60                10247 	.db #0x60
   262D 70                10248 	.db #0x70
   262E 60                10249 	.db #0x60
   262F 70                10250 	.db #0x70
   2630 60                10251 	.db #0x60
   2631 70                10252 	.db #0x70
   2632 60                10253 	.db #0x60
   2633 18                10254 	.db #0x18
   2634 18                10255 	.db #0x18
   2635 18                10256 	.db #0x18
   2636 18                10257 	.db #0x18
   2637 18                10258 	.db #0x18
   2638 18                10259 	.db #0x18
   2639 18                10260 	.db #0x18
   263A 18                10261 	.db #0x18
   263B 18                10262 	.db #0x18
   263C 18                10263 	.db #0x18
   263D 18                10264 	.db #0x18
   263E 18                10265 	.db #0x18
   263F 18                10266 	.db #0x18
   2640 18                10267 	.db #0x18
   2641 18                10268 	.db #0x18
   2642 18                10269 	.db #0x18
   2643 6F                10270 	.db #0x6F
   2644 1C                10271 	.db #0x1C
   2645 7F                10272 	.db #0x7F
   2646 7F                10273 	.db #0x7F
   2647 7F                10274 	.db #0x7F
   2648 7F                10275 	.db #0x7F
   2649 00                10276 	.db #0x00
   264A 00                10277 	.db #0x00
   264B 00                10278 	.db #0x00
   264C 00                10279 	.db #0x00
   264D 00                10280 	.db #0x00
   264E 00                10281 	.db #0x00
   264F 00                10282 	.db #0x00
   2650 00                10283 	.db #0x00
   2651 00                10284 	.db #0x00
   2652 00                10285 	.db #0x00
   2653 E6                10286 	.db #0xE6
   2654 C1                10287 	.db #0xC1
   2655 E7                10288 	.db #0xE7
   2656 C7                10289 	.db #0xC7
   2657 E7                10290 	.db #0xE7
   2658 C7                10291 	.db #0xC7
   2659 00                10292 	.db #0x00
   265A 00                10293 	.db #0x00
   265B 00                10294 	.db #0x00
   265C 00                10295 	.db #0x00
   265D 00                10296 	.db #0x00
   265E 00                10297 	.db #0x00
   265F 00                10298 	.db #0x00
   2660 00                10299 	.db #0x00
   2661 00                10300 	.db #0x00
   2662 00                10301 	.db #0x00
   2663 FF                10302 	.db #0xFF
   2664 C0                10303 	.db #0xC0
   2665 FF                10304 	.db #0xFF
   2666 FF                10305 	.db #0xFF
   2667 FF                10306 	.db #0xFF
   2668 FF                10307 	.db #0xFF
   2669 00                10308 	.db #0x00
   266A 00                10309 	.db #0x00
   266B 00                10310 	.db #0x00
   266C 00                10311 	.db #0x00
   266D 00                10312 	.db #0x00
   266E 00                10313 	.db #0x00
   266F 00                10314 	.db #0x00
   2670 00                10315 	.db #0x00
   2671 00                10316 	.db #0x00
   2672 00                10317 	.db #0x00
   2673 FC                10318 	.db #0xFC
   2674 00                10319 	.db #0x00
   2675 F0                10320 	.db #0xF0
   2676 F0                10321 	.db #0xF0
   2677 F0                10322 	.db #0xF0
   2678 F0                10323 	.db #0xF0
   2679 00                10324 	.db #0x00
   267A 00                10325 	.db #0x00
   267B 00                10326 	.db #0x00
   267C 00                10327 	.db #0x00
   267D 00                10328 	.db #0x00
   267E 00                10329 	.db #0x00
   267F 00                10330 	.db #0x00
   2680 00                10331 	.db #0x00
   2681 00                10332 	.db #0x00
   2682 00                10333 	.db #0x00
   2683 0D                10334 	.db #0x0D
   2684 00                10335 	.db #0x00
   2685 01                10336 	.db #0x01
   2686 01                10337 	.db #0x01
   2687 01                10338 	.db #0x01
   2688 01                10339 	.db #0x01
   2689 00                10340 	.db #0x00
   268A 00                10341 	.db #0x00
   268B 00                10342 	.db #0x00
   268C 00                10343 	.db #0x00
   268D 00                10344 	.db #0x00
   268E 00                10345 	.db #0x00
   268F 00                10346 	.db #0x00
   2690 00                10347 	.db #0x00
   2691 00                10348 	.db #0x00
   2692 00                10349 	.db #0x00
   2693 E0                10350 	.db #0xE0
   2694 00                10351 	.db #0x00
   2695 80                10352 	.db #0x80
   2696 80                10353 	.db #0x80
   2697 80                10354 	.db #0x80
   2698 80                10355 	.db #0x80
   2699 00                10356 	.db #0x00
   269A 00                10357 	.db #0x00
   269B 00                10358 	.db #0x00
   269C 00                10359 	.db #0x00
   269D 00                10360 	.db #0x00
   269E 00                10361 	.db #0x00
   269F 00                10362 	.db #0x00
   26A0 00                10363 	.db #0x00
   26A1 00                10364 	.db #0x00
   26A2 00                10365 	.db #0x00
   26A3 1B                10366 	.db #0x1B
   26A4 07                10367 	.db #0x07
   26A5 1F                10368 	.db #0x1F
   26A6 1F                10369 	.db #0x1F
   26A7 1F                10370 	.db #0x1F
   26A8 1F                10371 	.db #0x1F
   26A9 00                10372 	.db #0x00
   26AA 00                10373 	.db #0x00
   26AB 00                10374 	.db #0x00
   26AC 00                10375 	.db #0x00
   26AD 00                10376 	.db #0x00
   26AE 00                10377 	.db #0x00
   26AF 00                10378 	.db #0x00
   26B0 00                10379 	.db #0x00
   26B1 00                10380 	.db #0x00
   26B2 00                10381 	.db #0x00
   26B3 C0                10382 	.db #0xC0
   26B4 00                10383 	.db #0x00
   26B5 E0                10384 	.db #0xE0
   26B6 C0                10385 	.db #0xC0
   26B7 E0                10386 	.db #0xE0
   26B8 C0                10387 	.db #0xC0
   26B9 00                10388 	.db #0x00
   26BA 00                10389 	.db #0x00
   26BB 00                10390 	.db #0x00
   26BC 00                10391 	.db #0x00
   26BD 00                10392 	.db #0x00
   26BE 00                10393 	.db #0x00
   26BF 00                10394 	.db #0x00
   26C0 00                10395 	.db #0x00
   26C1 00                10396 	.db #0x00
   26C2 00                10397 	.db #0x00
   26C3 F7                10398 	.db #0xF7
   26C4 38                10399 	.db #0x38
   26C5 FF                10400 	.db #0xFF
   26C6 FF                10401 	.db #0xFF
   26C7 FF                10402 	.db #0xFF
   26C8 FF                10403 	.db #0xFF
   26C9 00                10404 	.db #0x00
   26CA 00                10405 	.db #0x00
   26CB 00                10406 	.db #0x00
   26CC 00                10407 	.db #0x00
   26CD 00                10408 	.db #0x00
   26CE 00                10409 	.db #0x00
   26CF 00                10410 	.db #0x00
   26D0 00                10411 	.db #0x00
   26D1 00                10412 	.db #0x00
   26D2 00                10413 	.db #0x00
   26D3 E0                10414 	.db #0xE0
   26D4 00                10415 	.db #0x00
   26D5 E1                10416 	.db #0xE1
   26D6 E0                10417 	.db #0xE0
   26D7 E1                10418 	.db #0xE1
   26D8 E0                10419 	.db #0xE0
   26D9 00                10420 	.db #0x00
   26DA 00                10421 	.db #0x00
   26DB 00                10422 	.db #0x00
   26DC 00                10423 	.db #0x00
   26DD 00                10424 	.db #0x00
   26DE 00                10425 	.db #0x00
   26DF 00                10426 	.db #0x00
   26E0 00                10427 	.db #0x00
   26E1 00                10428 	.db #0x00
   26E2 00                10429 	.db #0x00
   26E3 F6                10430 	.db #0xF6
   26E4 38                10431 	.db #0x38
   26E5 FE                10432 	.db #0xFE
   26E6 FE                10433 	.db #0xFE
   26E7 FE                10434 	.db #0xFE
   26E8 FE                10435 	.db #0xFE
   26E9 00                10436 	.db #0x00
   26EA 00                10437 	.db #0x00
   26EB 00                10438 	.db #0x00
   26EC 00                10439 	.db #0x00
   26ED 00                10440 	.db #0x00
   26EE 00                10441 	.db #0x00
   26EF 00                10442 	.db #0x00
   26F0 00                10443 	.db #0x00
   26F1 00                10444 	.db #0x00
   26F2 00                10445 	.db #0x00
   26F3 01                10446 	.db #0x01
   26F4 00                10447 	.db #0x00
   26F5 03                10448 	.db #0x03
   26F6 01                10449 	.db #0x01
   26F7 03                10450 	.db #0x03
   26F8 01                10451 	.db #0x01
   26F9 00                10452 	.db #0x00
   26FA 00                10453 	.db #0x00
   26FB 00                10454 	.db #0x00
   26FC 00                10455 	.db #0x00
   26FD 00                10456 	.db #0x00
   26FE 00                10457 	.db #0x00
   26FF 00                10458 	.db #0x00
   2700 00                10459 	.db #0x00
   2701 00                10460 	.db #0x00
   2702 00                10461 	.db #0x00
   2703 EC                10462 	.db #0xEC
   2704 70                10463 	.db #0x70
   2705 FC                10464 	.db #0xFC
   2706 FC                10465 	.db #0xFC
   2707 FC                10466 	.db #0xFC
   2708 FC                10467 	.db #0xFC
   2709 00                10468 	.db #0x00
   270A 00                10469 	.db #0x00
   270B 00                10470 	.db #0x00
   270C 00                10471 	.db #0x00
   270D 00                10472 	.db #0x00
   270E 00                10473 	.db #0x00
   270F 00                10474 	.db #0x00
   2710 00                10475 	.db #0x00
   2711 00                10476 	.db #0x00
   2712 00                10477 	.db #0x00
   2713 0F                10478 	.db #0x0F
   2714 00                10479 	.db #0x00
   2715 0F                10480 	.db #0x0F
   2716 0F                10481 	.db #0x0F
   2717 0F                10482 	.db #0x0F
   2718 0F                10483 	.db #0x0F
   2719 00                10484 	.db #0x00
   271A 00                10485 	.db #0x00
   271B 00                10486 	.db #0x00
   271C 00                10487 	.db #0x00
   271D 00                10488 	.db #0x00
   271E 00                10489 	.db #0x00
   271F 00                10490 	.db #0x00
   2720 00                10491 	.db #0x00
   2721 00                10492 	.db #0x00
   2722 00                10493 	.db #0x00
   2723 E0                10494 	.db #0xE0
   2724 00                10495 	.db #0x00
   2725 E0                10496 	.db #0xE0
   2726 E0                10497 	.db #0xE0
   2727 E0                10498 	.db #0xE0
   2728 E0                10499 	.db #0xE0
   2729 00                10500 	.db #0x00
   272A 00                10501 	.db #0x00
   272B 00                10502 	.db #0x00
   272C 00                10503 	.db #0x00
   272D 00                10504 	.db #0x00
   272E 00                10505 	.db #0x00
   272F 00                10506 	.db #0x00
   2730 00                10507 	.db #0x00
   2731 00                10508 	.db #0x00
   2732 00                10509 	.db #0x00
   2733                   10510 _credits_map:
   2733 00                10511 	.db #0x00
   2734 00                10512 	.db #0x00
   2735 00                10513 	.db #0x00
   2736 00                10514 	.db #0x00
   2737 00                10515 	.db #0x00
   2738 00                10516 	.db #0x00
   2739 00                10517 	.db #0x00
   273A 00                10518 	.db #0x00
   273B 00                10519 	.db #0x00
   273C 00                10520 	.db #0x00
   273D 00                10521 	.db #0x00
   273E 00                10522 	.db #0x00
   273F 00                10523 	.db #0x00
   2740 00                10524 	.db #0x00
   2741 00                10525 	.db #0x00
   2742 00                10526 	.db #0x00
   2743 00                10527 	.db #0x00
   2744 00                10528 	.db #0x00
   2745 00                10529 	.db #0x00
   2746 00                10530 	.db #0x00
   2747 00                10531 	.db #0x00
   2748 00                10532 	.db #0x00
   2749 00                10533 	.db #0x00
   274A 00                10534 	.db #0x00
   274B 00                10535 	.db #0x00
   274C 00                10536 	.db #0x00
   274D 00                10537 	.db #0x00
   274E 00                10538 	.db #0x00
   274F 00                10539 	.db #0x00
   2750 00                10540 	.db #0x00
   2751 00                10541 	.db #0x00
   2752 00                10542 	.db #0x00
   2753 00                10543 	.db #0x00
   2754 00                10544 	.db #0x00
   2755 00                10545 	.db #0x00
   2756 00                10546 	.db #0x00
   2757 00                10547 	.db #0x00
   2758 00                10548 	.db #0x00
   2759 00                10549 	.db #0x00
   275A 00                10550 	.db #0x00
   275B 00                10551 	.db #0x00
   275C 00                10552 	.db #0x00
   275D 00                10553 	.db #0x00
   275E 01                10554 	.db #0x01
   275F 02                10555 	.db #0x02
   2760 03                10556 	.db #0x03
   2761 00                10557 	.db #0x00
   2762 00                10558 	.db #0x00
   2763 00                10559 	.db #0x00
   2764 00                10560 	.db #0x00
   2765 00                10561 	.db #0x00
   2766 00                10562 	.db #0x00
   2767 00                10563 	.db #0x00
   2768 00                10564 	.db #0x00
   2769 04                10565 	.db #0x04
   276A 00                10566 	.db #0x00
   276B 00                10567 	.db #0x00
   276C 00                10568 	.db #0x00
   276D 00                10569 	.db #0x00
   276E 00                10570 	.db #0x00
   276F 00                10571 	.db #0x00
   2770 00                10572 	.db #0x00
   2771 05                10573 	.db #0x05
   2772 06                10574 	.db #0x06
   2773 07                10575 	.db #0x07
   2774 08                10576 	.db #0x08
   2775 09                10577 	.db #0x09
   2776 0A                10578 	.db #0x0A
   2777 0B                10579 	.db #0x0B
   2778 0C                10580 	.db #0x0C
   2779 0D                10581 	.db #0x0D
   277A 0E                10582 	.db #0x0E
   277B 0C                10583 	.db #0x0C
   277C 0F                10584 	.db #0x0F
   277D 10                10585 	.db #0x10
   277E 11                10586 	.db #0x11
   277F 12                10587 	.db #0x12
   2780 00                10588 	.db #0x00
   2781 00                10589 	.db #0x00
   2782 00                10590 	.db #0x00
   2783 00                10591 	.db #0x00
   2784 00                10592 	.db #0x00
   2785 13                10593 	.db #0x13
   2786 14                10594 	.db #0x14
   2787 15                10595 	.db #0x15
   2788 16                10596 	.db #0x16
   2789 17                10597 	.db #0x17
   278A 18                10598 	.db #0x18
   278B 19                10599 	.db #0x19
   278C 1A                10600 	.db #0x1A
   278D 1B                10601 	.db #0x1B
   278E 1C                10602 	.db #0x1C
   278F 1A                10603 	.db #0x1A
   2790 1D                10604 	.db #0x1D
   2791 1E                10605 	.db #0x1E
   2792 1A                10606 	.db #0x1A
   2793 1F                10607 	.db #0x1F
   2794 00                10608 	.db #0x00
   2795 00                10609 	.db #0x00
   2796 00                10610 	.db #0x00
   2797 00                10611 	.db #0x00
   2798 00                10612 	.db #0x00
   2799 00                10613 	.db #0x00
   279A 00                10614 	.db #0x00
   279B 00                10615 	.db #0x00
   279C 00                10616 	.db #0x00
   279D 00                10617 	.db #0x00
   279E 00                10618 	.db #0x00
   279F 00                10619 	.db #0x00
   27A0 00                10620 	.db #0x00
   27A1 00                10621 	.db #0x00
   27A2 00                10622 	.db #0x00
   27A3 00                10623 	.db #0x00
   27A4 20                10624 	.db #0x20
   27A5 00                10625 	.db #0x00
   27A6 00                10626 	.db #0x00
   27A7 00                10627 	.db #0x00
   27A8 00                10628 	.db #0x00
   27A9 00                10629 	.db #0x00
   27AA 00                10630 	.db #0x00
   27AB 00                10631 	.db #0x00
   27AC 00                10632 	.db #0x00
   27AD 00                10633 	.db #0x00
   27AE 00                10634 	.db #0x00
   27AF 00                10635 	.db #0x00
   27B0 21                10636 	.db #0x21
   27B1 22                10637 	.db #0x22
   27B2 23                10638 	.db #0x23
   27B3 24                10639 	.db #0x24
   27B4 25                10640 	.db #0x25
   27B5 26                10641 	.db #0x26
   27B6 27                10642 	.db #0x27
   27B7 28                10643 	.db #0x28
   27B8 29                10644 	.db #0x29
   27B9 00                10645 	.db #0x00
   27BA 00                10646 	.db #0x00
   27BB 00                10647 	.db #0x00
   27BC 00                10648 	.db #0x00
   27BD 00                10649 	.db #0x00
   27BE 00                10650 	.db #0x00
   27BF 00                10651 	.db #0x00
   27C0 00                10652 	.db #0x00
   27C1 00                10653 	.db #0x00
   27C2 00                10654 	.db #0x00
   27C3 00                10655 	.db #0x00
   27C4 2A                10656 	.db #0x2A
   27C5 2B                10657 	.db #0x2B
   27C6 2C                10658 	.db #0x2C
   27C7 2D                10659 	.db #0x2D
   27C8 2E                10660 	.db #0x2E
   27C9 2F                10661 	.db #0x2F
   27CA 30                10662 	.db #0x30
   27CB 31                10663 	.db #0x31
   27CC 32                10664 	.db #0x32
   27CD 00                10665 	.db #0x00
   27CE 00                10666 	.db #0x00
   27CF 00                10667 	.db #0x00
   27D0 00                10668 	.db #0x00
   27D1 00                10669 	.db #0x00
   27D2 00                10670 	.db #0x00
   27D3 00                10671 	.db #0x00
   27D4 00                10672 	.db #0x00
   27D5 00                10673 	.db #0x00
   27D6 00                10674 	.db #0x00
   27D7 00                10675 	.db #0x00
   27D8 33                10676 	.db #0x33
   27D9 34                10677 	.db #0x34
   27DA 35                10678 	.db #0x35
   27DB 36                10679 	.db #0x36
   27DC 37                10680 	.db #0x37
   27DD 38                10681 	.db #0x38
   27DE 39                10682 	.db #0x39
   27DF 3A                10683 	.db #0x3A
   27E0 3B                10684 	.db #0x3B
   27E1 00                10685 	.db #0x00
   27E2 00                10686 	.db #0x00
   27E3 00                10687 	.db #0x00
   27E4 00                10688 	.db #0x00
   27E5 00                10689 	.db #0x00
   27E6 00                10690 	.db #0x00
   27E7 00                10691 	.db #0x00
   27E8 00                10692 	.db #0x00
   27E9 00                10693 	.db #0x00
   27EA 00                10694 	.db #0x00
   27EB 04                10695 	.db #0x04
   27EC 3C                10696 	.db #0x3C
   27ED 3D                10697 	.db #0x3D
   27EE 00                10698 	.db #0x00
   27EF 3E                10699 	.db #0x3E
   27F0 00                10700 	.db #0x00
   27F1 00                10701 	.db #0x00
   27F2 00                10702 	.db #0x00
   27F3 00                10703 	.db #0x00
   27F4 3F                10704 	.db #0x3F
   27F5 40                10705 	.db #0x40
   27F6 41                10706 	.db #0x41
   27F7 00                10707 	.db #0x00
   27F8 00                10708 	.db #0x00
   27F9 00                10709 	.db #0x00
   27FA 00                10710 	.db #0x00
   27FB 00                10711 	.db #0x00
   27FC 00                10712 	.db #0x00
   27FD 00                10713 	.db #0x00
   27FE 00                10714 	.db #0x00
   27FF 10                10715 	.db #0x10
   2800 42                10716 	.db #0x42
   2801 43                10717 	.db #0x43
   2802 44                10718 	.db #0x44
   2803 45                10719 	.db #0x45
   2804 00                10720 	.db #0x00
   2805 46                10721 	.db #0x46
   2806 0C                10722 	.db #0x0C
   2807 47                10723 	.db #0x47
   2808 48                10724 	.db #0x48
   2809 49                10725 	.db #0x49
   280A 00                10726 	.db #0x00
   280B 00                10727 	.db #0x00
   280C 00                10728 	.db #0x00
   280D 00                10729 	.db #0x00
   280E 00                10730 	.db #0x00
   280F 00                10731 	.db #0x00
   2810 00                10732 	.db #0x00
   2811 00                10733 	.db #0x00
   2812 00                10734 	.db #0x00
   2813 1E                10735 	.db #0x1E
   2814 4A                10736 	.db #0x4A
   2815 4B                10737 	.db #0x4B
   2816 4C                10738 	.db #0x4C
   2817 4D                10739 	.db #0x4D
   2818 4E                10740 	.db #0x4E
   2819 4F                10741 	.db #0x4F
   281A 1A                10742 	.db #0x1A
   281B 50                10743 	.db #0x50
   281C 51                10744 	.db #0x51
   281D 52                10745 	.db #0x52
   281E 53                10746 	.db #0x53
   281F 00                10747 	.db #0x00
   2820 00                10748 	.db #0x00
   2821 00                10749 	.db #0x00
   2822 00                10750 	.db #0x00
   2823 54                10751 	.db #0x54
   2824 55                10752 	.db #0x55
   2825 56                10753 	.db #0x56
   2826 57                10754 	.db #0x57
   2827 58                10755 	.db #0x58
   2828 00                10756 	.db #0x00
   2829 54                10757 	.db #0x54
   282A 57                10758 	.db #0x57
   282B 00                10759 	.db #0x00
   282C 59                10760 	.db #0x59
   282D 00                10761 	.db #0x00
   282E 59                10762 	.db #0x59
   282F 5A                10763 	.db #0x5A
   2830 5B                10764 	.db #0x5B
   2831 00                10765 	.db #0x00
   2832 5C                10766 	.db #0x5C
   2833 5D                10767 	.db #0x5D
   2834 54                10768 	.db #0x54
   2835 57                10769 	.db #0x57
   2836 5E                10770 	.db #0x5E
   2837 5F                10771 	.db #0x5F
   2838 60                10772 	.db #0x60
   2839 61                10773 	.db #0x61
   283A 62                10774 	.db #0x62
   283B 63                10775 	.db #0x63
   283C 64                10776 	.db #0x64
   283D 65                10777 	.db #0x65
   283E 66                10778 	.db #0x66
   283F 67                10779 	.db #0x67
   2840 68                10780 	.db #0x68
   2841 69                10781 	.db #0x69
   2842 6A                10782 	.db #0x6A
   2843 6B                10783 	.db #0x6B
   2844 6C                10784 	.db #0x6C
   2845 6D                10785 	.db #0x6D
   2846 6E                10786 	.db #0x6E
   2847 6F                10787 	.db #0x6F
   2848 70                10788 	.db #0x70
   2849 71                10789 	.db #0x71
   284A 72                10790 	.db #0x72
   284B 73                10791 	.db #0x73
   284C 00                10792 	.db #0x00
   284D 74                10793 	.db #0x74
   284E 75                10794 	.db #0x75
   284F 76                10795 	.db #0x76
   2850 77                10796 	.db #0x77
   2851 78                10797 	.db #0x78
   2852 79                10798 	.db #0x79
   2853 10                10799 	.db #0x10
   2854 7A                10800 	.db #0x7A
   2855 7B                10801 	.db #0x7B
   2856 10                10802 	.db #0x10
   2857 7C                10803 	.db #0x7C
   2858 7D                10804 	.db #0x7D
   2859 7E                10805 	.db #0x7E
   285A 7F                10806 	.db #0x7F
   285B 80                10807 	.db #0x80
   285C 81                10808 	.db #0x81
   285D 00                10809 	.db #0x00
   285E 82                10810 	.db #0x82
   285F 83                10811 	.db #0x83
   2860 34                10812 	.db #0x34
   2861 84                10813 	.db #0x84
   2862 85                10814 	.db #0x85
   2863 86                10815 	.db #0x86
   2864 87                10816 	.db #0x87
   2865 34                10817 	.db #0x34
   2866 88                10818 	.db #0x88
   2867 89                10819 	.db #0x89
   2868 8A                10820 	.db #0x8A
   2869 8B                10821 	.db #0x8B
   286A 89                10822 	.db #0x89
   286B 8C                10823 	.db #0x8C
   286C 8D                10824 	.db #0x8D
   286D 00                10825 	.db #0x00
   286E 8E                10826 	.db #0x8E
   286F 8F                10827 	.db #0x8F
   2870 90                10828 	.db #0x90
   2871 34                10829 	.db #0x34
   2872 91                10830 	.db #0x91
   2873 00                10831 	.db #0x00
   2874 00                10832 	.db #0x00
   2875 00                10833 	.db #0x00
   2876 00                10834 	.db #0x00
   2877 00                10835 	.db #0x00
   2878 00                10836 	.db #0x00
   2879 00                10837 	.db #0x00
   287A 00                10838 	.db #0x00
   287B 00                10839 	.db #0x00
   287C 00                10840 	.db #0x00
   287D 00                10841 	.db #0x00
   287E 00                10842 	.db #0x00
   287F 00                10843 	.db #0x00
   2880 00                10844 	.db #0x00
   2881 00                10845 	.db #0x00
   2882 00                10846 	.db #0x00
   2883 00                10847 	.db #0x00
   2884 00                10848 	.db #0x00
   2885 00                10849 	.db #0x00
   2886 00                10850 	.db #0x00
   2887 00                10851 	.db #0x00
   2888 00                10852 	.db #0x00
   2889 00                10853 	.db #0x00
   288A 00                10854 	.db #0x00
   288B 00                10855 	.db #0x00
   288C 00                10856 	.db #0x00
   288D 00                10857 	.db #0x00
   288E 00                10858 	.db #0x00
   288F 00                10859 	.db #0x00
   2890 00                10860 	.db #0x00
   2891 00                10861 	.db #0x00
   2892 00                10862 	.db #0x00
   2893 00                10863 	.db #0x00
   2894 00                10864 	.db #0x00
   2895 00                10865 	.db #0x00
   2896 00                10866 	.db #0x00
   2897 00                10867 	.db #0x00
   2898 00                10868 	.db #0x00
   2899 00                10869 	.db #0x00
   289A 00                10870 	.db #0x00
   289B                   10871 _how_to_data:
   289B 00                10872 	.db #0x00
   289C 00                10873 	.db #0x00
   289D 00                10874 	.db #0x00
   289E 00                10875 	.db #0x00
   289F 00                10876 	.db #0x00
   28A0 00                10877 	.db #0x00
   28A1 00                10878 	.db #0x00
   28A2 00                10879 	.db #0x00
   28A3 00                10880 	.db #0x00
   28A4 00                10881 	.db #0x00
   28A5 00                10882 	.db #0x00
   28A6 00                10883 	.db #0x00
   28A7 00                10884 	.db #0x00
   28A8 00                10885 	.db #0x00
   28A9 00                10886 	.db #0x00
   28AA 00                10887 	.db #0x00
   28AB 00                10888 	.db #0x00
   28AC 00                10889 	.db #0x00
   28AD 00                10890 	.db #0x00
   28AE 00                10891 	.db #0x00
   28AF 00                10892 	.db #0x00
   28B0 00                10893 	.db #0x00
   28B1 03                10894 	.db #0x03
   28B2 03                10895 	.db #0x03
   28B3 00                10896 	.db #0x00
   28B4 03                10897 	.db #0x03
   28B5 00                10898 	.db #0x00
   28B6 00                10899 	.db #0x00
   28B7 00                10900 	.db #0x00
   28B8 00                10901 	.db #0x00
   28B9 00                10902 	.db #0x00
   28BA 00                10903 	.db #0x00
   28BB 00                10904 	.db #0x00
   28BC 00                10905 	.db #0x00
   28BD 00                10906 	.db #0x00
   28BE 00                10907 	.db #0x00
   28BF 00                10908 	.db #0x00
   28C0 00                10909 	.db #0x00
   28C1 FF                10910 	.db #0xFF
   28C2 FF                10911 	.db #0xFF
   28C3 C0                10912 	.db #0xC0
   28C4 FF                10913 	.db #0xFF
   28C5 80                10914 	.db #0x80
   28C6 C0                10915 	.db #0xC0
   28C7 80                10916 	.db #0x80
   28C8 C0                10917 	.db #0xC0
   28C9 80                10918 	.db #0x80
   28CA C0                10919 	.db #0xC0
   28CB 00                10920 	.db #0x00
   28CC 00                10921 	.db #0x00
   28CD 00                10922 	.db #0x00
   28CE 00                10923 	.db #0x00
   28CF 00                10924 	.db #0x00
   28D0 00                10925 	.db #0x00
   28D1 E0                10926 	.db #0xE0
   28D2 E0                10927 	.db #0xE0
   28D3 00                10928 	.db #0x00
   28D4 E0                10929 	.db #0xE0
   28D5 08                10930 	.db #0x08
   28D6 18                10931 	.db #0x18
   28D7 08                10932 	.db #0x08
   28D8 18                10933 	.db #0x18
   28D9 08                10934 	.db #0x08
   28DA 18                10935 	.db #0x18
   28DB 00                10936 	.db #0x00
   28DC 00                10937 	.db #0x00
   28DD 00                10938 	.db #0x00
   28DE 00                10939 	.db #0x00
   28DF 00                10940 	.db #0x00
   28E0 00                10941 	.db #0x00
   28E1 00                10942 	.db #0x00
   28E2 00                10943 	.db #0x00
   28E3 00                10944 	.db #0x00
   28E4 00                10945 	.db #0x00
   28E5 00                10946 	.db #0x00
   28E6 00                10947 	.db #0x00
   28E7 00                10948 	.db #0x00
   28E8 00                10949 	.db #0x00
   28E9 7F                10950 	.db #0x7F
   28EA 7F                10951 	.db #0x7F
   28EB 00                10952 	.db #0x00
   28EC 00                10953 	.db #0x00
   28ED 00                10954 	.db #0x00
   28EE 00                10955 	.db #0x00
   28EF 00                10956 	.db #0x00
   28F0 00                10957 	.db #0x00
   28F1 00                10958 	.db #0x00
   28F2 00                10959 	.db #0x00
   28F3 00                10960 	.db #0x00
   28F4 00                10961 	.db #0x00
   28F5 00                10962 	.db #0x00
   28F6 00                10963 	.db #0x00
   28F7 00                10964 	.db #0x00
   28F8 00                10965 	.db #0x00
   28F9 F0                10966 	.db #0xF0
   28FA F0                10967 	.db #0xF0
   28FB 00                10968 	.db #0x00
   28FC 00                10969 	.db #0x00
   28FD 00                10970 	.db #0x00
   28FE 00                10971 	.db #0x00
   28FF 00                10972 	.db #0x00
   2900 00                10973 	.db #0x00
   2901 00                10974 	.db #0x00
   2902 00                10975 	.db #0x00
   2903 00                10976 	.db #0x00
   2904 00                10977 	.db #0x00
   2905 00                10978 	.db #0x00
   2906 00                10979 	.db #0x00
   2907 00                10980 	.db #0x00
   2908 00                10981 	.db #0x00
   2909 3F                10982 	.db #0x3F
   290A 3F                10983 	.db #0x3F
   290B 00                10984 	.db #0x00
   290C 00                10985 	.db #0x00
   290D 00                10986 	.db #0x00
   290E 00                10987 	.db #0x00
   290F 00                10988 	.db #0x00
   2910 00                10989 	.db #0x00
   2911 00                10990 	.db #0x00
   2912 00                10991 	.db #0x00
   2913 00                10992 	.db #0x00
   2914 00                10993 	.db #0x00
   2915 00                10994 	.db #0x00
   2916 00                10995 	.db #0x00
   2917 00                10996 	.db #0x00
   2918 00                10997 	.db #0x00
   2919 E0                10998 	.db #0xE0
   291A E0                10999 	.db #0xE0
   291B 00                11000 	.db #0x00
   291C 00                11001 	.db #0x00
   291D 00                11002 	.db #0x00
   291E 00                11003 	.db #0x00
   291F 00                11004 	.db #0x00
   2920 00                11005 	.db #0x00
   2921 00                11006 	.db #0x00
   2922 00                11007 	.db #0x00
   2923 00                11008 	.db #0x00
   2924 00                11009 	.db #0x00
   2925 00                11010 	.db #0x00
   2926 00                11011 	.db #0x00
   2927 00                11012 	.db #0x00
   2928 00                11013 	.db #0x00
   2929 1F                11014 	.db #0x1F
   292A 1F                11015 	.db #0x1F
   292B 00                11016 	.db #0x00
   292C 00                11017 	.db #0x00
   292D 00                11018 	.db #0x00
   292E 00                11019 	.db #0x00
   292F 00                11020 	.db #0x00
   2930 00                11021 	.db #0x00
   2931 01                11022 	.db #0x01
   2932 03                11023 	.db #0x03
   2933 01                11024 	.db #0x01
   2934 03                11025 	.db #0x03
   2935 01                11026 	.db #0x01
   2936 03                11027 	.db #0x03
   2937 01                11028 	.db #0x01
   2938 03                11029 	.db #0x03
   2939 F1                11030 	.db #0xF1
   293A F3                11031 	.db #0xF3
   293B 80                11032 	.db #0x80
   293C C0                11033 	.db #0xC0
   293D 80                11034 	.db #0x80
   293E C0                11035 	.db #0xC0
   293F 80                11036 	.db #0x80
   2940 C0                11037 	.db #0xC0
   2941 FF                11038 	.db #0xFF
   2942 FF                11039 	.db #0xFF
   2943 C1                11040 	.db #0xC1
   2944 FF                11041 	.db #0xFF
   2945 80                11042 	.db #0x80
   2946 C1                11043 	.db #0xC1
   2947 80                11044 	.db #0x80
   2948 C0                11045 	.db #0xC0
   2949 80                11046 	.db #0x80
   294A C0                11047 	.db #0xC0
   294B 08                11048 	.db #0x08
   294C 18                11049 	.db #0x18
   294D 09                11050 	.db #0x09
   294E 19                11051 	.db #0x19
   294F 09                11052 	.db #0x09
   2950 19                11053 	.db #0x19
   2951 E1                11054 	.db #0xE1
   2952 E1                11055 	.db #0xE1
   2953 81                11056 	.db #0x81
   2954 E1                11057 	.db #0xE1
   2955 81                11058 	.db #0x81
   2956 81                11059 	.db #0x81
   2957 A1                11060 	.db #0xA1
   2958 01                11061 	.db #0x01
   2959 21                11062 	.db #0x21
   295A 61                11063 	.db #0x61
   295B 00                11064 	.db #0x00
   295C 7F                11065 	.db #0x7F
   295D 00                11066 	.db #0x00
   295E 80                11067 	.db #0x80
   295F 00                11068 	.db #0x00
   2960 80                11069 	.db #0x80
   2961 FF                11070 	.db #0xFF
   2962 FF                11071 	.db #0xFF
   2963 80                11072 	.db #0x80
   2964 FF                11073 	.db #0xFF
   2965 00                11074 	.db #0x00
   2966 80                11075 	.db #0x80
   2967 00                11076 	.db #0x00
   2968 80                11077 	.db #0x80
   2969 00                11078 	.db #0x00
   296A 80                11079 	.db #0x80
   296B 00                11080 	.db #0x00
   296C F0                11081 	.db #0xF0
   296D 04                11082 	.db #0x04
   296E 0C                11083 	.db #0x0C
   296F 04                11084 	.db #0x04
   2970 0C                11085 	.db #0x0C
   2971 FC                11086 	.db #0xFC
   2972 FC                11087 	.db #0xFC
   2973 00                11088 	.db #0x00
   2974 FC                11089 	.db #0xFC
   2975 00                11090 	.db #0x00
   2976 00                11091 	.db #0x00
   2977 08                11092 	.db #0x08
   2978 04                11093 	.db #0x04
   2979 04                11094 	.db #0x04
   297A 0C                11095 	.db #0x0C
   297B 00                11096 	.db #0x00
   297C 3F                11097 	.db #0x3F
   297D 00                11098 	.db #0x00
   297E 00                11099 	.db #0x00
   297F 00                11100 	.db #0x00
   2980 00                11101 	.db #0x00
   2981 3F                11102 	.db #0x3F
   2982 3F                11103 	.db #0x3F
   2983 80                11104 	.db #0x80
   2984 C0                11105 	.db #0xC0
   2985 80                11106 	.db #0x80
   2986 C0                11107 	.db #0xC0
   2987 80                11108 	.db #0x80
   2988 C0                11109 	.db #0xC0
   2989 80                11110 	.db #0x80
   298A C0                11111 	.db #0xC0
   298B 00                11112 	.db #0x00
   298C E0                11113 	.db #0xE0
   298D 08                11114 	.db #0x08
   298E 18                11115 	.db #0x18
   298F 08                11116 	.db #0x08
   2990 18                11117 	.db #0x18
   2991 F8                11118 	.db #0xF8
   2992 F8                11119 	.db #0xF8
   2993 08                11120 	.db #0x08
   2994 18                11121 	.db #0x18
   2995 08                11122 	.db #0x08
   2996 18                11123 	.db #0x18
   2997 08                11124 	.db #0x08
   2998 18                11125 	.db #0x18
   2999 08                11126 	.db #0x08
   299A 18                11127 	.db #0x18
   299B 00                11128 	.db #0x00
   299C 1F                11129 	.db #0x1F
   299D 40                11130 	.db #0x40
   299E 60                11131 	.db #0x60
   299F 40                11132 	.db #0x40
   29A0 60                11133 	.db #0x60
   29A1 40                11134 	.db #0x40
   29A2 60                11135 	.db #0x60
   29A3 40                11136 	.db #0x40
   29A4 60                11137 	.db #0x60
   29A5 40                11138 	.db #0x40
   29A6 60                11139 	.db #0x60
   29A7 40                11140 	.db #0x40
   29A8 60                11141 	.db #0x60
   29A9 40                11142 	.db #0x40
   29AA 60                11143 	.db #0x60
   29AB 01                11144 	.db #0x01
   29AC F3                11145 	.db #0xF3
   29AD 0F                11146 	.db #0x0F
   29AE 0F                11147 	.db #0x0F
   29AF 03                11148 	.db #0x03
   29B0 0F                11149 	.db #0x0F
   29B1 01                11150 	.db #0x01
   29B2 03                11151 	.db #0x03
   29B3 01                11152 	.db #0x01
   29B4 03                11153 	.db #0x03
   29B5 01                11154 	.db #0x01
   29B6 03                11155 	.db #0x03
   29B7 03                11156 	.db #0x03
   29B8 0F                11157 	.db #0x0F
   29B9 0F                11158 	.db #0x0F
   29BA 0F                11159 	.db #0x0F
   29BB 00                11160 	.db #0x00
   29BC 03                11161 	.db #0x03
   29BD 03                11162 	.db #0x03
   29BE 03                11163 	.db #0x03
   29BF 00                11164 	.db #0x00
   29C0 00                11165 	.db #0x00
   29C1 00                11166 	.db #0x00
   29C2 00                11167 	.db #0x00
   29C3 00                11168 	.db #0x00
   29C4 00                11169 	.db #0x00
   29C5 00                11170 	.db #0x00
   29C6 00                11171 	.db #0x00
   29C7 00                11172 	.db #0x00
   29C8 00                11173 	.db #0x00
   29C9 00                11174 	.db #0x00
   29CA 00                11175 	.db #0x00
   29CB C1                11176 	.db #0xC1
   29CC F0                11177 	.db #0xF0
   29CD F0                11178 	.db #0xF0
   29CE F1                11179 	.db #0xF1
   29CF 00                11180 	.db #0x00
   29D0 00                11181 	.db #0x00
   29D1 00                11182 	.db #0x00
   29D2 00                11183 	.db #0x00
   29D3 00                11184 	.db #0x00
   29D4 00                11185 	.db #0x00
   29D5 00                11186 	.db #0x00
   29D6 00                11187 	.db #0x00
   29D7 00                11188 	.db #0x00
   29D8 00                11189 	.db #0x00
   29D9 00                11190 	.db #0x00
   29DA 00                11191 	.db #0x00
   29DB 60                11192 	.db #0x60
   29DC F8                11193 	.db #0xF8
   29DD F8                11194 	.db #0xF8
   29DE F8                11195 	.db #0xF8
   29DF 00                11196 	.db #0x00
   29E0 00                11197 	.db #0x00
   29E1 00                11198 	.db #0x00
   29E2 00                11199 	.db #0x00
   29E3 00                11200 	.db #0x00
   29E4 00                11201 	.db #0x00
   29E5 00                11202 	.db #0x00
   29E6 00                11203 	.db #0x00
   29E7 00                11204 	.db #0x00
   29E8 00                11205 	.db #0x00
   29E9 00                11206 	.db #0x00
   29EA 00                11207 	.db #0x00
   29EB 00                11208 	.db #0x00
   29EC 7F                11209 	.db #0x7F
   29ED 7F                11210 	.db #0x7F
   29EE 7F                11211 	.db #0x7F
   29EF 00                11212 	.db #0x00
   29F0 00                11213 	.db #0x00
   29F1 00                11214 	.db #0x00
   29F2 00                11215 	.db #0x00
   29F3 00                11216 	.db #0x00
   29F4 00                11217 	.db #0x00
   29F5 00                11218 	.db #0x00
   29F6 00                11219 	.db #0x00
   29F7 00                11220 	.db #0x00
   29F8 00                11221 	.db #0x00
   29F9 00                11222 	.db #0x00
   29FA 00                11223 	.db #0x00
   29FB 00                11224 	.db #0x00
   29FC F0                11225 	.db #0xF0
   29FD F0                11226 	.db #0xF0
   29FE F0                11227 	.db #0xF0
   29FF 00                11228 	.db #0x00
   2A00 00                11229 	.db #0x00
   2A01 00                11230 	.db #0x00
   2A02 00                11231 	.db #0x00
   2A03 00                11232 	.db #0x00
   2A04 00                11233 	.db #0x00
   2A05 00                11234 	.db #0x00
   2A06 00                11235 	.db #0x00
   2A07 00                11236 	.db #0x00
   2A08 00                11237 	.db #0x00
   2A09 00                11238 	.db #0x00
   2A0A 00                11239 	.db #0x00
   2A0B 00                11240 	.db #0x00
   2A0C 3F                11241 	.db #0x3F
   2A0D 3F                11242 	.db #0x3F
   2A0E 3F                11243 	.db #0x3F
   2A0F 00                11244 	.db #0x00
   2A10 00                11245 	.db #0x00
   2A11 00                11246 	.db #0x00
   2A12 00                11247 	.db #0x00
   2A13 00                11248 	.db #0x00
   2A14 00                11249 	.db #0x00
   2A15 00                11250 	.db #0x00
   2A16 00                11251 	.db #0x00
   2A17 00                11252 	.db #0x00
   2A18 00                11253 	.db #0x00
   2A19 00                11254 	.db #0x00
   2A1A 00                11255 	.db #0x00
   2A1B 18                11256 	.db #0x18
   2A1C FE                11257 	.db #0xFE
   2A1D FE                11258 	.db #0xFE
   2A1E FE                11259 	.db #0xFE
   2A1F 00                11260 	.db #0x00
   2A20 00                11261 	.db #0x00
   2A21 00                11262 	.db #0x00
   2A22 00                11263 	.db #0x00
   2A23 00                11264 	.db #0x00
   2A24 00                11265 	.db #0x00
   2A25 00                11266 	.db #0x00
   2A26 00                11267 	.db #0x00
   2A27 00                11268 	.db #0x00
   2A28 00                11269 	.db #0x00
   2A29 00                11270 	.db #0x00
   2A2A 00                11271 	.db #0x00
   2A2B 00                11272 	.db #0x00
   2A2C 1F                11273 	.db #0x1F
   2A2D 1F                11274 	.db #0x1F
   2A2E 1F                11275 	.db #0x1F
   2A2F 00                11276 	.db #0x00
   2A30 00                11277 	.db #0x00
   2A31 00                11278 	.db #0x00
   2A32 00                11279 	.db #0x00
   2A33 00                11280 	.db #0x00
   2A34 00                11281 	.db #0x00
   2A35 00                11282 	.db #0x00
   2A36 00                11283 	.db #0x00
   2A37 00                11284 	.db #0x00
   2A38 00                11285 	.db #0x00
   2A39 00                11286 	.db #0x00
   2A3A 00                11287 	.db #0x00
   2A3B 01                11288 	.db #0x01
   2A3C F3                11289 	.db #0xF3
   2A3D F1                11290 	.db #0xF1
   2A3E F3                11291 	.db #0xF3
   2A3F 00                11292 	.db #0x00
   2A40 00                11293 	.db #0x00
   2A41 00                11294 	.db #0x00
   2A42 00                11295 	.db #0x00
   2A43 00                11296 	.db #0x00
   2A44 00                11297 	.db #0x00
   2A45 00                11298 	.db #0x00
   2A46 00                11299 	.db #0x00
   2A47 00                11300 	.db #0x00
   2A48 00                11301 	.db #0x00
   2A49 00                11302 	.db #0x00
   2A4A 00                11303 	.db #0x00
   2A4B 3F                11304 	.db #0x3F
   2A4C 3F                11305 	.db #0x3F
   2A4D 0C                11306 	.db #0x0C
   2A4E 3F                11307 	.db #0x3F
   2A4F 08                11308 	.db #0x08
   2A50 0C                11309 	.db #0x0C
   2A51 08                11310 	.db #0x08
   2A52 0C                11311 	.db #0x0C
   2A53 08                11312 	.db #0x08
   2A54 0C                11313 	.db #0x0C
   2A55 08                11314 	.db #0x08
   2A56 0C                11315 	.db #0x0C
   2A57 0F                11316 	.db #0x0F
   2A58 0F                11317 	.db #0x0F
   2A59 0C                11318 	.db #0x0C
   2A5A 0F                11319 	.db #0x0F
   2A5B 1F                11320 	.db #0x1F
   2A5C 1F                11321 	.db #0x1F
   2A5D 06                11322 	.db #0x06
   2A5E 1F                11323 	.db #0x1F
   2A5F 02                11324 	.db #0x02
   2A60 06                11325 	.db #0x06
   2A61 02                11326 	.db #0x02
   2A62 06                11327 	.db #0x06
   2A63 02                11328 	.db #0x02
   2A64 06                11329 	.db #0x06
   2A65 02                11330 	.db #0x02
   2A66 06                11331 	.db #0x06
   2A67 FE                11332 	.db #0xFE
   2A68 FE                11333 	.db #0xFE
   2A69 06                11334 	.db #0x06
   2A6A FE                11335 	.db #0xFE
   2A6B 80                11336 	.db #0x80
   2A6C 80                11337 	.db #0x80
   2A6D 00                11338 	.db #0x00
   2A6E 80                11339 	.db #0x80
   2A6F 00                11340 	.db #0x00
   2A70 00                11341 	.db #0x00
   2A71 00                11342 	.db #0x00
   2A72 00                11343 	.db #0x00
   2A73 07                11344 	.db #0x07
   2A74 07                11345 	.db #0x07
   2A75 00                11346 	.db #0x00
   2A76 07                11347 	.db #0x07
   2A77 10                11348 	.db #0x10
   2A78 18                11349 	.db #0x18
   2A79 10                11350 	.db #0x10
   2A7A 18                11351 	.db #0x18
   2A7B 00                11352 	.db #0x00
   2A7C 00                11353 	.db #0x00
   2A7D 00                11354 	.db #0x00
   2A7E 00                11355 	.db #0x00
   2A7F 00                11356 	.db #0x00
   2A80 00                11357 	.db #0x00
   2A81 00                11358 	.db #0x00
   2A82 00                11359 	.db #0x00
   2A83 FF                11360 	.db #0xFF
   2A84 FF                11361 	.db #0xFF
   2A85 00                11362 	.db #0x00
   2A86 FF                11363 	.db #0xFF
   2A87 00                11364 	.db #0x00
   2A88 00                11365 	.db #0x00
   2A89 00                11366 	.db #0x00
   2A8A 00                11367 	.db #0x00
   2A8B 00                11368 	.db #0x00
   2A8C 00                11369 	.db #0x00
   2A8D 00                11370 	.db #0x00
   2A8E 00                11371 	.db #0x00
   2A8F 00                11372 	.db #0x00
   2A90 00                11373 	.db #0x00
   2A91 00                11374 	.db #0x00
   2A92 00                11375 	.db #0x00
   2A93 0F                11376 	.db #0x0F
   2A94 0F                11377 	.db #0x0F
   2A95 03                11378 	.db #0x03
   2A96 0F                11379 	.db #0x0F
   2A97 42                11380 	.db #0x42
   2A98 C3                11381 	.db #0xC3
   2A99 42                11382 	.db #0x42
   2A9A C3                11383 	.db #0xC3
   2A9B 00                11384 	.db #0x00
   2A9C 00                11385 	.db #0x00
   2A9D 00                11386 	.db #0x00
   2A9E 00                11387 	.db #0x00
   2A9F 00                11388 	.db #0x00
   2AA0 00                11389 	.db #0x00
   2AA1 00                11390 	.db #0x00
   2AA2 00                11391 	.db #0x00
   2AA3 87                11392 	.db #0x87
   2AA4 C7                11393 	.db #0xC7
   2AA5 41                11394 	.db #0x41
   2AA6 87                11395 	.db #0x87
   2AA7 00                11396 	.db #0x00
   2AA8 01                11397 	.db #0x01
   2AA9 20                11398 	.db #0x20
   2AAA 31                11399 	.db #0x31
   2AAB 00                11400 	.db #0x00
   2AAC 00                11401 	.db #0x00
   2AAD 00                11402 	.db #0x00
   2AAE 00                11403 	.db #0x00
   2AAF 00                11404 	.db #0x00
   2AB0 00                11405 	.db #0x00
   2AB1 00                11406 	.db #0x00
   2AB2 00                11407 	.db #0x00
   2AB3 E0                11408 	.db #0xE0
   2AB4 E0                11409 	.db #0xE0
   2AB5 80                11410 	.db #0x80
   2AB6 E0                11411 	.db #0xE0
   2AB7 80                11412 	.db #0x80
   2AB8 80                11413 	.db #0x80
   2AB9 80                11414 	.db #0x80
   2ABA 80                11415 	.db #0x80
   2ABB 07                11416 	.db #0x07
   2ABC 07                11417 	.db #0x07
   2ABD 06                11418 	.db #0x06
   2ABE 07                11419 	.db #0x07
   2ABF 04                11420 	.db #0x04
   2AC0 06                11421 	.db #0x06
   2AC1 06                11422 	.db #0x06
   2AC2 00                11423 	.db #0x00
   2AC3 00                11424 	.db #0x00
   2AC4 00                11425 	.db #0x00
   2AC5 00                11426 	.db #0x00
   2AC6 00                11427 	.db #0x00
   2AC7 00                11428 	.db #0x00
   2AC8 00                11429 	.db #0x00
   2AC9 00                11430 	.db #0x00
   2ACA 00                11431 	.db #0x00
   2ACB FF                11432 	.db #0xFF
   2ACC FF                11433 	.db #0xFF
   2ACD 0C                11434 	.db #0x0C
   2ACE FF                11435 	.db #0xFF
   2ACF 04                11436 	.db #0x04
   2AD0 0C                11437 	.db #0x0C
   2AD1 04                11438 	.db #0x04
   2AD2 0C                11439 	.db #0x0C
   2AD3 04                11440 	.db #0x04
   2AD4 0C                11441 	.db #0x0C
   2AD5 04                11442 	.db #0x04
   2AD6 0C                11443 	.db #0x0C
   2AD7 04                11444 	.db #0x04
   2AD8 0C                11445 	.db #0x0C
   2AD9 04                11446 	.db #0x04
   2ADA 0C                11447 	.db #0x0C
   2ADB F0                11448 	.db #0xF0
   2ADC F0                11449 	.db #0xF0
   2ADD 30                11450 	.db #0x30
   2ADE F0                11451 	.db #0xF0
   2ADF 10                11452 	.db #0x10
   2AE0 30                11453 	.db #0x30
   2AE1 30                11454 	.db #0x30
   2AE2 00                11455 	.db #0x00
   2AE3 00                11456 	.db #0x00
   2AE4 00                11457 	.db #0x00
   2AE5 00                11458 	.db #0x00
   2AE6 00                11459 	.db #0x00
   2AE7 02                11460 	.db #0x02
   2AE8 03                11461 	.db #0x03
   2AE9 02                11462 	.db #0x02
   2AEA 03                11463 	.db #0x03
   2AEB 00                11464 	.db #0x00
   2AEC 00                11465 	.db #0x00
   2AED 00                11466 	.db #0x00
   2AEE 00                11467 	.db #0x00
   2AEF 00                11468 	.db #0x00
   2AF0 00                11469 	.db #0x00
   2AF1 00                11470 	.db #0x00
   2AF2 00                11471 	.db #0x00
   2AF3 E0                11472 	.db #0xE0
   2AF4 E0                11473 	.db #0xE0
   2AF5 00                11474 	.db #0x00
   2AF6 E0                11475 	.db #0xE0
   2AF7 08                11476 	.db #0x08
   2AF8 18                11477 	.db #0x18
   2AF9 08                11478 	.db #0x08
   2AFA 18                11479 	.db #0x18
   2AFB 08                11480 	.db #0x08
   2AFC 0C                11481 	.db #0x0C
   2AFD 08                11482 	.db #0x08
   2AFE 0C                11483 	.db #0x0C
   2AFF 08                11484 	.db #0x08
   2B00 0C                11485 	.db #0x0C
   2B01 08                11486 	.db #0x08
   2B02 0C                11487 	.db #0x0C
   2B03 08                11488 	.db #0x08
   2B04 0C                11489 	.db #0x0C
   2B05 0C                11490 	.db #0x0C
   2B06 3F                11491 	.db #0x3F
   2B07 3F                11492 	.db #0x3F
   2B08 3F                11493 	.db #0x3F
   2B09 00                11494 	.db #0x00
   2B0A 00                11495 	.db #0x00
   2B0B 02                11496 	.db #0x02
   2B0C 06                11497 	.db #0x06
   2B0D 02                11498 	.db #0x02
   2B0E 06                11499 	.db #0x06
   2B0F 02                11500 	.db #0x02
   2B10 06                11501 	.db #0x06
   2B11 02                11502 	.db #0x02
   2B12 06                11503 	.db #0x06
   2B13 02                11504 	.db #0x02
   2B14 06                11505 	.db #0x06
   2B15 06                11506 	.db #0x06
   2B16 1F                11507 	.db #0x1F
   2B17 1F                11508 	.db #0x1F
   2B18 1F                11509 	.db #0x1F
   2B19 00                11510 	.db #0x00
   2B1A 00                11511 	.db #0x00
   2B1B 10                11512 	.db #0x10
   2B1C 18                11513 	.db #0x18
   2B1D 10                11514 	.db #0x10
   2B1E 18                11515 	.db #0x18
   2B1F 10                11516 	.db #0x10
   2B20 18                11517 	.db #0x18
   2B21 10                11518 	.db #0x10
   2B22 18                11519 	.db #0x18
   2B23 10                11520 	.db #0x10
   2B24 18                11521 	.db #0x18
   2B25 00                11522 	.db #0x00
   2B26 87                11523 	.db #0x87
   2B27 87                11524 	.db #0x87
   2B28 87                11525 	.db #0x87
   2B29 00                11526 	.db #0x00
   2B2A 00                11527 	.db #0x00
   2B2B 00                11528 	.db #0x00
   2B2C 00                11529 	.db #0x00
   2B2D 00                11530 	.db #0x00
   2B2E 00                11531 	.db #0x00
   2B2F 00                11532 	.db #0x00
   2B30 00                11533 	.db #0x00
   2B31 00                11534 	.db #0x00
   2B32 00                11535 	.db #0x00
   2B33 00                11536 	.db #0x00
   2B34 00                11537 	.db #0x00
   2B35 00                11538 	.db #0x00
   2B36 FF                11539 	.db #0xFF
   2B37 FF                11540 	.db #0xFF
   2B38 FF                11541 	.db #0xFF
   2B39 00                11542 	.db #0x00
   2B3A 00                11543 	.db #0x00
   2B3B 42                11544 	.db #0x42
   2B3C C3                11545 	.db #0xC3
   2B3D 42                11546 	.db #0x42
   2B3E C3                11547 	.db #0xC3
   2B3F 42                11548 	.db #0x42
   2B40 C3                11549 	.db #0xC3
   2B41 42                11550 	.db #0x42
   2B42 C3                11551 	.db #0xC3
   2B43 42                11552 	.db #0x42
   2B44 C3                11553 	.db #0xC3
   2B45 00                11554 	.db #0x00
   2B46 00                11555 	.db #0x00
   2B47 00                11556 	.db #0x00
   2B48 00                11557 	.db #0x00
   2B49 00                11558 	.db #0x00
   2B4A 00                11559 	.db #0x00
   2B4B 20                11560 	.db #0x20
   2B4C 31                11561 	.db #0x31
   2B4D 20                11562 	.db #0x20
   2B4E 31                11563 	.db #0x31
   2B4F 20                11564 	.db #0x20
   2B50 31                11565 	.db #0x31
   2B51 20                11566 	.db #0x20
   2B52 31                11567 	.db #0x31
   2B53 20                11568 	.db #0x20
   2B54 31                11569 	.db #0x31
   2B55 40                11570 	.db #0x40
   2B56 8E                11571 	.db #0x8E
   2B57 8E                11572 	.db #0x8E
   2B58 CE                11573 	.db #0xCE
   2B59 00                11574 	.db #0x00
   2B5A 00                11575 	.db #0x00
   2B5B 80                11576 	.db #0x80
   2B5C 80                11577 	.db #0x80
   2B5D 80                11578 	.db #0x80
   2B5E 80                11579 	.db #0x80
   2B5F 80                11580 	.db #0x80
   2B60 80                11581 	.db #0x80
   2B61 80                11582 	.db #0x80
   2B62 80                11583 	.db #0x80
   2B63 80                11584 	.db #0x80
   2B64 80                11585 	.db #0x80
   2B65 00                11586 	.db #0x00
   2B66 00                11587 	.db #0x00
   2B67 00                11588 	.db #0x00
   2B68 00                11589 	.db #0x00
   2B69 00                11590 	.db #0x00
   2B6A 00                11591 	.db #0x00
   2B6B 04                11592 	.db #0x04
   2B6C 0C                11593 	.db #0x0C
   2B6D 04                11594 	.db #0x04
   2B6E 0C                11595 	.db #0x0C
   2B6F 04                11596 	.db #0x04
   2B70 0C                11597 	.db #0x0C
   2B71 04                11598 	.db #0x04
   2B72 0C                11599 	.db #0x0C
   2B73 04                11600 	.db #0x04
   2B74 0C                11601 	.db #0x0C
   2B75 0C                11602 	.db #0x0C
   2B76 3F                11603 	.db #0x3F
   2B77 3F                11604 	.db #0x3F
   2B78 3F                11605 	.db #0x3F
   2B79 00                11606 	.db #0x00
   2B7A 00                11607 	.db #0x00
   2B7B 02                11608 	.db #0x02
   2B7C 03                11609 	.db #0x03
   2B7D 02                11610 	.db #0x02
   2B7E 03                11611 	.db #0x03
   2B7F 02                11612 	.db #0x02
   2B80 03                11613 	.db #0x03
   2B81 02                11614 	.db #0x02
   2B82 03                11615 	.db #0x03
   2B83 02                11616 	.db #0x02
   2B84 03                11617 	.db #0x03
   2B85 00                11618 	.db #0x00
   2B86 00                11619 	.db #0x00
   2B87 00                11620 	.db #0x00
   2B88 00                11621 	.db #0x00
   2B89 00                11622 	.db #0x00
   2B8A 00                11623 	.db #0x00
   2B8B 08                11624 	.db #0x08
   2B8C 18                11625 	.db #0x18
   2B8D 08                11626 	.db #0x08
   2B8E 18                11627 	.db #0x18
   2B8F 08                11628 	.db #0x08
   2B90 18                11629 	.db #0x18
   2B91 08                11630 	.db #0x08
   2B92 18                11631 	.db #0x18
   2B93 08                11632 	.db #0x08
   2B94 18                11633 	.db #0x18
   2B95 00                11634 	.db #0x00
   2B96 E0                11635 	.db #0xE0
   2B97 E0                11636 	.db #0xE0
   2B98 E0                11637 	.db #0xE0
   2B99 00                11638 	.db #0x00
   2B9A 00                11639 	.db #0x00
   2B9B 00                11640 	.db #0x00
   2B9C 00                11641 	.db #0x00
   2B9D 00                11642 	.db #0x00
   2B9E 00                11643 	.db #0x00
   2B9F 00                11644 	.db #0x00
   2BA0 00                11645 	.db #0x00
   2BA1 00                11646 	.db #0x00
   2BA2 00                11647 	.db #0x00
   2BA3 00                11648 	.db #0x00
   2BA4 00                11649 	.db #0x00
   2BA5 00                11650 	.db #0x00
   2BA6 00                11651 	.db #0x00
   2BA7 00                11652 	.db #0x00
   2BA8 00                11653 	.db #0x00
   2BA9 00                11654 	.db #0x00
   2BAA 01                11655 	.db #0x01
   2BAB 00                11656 	.db #0x00
   2BAC 00                11657 	.db #0x00
   2BAD 00                11658 	.db #0x00
   2BAE 00                11659 	.db #0x00
   2BAF 00                11660 	.db #0x00
   2BB0 00                11661 	.db #0x00
   2BB1 00                11662 	.db #0x00
   2BB2 00                11663 	.db #0x00
   2BB3 00                11664 	.db #0x00
   2BB4 00                11665 	.db #0x00
   2BB5 7F                11666 	.db #0x7F
   2BB6 7F                11667 	.db #0x7F
   2BB7 00                11668 	.db #0x00
   2BB8 7F                11669 	.db #0x7F
   2BB9 80                11670 	.db #0x80
   2BBA 00                11671 	.db #0x00
   2BBB 00                11672 	.db #0x00
   2BBC 00                11673 	.db #0x00
   2BBD 00                11674 	.db #0x00
   2BBE 00                11675 	.db #0x00
   2BBF 00                11676 	.db #0x00
   2BC0 00                11677 	.db #0x00
   2BC1 00                11678 	.db #0x00
   2BC2 00                11679 	.db #0x00
   2BC3 00                11680 	.db #0x00
   2BC4 00                11681 	.db #0x00
   2BC5 00                11682 	.db #0x00
   2BC6 00                11683 	.db #0x00
   2BC7 00                11684 	.db #0x00
   2BC8 00                11685 	.db #0x00
   2BC9 80                11686 	.db #0x80
   2BCA 40                11687 	.db #0x40
   2BCB 00                11688 	.db #0x00
   2BCC 00                11689 	.db #0x00
   2BCD 00                11690 	.db #0x00
   2BCE 00                11691 	.db #0x00
   2BCF 00                11692 	.db #0x00
   2BD0 00                11693 	.db #0x00
   2BD1 00                11694 	.db #0x00
   2BD2 00                11695 	.db #0x00
   2BD3 00                11696 	.db #0x00
   2BD4 00                11697 	.db #0x00
   2BD5 07                11698 	.db #0x07
   2BD6 07                11699 	.db #0x07
   2BD7 01                11700 	.db #0x01
   2BD8 07                11701 	.db #0x07
   2BD9 01                11702 	.db #0x01
   2BDA 01                11703 	.db #0x01
   2BDB 00                11704 	.db #0x00
   2BDC 00                11705 	.db #0x00
   2BDD 00                11706 	.db #0x00
   2BDE 00                11707 	.db #0x00
   2BDF 00                11708 	.db #0x00
   2BE0 00                11709 	.db #0x00
   2BE1 00                11710 	.db #0x00
   2BE2 00                11711 	.db #0x00
   2BE3 00                11712 	.db #0x00
   2BE4 00                11713 	.db #0x00
   2BE5 00                11714 	.db #0x00
   2BE6 80                11715 	.db #0x80
   2BE7 00                11716 	.db #0x00
   2BE8 80                11717 	.db #0x80
   2BE9 00                11718 	.db #0x00
   2BEA 80                11719 	.db #0x80
   2BEB 00                11720 	.db #0x00
   2BEC 00                11721 	.db #0x00
   2BED 00                11722 	.db #0x00
   2BEE 00                11723 	.db #0x00
   2BEF 00                11724 	.db #0x00
   2BF0 00                11725 	.db #0x00
   2BF1 00                11726 	.db #0x00
   2BF2 00                11727 	.db #0x00
   2BF3 00                11728 	.db #0x00
   2BF4 00                11729 	.db #0x00
   2BF5 02                11730 	.db #0x02
   2BF6 03                11731 	.db #0x03
   2BF7 01                11732 	.db #0x01
   2BF8 02                11733 	.db #0x02
   2BF9 00                11734 	.db #0x00
   2BFA 00                11735 	.db #0x00
   2BFB 01                11736 	.db #0x01
   2BFC 01                11737 	.db #0x01
   2BFD 04                11738 	.db #0x04
   2BFE 06                11739 	.db #0x06
   2BFF 04                11740 	.db #0x04
   2C00 06                11741 	.db #0x06
   2C01 04                11742 	.db #0x04
   2C02 06                11743 	.db #0x06
   2C03 04                11744 	.db #0x04
   2C04 06                11745 	.db #0x06
   2C05 04                11746 	.db #0x04
   2C06 06                11747 	.db #0x06
   2C07 04                11748 	.db #0x04
   2C08 06                11749 	.db #0x06
   2C09 04                11750 	.db #0x04
   2C0A 06                11751 	.db #0x06
   2C0B 00                11752 	.db #0x00
   2C0C 80                11753 	.db #0x80
   2C0D 00                11754 	.db #0x00
   2C0E 00                11755 	.db #0x00
   2C0F 00                11756 	.db #0x00
   2C10 00                11757 	.db #0x00
   2C11 00                11758 	.db #0x00
   2C12 00                11759 	.db #0x00
   2C13 00                11760 	.db #0x00
   2C14 00                11761 	.db #0x00
   2C15 00                11762 	.db #0x00
   2C16 00                11763 	.db #0x00
   2C17 00                11764 	.db #0x00
   2C18 00                11765 	.db #0x00
   2C19 00                11766 	.db #0x00
   2C1A 00                11767 	.db #0x00
   2C1B 40                11768 	.db #0x40
   2C1C C0                11769 	.db #0xC0
   2C1D 13                11770 	.db #0x13
   2C1E 33                11771 	.db #0x33
   2C1F 10                11772 	.db #0x10
   2C20 33                11773 	.db #0x33
   2C21 10                11774 	.db #0x10
   2C22 30                11775 	.db #0x30
   2C23 10                11776 	.db #0x10
   2C24 30                11777 	.db #0x30
   2C25 10                11778 	.db #0x10
   2C26 30                11779 	.db #0x30
   2C27 10                11780 	.db #0x10
   2C28 30                11781 	.db #0x30
   2C29 10                11782 	.db #0x10
   2C2A 30                11783 	.db #0x30
   2C2B 00                11784 	.db #0x00
   2C2C 00                11785 	.db #0x00
   2C2D 8F                11786 	.db #0x8F
   2C2E CF                11787 	.db #0xCF
   2C2F 80                11788 	.db #0x80
   2C30 CF                11789 	.db #0xCF
   2C31 F0                11790 	.db #0xF0
   2C32 F0                11791 	.db #0xF0
   2C33 C0                11792 	.db #0xC0
   2C34 F0                11793 	.db #0xF0
   2C35 80                11794 	.db #0x80
   2C36 C0                11795 	.db #0xC0
   2C37 80                11796 	.db #0x80
   2C38 C0                11797 	.db #0xC0
   2C39 80                11798 	.db #0x80
   2C3A C0                11799 	.db #0xC0
   2C3B 00                11800 	.db #0x00
   2C3C 00                11801 	.db #0x00
   2C3D 80                11802 	.db #0x80
   2C3E 80                11803 	.db #0x80
   2C3F 00                11804 	.db #0x00
   2C40 80                11805 	.db #0x80
   2C41 20                11806 	.db #0x20
   2C42 60                11807 	.db #0x60
   2C43 20                11808 	.db #0x20
   2C44 60                11809 	.db #0x60
   2C45 20                11810 	.db #0x20
   2C46 60                11811 	.db #0x60
   2C47 20                11812 	.db #0x20
   2C48 60                11813 	.db #0x60
   2C49 20                11814 	.db #0x20
   2C4A 60                11815 	.db #0x60
   2C4B 01                11816 	.db #0x01
   2C4C 01                11817 	.db #0x01
   2C4D 01                11818 	.db #0x01
   2C4E 01                11819 	.db #0x01
   2C4F 01                11820 	.db #0x01
   2C50 01                11821 	.db #0x01
   2C51 01                11822 	.db #0x01
   2C52 01                11823 	.db #0x01
   2C53 01                11824 	.db #0x01
   2C54 01                11825 	.db #0x01
   2C55 01                11826 	.db #0x01
   2C56 01                11827 	.db #0x01
   2C57 01                11828 	.db #0x01
   2C58 01                11829 	.db #0x01
   2C59 01                11830 	.db #0x01
   2C5A 01                11831 	.db #0x01
   2C5B 00                11832 	.db #0x00
   2C5C 80                11833 	.db #0x80
   2C5D 00                11834 	.db #0x00
   2C5E 80                11835 	.db #0x80
   2C5F 00                11836 	.db #0x00
   2C60 80                11837 	.db #0x80
   2C61 00                11838 	.db #0x00
   2C62 80                11839 	.db #0x80
   2C63 00                11840 	.db #0x00
   2C64 80                11841 	.db #0x80
   2C65 00                11842 	.db #0x00
   2C66 80                11843 	.db #0x80
   2C67 00                11844 	.db #0x00
   2C68 80                11845 	.db #0x80
   2C69 00                11846 	.db #0x00
   2C6A 80                11847 	.db #0x80
   2C6B 00                11848 	.db #0x00
   2C6C 00                11849 	.db #0x00
   2C6D 0E                11850 	.db #0x0E
   2C6E 0F                11851 	.db #0x0F
   2C6F 02                11852 	.db #0x02
   2C70 0F                11853 	.db #0x0F
   2C71 02                11854 	.db #0x02
   2C72 03                11855 	.db #0x03
   2C73 02                11856 	.db #0x02
   2C74 03                11857 	.db #0x03
   2C75 02                11858 	.db #0x02
   2C76 03                11859 	.db #0x03
   2C77 02                11860 	.db #0x02
   2C78 03                11861 	.db #0x03
   2C79 02                11862 	.db #0x02
   2C7A 03                11863 	.db #0x03
   2C7B 00                11864 	.db #0x00
   2C7C 00                11865 	.db #0x00
   2C7D 71                11866 	.db #0x71
   2C7E 79                11867 	.db #0x79
   2C7F 10                11868 	.db #0x10
   2C80 79                11869 	.db #0x79
   2C81 1E                11870 	.db #0x1E
   2C82 1E                11871 	.db #0x1E
   2C83 18                11872 	.db #0x18
   2C84 1E                11873 	.db #0x1E
   2C85 10                11874 	.db #0x10
   2C86 18                11875 	.db #0x18
   2C87 10                11876 	.db #0x10
   2C88 18                11877 	.db #0x18
   2C89 10                11878 	.db #0x10
   2C8A 18                11879 	.db #0x18
   2C8B 00                11880 	.db #0x00
   2C8C 00                11881 	.db #0x00
   2C8D F0                11882 	.db #0xF0
   2C8E F0                11883 	.db #0xF0
   2C8F 00                11884 	.db #0x00
   2C90 F0                11885 	.db #0xF0
   2C91 04                11886 	.db #0x04
   2C92 0C                11887 	.db #0x0C
   2C93 04                11888 	.db #0x04
   2C94 0C                11889 	.db #0x0C
   2C95 04                11890 	.db #0x04
   2C96 0C                11891 	.db #0x0C
   2C97 04                11892 	.db #0x04
   2C98 0C                11893 	.db #0x0C
   2C99 04                11894 	.db #0x04
   2C9A 0C                11895 	.db #0x0C
   2C9B 00                11896 	.db #0x00
   2C9C 00                11897 	.db #0x00
   2C9D 0F                11898 	.db #0x0F
   2C9E 0F                11899 	.db #0x0F
   2C9F 00                11900 	.db #0x00
   2CA0 0F                11901 	.db #0x0F
   2CA1 20                11902 	.db #0x20
   2CA2 30                11903 	.db #0x30
   2CA3 20                11904 	.db #0x20
   2CA4 30                11905 	.db #0x30
   2CA5 3F                11906 	.db #0x3F
   2CA6 3F                11907 	.db #0x3F
   2CA7 30                11908 	.db #0x30
   2CA8 3F                11909 	.db #0x3F
   2CA9 20                11910 	.db #0x20
   2CAA 30                11911 	.db #0x30
   2CAB 00                11912 	.db #0x00
   2CAC 00                11913 	.db #0x00
   2CAD FE                11914 	.db #0xFE
   2CAE FE                11915 	.db #0xFE
   2CAF 00                11916 	.db #0x00
   2CB0 FE                11917 	.db #0xFE
   2CB1 00                11918 	.db #0x00
   2CB2 01                11919 	.db #0x01
   2CB3 00                11920 	.db #0x00
   2CB4 01                11921 	.db #0x01
   2CB5 FF                11922 	.db #0xFF
   2CB6 FF                11923 	.db #0xFF
   2CB7 00                11924 	.db #0x00
   2CB8 FF                11925 	.db #0xFF
   2CB9 00                11926 	.db #0x00
   2CBA 00                11927 	.db #0x00
   2CBB 00                11928 	.db #0x00
   2CBC 00                11929 	.db #0x00
   2CBD 00                11930 	.db #0x00
   2CBE 00                11931 	.db #0x00
   2CBF 00                11932 	.db #0x00
   2CC0 00                11933 	.db #0x00
   2CC1 80                11934 	.db #0x80
   2CC2 80                11935 	.db #0x80
   2CC3 80                11936 	.db #0x80
   2CC4 80                11937 	.db #0x80
   2CC5 80                11938 	.db #0x80
   2CC6 80                11939 	.db #0x80
   2CC7 00                11940 	.db #0x00
   2CC8 80                11941 	.db #0x80
   2CC9 00                11942 	.db #0x00
   2CCA 00                11943 	.db #0x00
   2CCB 00                11944 	.db #0x00
   2CCC 01                11945 	.db #0x01
   2CCD 01                11946 	.db #0x01
   2CCE 01                11947 	.db #0x01
   2CCF 00                11948 	.db #0x00
   2CD0 00                11949 	.db #0x00
   2CD1 00                11950 	.db #0x00
   2CD2 00                11951 	.db #0x00
   2CD3 00                11952 	.db #0x00
   2CD4 00                11953 	.db #0x00
   2CD5 00                11954 	.db #0x00
   2CD6 00                11955 	.db #0x00
   2CD7 00                11956 	.db #0x00
   2CD8 00                11957 	.db #0x00
   2CD9 00                11958 	.db #0x00
   2CDA 00                11959 	.db #0x00
   2CDB 80                11960 	.db #0x80
   2CDC 00                11961 	.db #0x00
   2CDD 00                11962 	.db #0x00
   2CDE 80                11963 	.db #0x80
   2CDF 00                11964 	.db #0x00
   2CE0 7F                11965 	.db #0x7F
   2CE1 7F                11966 	.db #0x7F
   2CE2 7F                11967 	.db #0x7F
   2CE3 00                11968 	.db #0x00
   2CE4 00                11969 	.db #0x00
   2CE5 00                11970 	.db #0x00
   2CE6 00                11971 	.db #0x00
   2CE7 00                11972 	.db #0x00
   2CE8 00                11973 	.db #0x00
   2CE9 00                11974 	.db #0x00
   2CEA 00                11975 	.db #0x00
   2CEB 80                11976 	.db #0x80
   2CEC 40                11977 	.db #0x40
   2CED 40                11978 	.db #0x40
   2CEE C0                11979 	.db #0xC0
   2CEF 00                11980 	.db #0x00
   2CF0 03                11981 	.db #0x03
   2CF1 03                11982 	.db #0x03
   2CF2 03                11983 	.db #0x03
   2CF3 00                11984 	.db #0x00
   2CF4 00                11985 	.db #0x00
   2CF5 00                11986 	.db #0x00
   2CF6 00                11987 	.db #0x00
   2CF7 00                11988 	.db #0x00
   2CF8 00                11989 	.db #0x00
   2CF9 00                11990 	.db #0x00
   2CFA 00                11991 	.db #0x00
   2CFB 80                11992 	.db #0x80
   2CFC C0                11993 	.db #0xC0
   2CFD 80                11994 	.db #0x80
   2CFE C0                11995 	.db #0xC0
   2CFF C0                11996 	.db #0xC0
   2D00 F1                11997 	.db #0xF1
   2D01 F1                11998 	.db #0xF1
   2D02 F1                11999 	.db #0xF1
   2D03 00                12000 	.db #0x00
   2D04 00                12001 	.db #0x00
   2D05 00                12002 	.db #0x00
   2D06 00                12003 	.db #0x00
   2D07 00                12004 	.db #0x00
   2D08 00                12005 	.db #0x00
   2D09 00                12006 	.db #0x00
   2D0A 00                12007 	.db #0x00
   2D0B 20                12008 	.db #0x20
   2D0C 60                12009 	.db #0x60
   2D0D 20                12010 	.db #0x20
   2D0E 60                12011 	.db #0x60
   2D0F 60                12012 	.db #0x60
   2D10 F8                12013 	.db #0xF8
   2D11 F8                12014 	.db #0xF8
   2D12 F8                12015 	.db #0xF8
   2D13 00                12016 	.db #0x00
   2D14 00                12017 	.db #0x00
   2D15 00                12018 	.db #0x00
   2D16 00                12019 	.db #0x00
   2D17 00                12020 	.db #0x00
   2D18 00                12021 	.db #0x00
   2D19 00                12022 	.db #0x00
   2D1A 00                12023 	.db #0x00
   2D1B 01                12024 	.db #0x01
   2D1C 01                12025 	.db #0x01
   2D1D 01                12026 	.db #0x01
   2D1E 01                12027 	.db #0x01
   2D1F 01                12028 	.db #0x01
   2D20 7F                12029 	.db #0x7F
   2D21 7F                12030 	.db #0x7F
   2D22 7F                12031 	.db #0x7F
   2D23 00                12032 	.db #0x00
   2D24 00                12033 	.db #0x00
   2D25 00                12034 	.db #0x00
   2D26 00                12035 	.db #0x00
   2D27 00                12036 	.db #0x00
   2D28 00                12037 	.db #0x00
   2D29 00                12038 	.db #0x00
   2D2A 00                12039 	.db #0x00
   2D2B 00                12040 	.db #0x00
   2D2C 80                12041 	.db #0x80
   2D2D 00                12042 	.db #0x00
   2D2E 80                12043 	.db #0x80
   2D2F 80                12044 	.db #0x80
   2D30 FC                12045 	.db #0xFC
   2D31 FC                12046 	.db #0xFC
   2D32 FC                12047 	.db #0xFC
   2D33 00                12048 	.db #0x00
   2D34 00                12049 	.db #0x00
   2D35 00                12050 	.db #0x00
   2D36 00                12051 	.db #0x00
   2D37 00                12052 	.db #0x00
   2D38 00                12053 	.db #0x00
   2D39 00                12054 	.db #0x00
   2D3A 00                12055 	.db #0x00
   2D3B 02                12056 	.db #0x02
   2D3C 03                12057 	.db #0x03
   2D3D 02                12058 	.db #0x02
   2D3E 03                12059 	.db #0x03
   2D3F 03                12060 	.db #0x03
   2D40 3F                12061 	.db #0x3F
   2D41 3F                12062 	.db #0x3F
   2D42 3F                12063 	.db #0x3F
   2D43 00                12064 	.db #0x00
   2D44 00                12065 	.db #0x00
   2D45 00                12066 	.db #0x00
   2D46 00                12067 	.db #0x00
   2D47 00                12068 	.db #0x00
   2D48 00                12069 	.db #0x00
   2D49 00                12070 	.db #0x00
   2D4A 00                12071 	.db #0x00
   2D4B 00                12072 	.db #0x00
   2D4C 00                12073 	.db #0x00
   2D4D 00                12074 	.db #0x00
   2D4E 00                12075 	.db #0x00
   2D4F 00                12076 	.db #0x00
   2D50 E0                12077 	.db #0xE0
   2D51 E0                12078 	.db #0xE0
   2D52 E0                12079 	.db #0xE0
   2D53 00                12080 	.db #0x00
   2D54 00                12081 	.db #0x00
   2D55 00                12082 	.db #0x00
   2D56 00                12083 	.db #0x00
   2D57 00                12084 	.db #0x00
   2D58 00                12085 	.db #0x00
   2D59 00                12086 	.db #0x00
   2D5A 00                12087 	.db #0x00
   2D5B 10                12088 	.db #0x10
   2D5C 18                12089 	.db #0x18
   2D5D 10                12090 	.db #0x10
   2D5E 18                12091 	.db #0x18
   2D5F 18                12092 	.db #0x18
   2D60 7E                12093 	.db #0x7E
   2D61 7E                12094 	.db #0x7E
   2D62 7E                12095 	.db #0x7E
   2D63 00                12096 	.db #0x00
   2D64 00                12097 	.db #0x00
   2D65 00                12098 	.db #0x00
   2D66 00                12099 	.db #0x00
   2D67 00                12100 	.db #0x00
   2D68 00                12101 	.db #0x00
   2D69 00                12102 	.db #0x00
   2D6A 00                12103 	.db #0x00
   2D6B 04                12104 	.db #0x04
   2D6C 0C                12105 	.db #0x0C
   2D6D 04                12106 	.db #0x04
   2D6E 0C                12107 	.db #0x0C
   2D6F 0C                12108 	.db #0x0C
   2D70 3F                12109 	.db #0x3F
   2D71 3F                12110 	.db #0x3F
   2D72 3F                12111 	.db #0x3F
   2D73 00                12112 	.db #0x00
   2D74 00                12113 	.db #0x00
   2D75 00                12114 	.db #0x00
   2D76 00                12115 	.db #0x00
   2D77 00                12116 	.db #0x00
   2D78 00                12117 	.db #0x00
   2D79 00                12118 	.db #0x00
   2D7A 00                12119 	.db #0x00
   2D7B 20                12120 	.db #0x20
   2D7C 30                12121 	.db #0x30
   2D7D 20                12122 	.db #0x20
   2D7E 30                12123 	.db #0x30
   2D7F 00                12124 	.db #0x00
   2D80 0F                12125 	.db #0x0F
   2D81 0F                12126 	.db #0x0F
   2D82 0F                12127 	.db #0x0F
   2D83 00                12128 	.db #0x00
   2D84 00                12129 	.db #0x00
   2D85 00                12130 	.db #0x00
   2D86 00                12131 	.db #0x00
   2D87 00                12132 	.db #0x00
   2D88 00                12133 	.db #0x00
   2D89 00                12134 	.db #0x00
   2D8A 00                12135 	.db #0x00
   2D8B 01                12136 	.db #0x01
   2D8C 00                12137 	.db #0x00
   2D8D 00                12138 	.db #0x00
   2D8E 01                12139 	.db #0x01
   2D8F 00                12140 	.db #0x00
   2D90 FE                12141 	.db #0xFE
   2D91 FE                12142 	.db #0xFE
   2D92 FE                12143 	.db #0xFE
   2D93 00                12144 	.db #0x00
   2D94 00                12145 	.db #0x00
   2D95 00                12146 	.db #0x00
   2D96 00                12147 	.db #0x00
   2D97 00                12148 	.db #0x00
   2D98 00                12149 	.db #0x00
   2D99 00                12150 	.db #0x00
   2D9A 00                12151 	.db #0x00
   2D9B 00                12152 	.db #0x00
   2D9C 80                12153 	.db #0x80
   2D9D 80                12154 	.db #0x80
   2D9E 80                12155 	.db #0x80
   2D9F 00                12156 	.db #0x00
   2DA0 00                12157 	.db #0x00
   2DA1 00                12158 	.db #0x00
   2DA2 00                12159 	.db #0x00
   2DA3 00                12160 	.db #0x00
   2DA4 00                12161 	.db #0x00
   2DA5 00                12162 	.db #0x00
   2DA6 00                12163 	.db #0x00
   2DA7 00                12164 	.db #0x00
   2DA8 00                12165 	.db #0x00
   2DA9 00                12166 	.db #0x00
   2DAA 00                12167 	.db #0x00
   2DAB                   12168 _how_to_map:
   2DAB 00                12169 	.db #0x00
   2DAC 00                12170 	.db #0x00
   2DAD 00                12171 	.db #0x00
   2DAE 00                12172 	.db #0x00
   2DAF 00                12173 	.db #0x00
   2DB0 00                12174 	.db #0x00
   2DB1 00                12175 	.db #0x00
   2DB2 00                12176 	.db #0x00
   2DB3 00                12177 	.db #0x00
   2DB4 00                12178 	.db #0x00
   2DB5 00                12179 	.db #0x00
   2DB6 00                12180 	.db #0x00
   2DB7 00                12181 	.db #0x00
   2DB8 00                12182 	.db #0x00
   2DB9 00                12183 	.db #0x00
   2DBA 00                12184 	.db #0x00
   2DBB 00                12185 	.db #0x00
   2DBC 00                12186 	.db #0x00
   2DBD 00                12187 	.db #0x00
   2DBE 00                12188 	.db #0x00
   2DBF 00                12189 	.db #0x00
   2DC0 00                12190 	.db #0x00
   2DC1 00                12191 	.db #0x00
   2DC2 00                12192 	.db #0x00
   2DC3 00                12193 	.db #0x00
   2DC4 00                12194 	.db #0x00
   2DC5 00                12195 	.db #0x00
   2DC6 00                12196 	.db #0x00
   2DC7 00                12197 	.db #0x00
   2DC8 00                12198 	.db #0x00
   2DC9 00                12199 	.db #0x00
   2DCA 00                12200 	.db #0x00
   2DCB 00                12201 	.db #0x00
   2DCC 00                12202 	.db #0x00
   2DCD 00                12203 	.db #0x00
   2DCE 00                12204 	.db #0x00
   2DCF 00                12205 	.db #0x00
   2DD0 00                12206 	.db #0x00
   2DD1 00                12207 	.db #0x00
   2DD2 00                12208 	.db #0x00
   2DD3 00                12209 	.db #0x00
   2DD4 00                12210 	.db #0x00
   2DD5 00                12211 	.db #0x00
   2DD6 00                12212 	.db #0x00
   2DD7 00                12213 	.db #0x00
   2DD8 00                12214 	.db #0x00
   2DD9 00                12215 	.db #0x00
   2DDA 00                12216 	.db #0x00
   2DDB 00                12217 	.db #0x00
   2DDC 00                12218 	.db #0x00
   2DDD 00                12219 	.db #0x00
   2DDE 00                12220 	.db #0x00
   2DDF 00                12221 	.db #0x00
   2DE0 00                12222 	.db #0x00
   2DE1 00                12223 	.db #0x00
   2DE2 00                12224 	.db #0x00
   2DE3 00                12225 	.db #0x00
   2DE4 00                12226 	.db #0x00
   2DE5 00                12227 	.db #0x00
   2DE6 00                12228 	.db #0x00
   2DE7 00                12229 	.db #0x00
   2DE8 00                12230 	.db #0x00
   2DE9 00                12231 	.db #0x00
   2DEA 00                12232 	.db #0x00
   2DEB 00                12233 	.db #0x00
   2DEC 00                12234 	.db #0x00
   2DED 00                12235 	.db #0x00
   2DEE 00                12236 	.db #0x00
   2DEF 00                12237 	.db #0x00
   2DF0 00                12238 	.db #0x00
   2DF1 00                12239 	.db #0x00
   2DF2 00                12240 	.db #0x00
   2DF3 00                12241 	.db #0x00
   2DF4 00                12242 	.db #0x00
   2DF5 00                12243 	.db #0x00
   2DF6 00                12244 	.db #0x00
   2DF7 00                12245 	.db #0x00
   2DF8 00                12246 	.db #0x00
   2DF9 00                12247 	.db #0x00
   2DFA 00                12248 	.db #0x00
   2DFB 00                12249 	.db #0x00
   2DFC 00                12250 	.db #0x00
   2DFD 00                12251 	.db #0x00
   2DFE 00                12252 	.db #0x00
   2DFF 00                12253 	.db #0x00
   2E00 00                12254 	.db #0x00
   2E01 00                12255 	.db #0x00
   2E02 00                12256 	.db #0x00
   2E03 00                12257 	.db #0x00
   2E04 00                12258 	.db #0x00
   2E05 00                12259 	.db #0x00
   2E06 00                12260 	.db #0x00
   2E07 00                12261 	.db #0x00
   2E08 00                12262 	.db #0x00
   2E09 00                12263 	.db #0x00
   2E0A 00                12264 	.db #0x00
   2E0B 00                12265 	.db #0x00
   2E0C 00                12266 	.db #0x00
   2E0D 00                12267 	.db #0x00
   2E0E 00                12268 	.db #0x00
   2E0F 00                12269 	.db #0x00
   2E10 00                12270 	.db #0x00
   2E11 00                12271 	.db #0x00
   2E12 00                12272 	.db #0x00
   2E13 00                12273 	.db #0x00
   2E14 01                12274 	.db #0x01
   2E15 02                12275 	.db #0x02
   2E16 03                12276 	.db #0x03
   2E17 04                12277 	.db #0x04
   2E18 05                12278 	.db #0x05
   2E19 06                12279 	.db #0x06
   2E1A 07                12280 	.db #0x07
   2E1B 08                12281 	.db #0x08
   2E1C 09                12282 	.db #0x09
   2E1D 00                12283 	.db #0x00
   2E1E 00                12284 	.db #0x00
   2E1F 00                12285 	.db #0x00
   2E20 00                12286 	.db #0x00
   2E21 00                12287 	.db #0x00
   2E22 00                12288 	.db #0x00
   2E23 00                12289 	.db #0x00
   2E24 00                12290 	.db #0x00
   2E25 00                12291 	.db #0x00
   2E26 00                12292 	.db #0x00
   2E27 00                12293 	.db #0x00
   2E28 00                12294 	.db #0x00
   2E29 0A                12295 	.db #0x0A
   2E2A 0B                12296 	.db #0x0B
   2E2B 0C                12297 	.db #0x0C
   2E2C 0D                12298 	.db #0x0D
   2E2D 0E                12299 	.db #0x0E
   2E2E 0F                12300 	.db #0x0F
   2E2F 10                12301 	.db #0x10
   2E30 11                12302 	.db #0x11
   2E31 00                12303 	.db #0x00
   2E32 00                12304 	.db #0x00
   2E33 00                12305 	.db #0x00
   2E34 00                12306 	.db #0x00
   2E35 00                12307 	.db #0x00
   2E36 00                12308 	.db #0x00
   2E37 00                12309 	.db #0x00
   2E38 00                12310 	.db #0x00
   2E39 00                12311 	.db #0x00
   2E3A 00                12312 	.db #0x00
   2E3B 00                12313 	.db #0x00
   2E3C 12                12314 	.db #0x12
   2E3D 13                12315 	.db #0x13
   2E3E 14                12316 	.db #0x14
   2E3F 15                12317 	.db #0x15
   2E40 16                12318 	.db #0x16
   2E41 17                12319 	.db #0x17
   2E42 18                12320 	.db #0x18
   2E43 19                12321 	.db #0x19
   2E44 1A                12322 	.db #0x1A
   2E45 00                12323 	.db #0x00
   2E46 00                12324 	.db #0x00
   2E47 00                12325 	.db #0x00
   2E48 00                12326 	.db #0x00
   2E49 00                12327 	.db #0x00
   2E4A 00                12328 	.db #0x00
   2E4B 00                12329 	.db #0x00
   2E4C 00                12330 	.db #0x00
   2E4D 00                12331 	.db #0x00
   2E4E 00                12332 	.db #0x00
   2E4F 1B                12333 	.db #0x1B
   2E50 1C                12334 	.db #0x1C
   2E51 1D                12335 	.db #0x1D
   2E52 1E                12336 	.db #0x1E
   2E53 1F                12337 	.db #0x1F
   2E54 20                12338 	.db #0x20
   2E55 21                12339 	.db #0x21
   2E56 22                12340 	.db #0x22
   2E57 23                12341 	.db #0x23
   2E58 24                12342 	.db #0x24
   2E59 1E                12343 	.db #0x1E
   2E5A 25                12344 	.db #0x25
   2E5B 00                12345 	.db #0x00
   2E5C 00                12346 	.db #0x00
   2E5D 00                12347 	.db #0x00
   2E5E 00                12348 	.db #0x00
   2E5F 00                12349 	.db #0x00
   2E60 00                12350 	.db #0x00
   2E61 00                12351 	.db #0x00
   2E62 00                12352 	.db #0x00
   2E63 26                12353 	.db #0x26
   2E64 27                12354 	.db #0x27
   2E65 28                12355 	.db #0x28
   2E66 29                12356 	.db #0x29
   2E67 2A                12357 	.db #0x2A
   2E68 2B                12358 	.db #0x2B
   2E69 2C                12359 	.db #0x2C
   2E6A 00                12360 	.db #0x00
   2E6B 2D                12361 	.db #0x2D
   2E6C 2E                12362 	.db #0x2E
   2E6D 29                12363 	.db #0x29
   2E6E 2F                12364 	.db #0x2F
   2E6F 00                12365 	.db #0x00
   2E70 00                12366 	.db #0x00
   2E71 00                12367 	.db #0x00
   2E72 00                12368 	.db #0x00
   2E73 00                12369 	.db #0x00
   2E74 00                12370 	.db #0x00
   2E75 00                12371 	.db #0x00
   2E76 30                12372 	.db #0x30
   2E77 31                12373 	.db #0x31
   2E78 32                12374 	.db #0x32
   2E79 00                12375 	.db #0x00
   2E7A 00                12376 	.db #0x00
   2E7B 33                12377 	.db #0x33
   2E7C 34                12378 	.db #0x34
   2E7D 35                12379 	.db #0x35
   2E7E 00                12380 	.db #0x00
   2E7F 00                12381 	.db #0x00
   2E80 00                12382 	.db #0x00
   2E81 00                12383 	.db #0x00
   2E82 00                12384 	.db #0x00
   2E83 00                12385 	.db #0x00
   2E84 00                12386 	.db #0x00
   2E85 00                12387 	.db #0x00
   2E86 00                12388 	.db #0x00
   2E87 00                12389 	.db #0x00
   2E88 00                12390 	.db #0x00
   2E89 00                12391 	.db #0x00
   2E8A 36                12392 	.db #0x36
   2E8B 37                12393 	.db #0x37
   2E8C 38                12394 	.db #0x38
   2E8D 39                12395 	.db #0x39
   2E8E 3A                12396 	.db #0x3A
   2E8F 3B                12397 	.db #0x3B
   2E90 3C                12398 	.db #0x3C
   2E91 3D                12399 	.db #0x3D
   2E92 00                12400 	.db #0x00
   2E93 3E                12401 	.db #0x3E
   2E94 3F                12402 	.db #0x3F
   2E95 40                12403 	.db #0x40
   2E96 41                12404 	.db #0x41
   2E97 42                12405 	.db #0x42
   2E98 00                12406 	.db #0x00
   2E99 00                12407 	.db #0x00
   2E9A 00                12408 	.db #0x00
   2E9B 00                12409 	.db #0x00
   2E9C 00                12410 	.db #0x00
   2E9D 00                12411 	.db #0x00
   2E9E 43                12412 	.db #0x43
   2E9F 44                12413 	.db #0x44
   2EA0 45                12414 	.db #0x45
   2EA1 46                12415 	.db #0x46
   2EA2 47                12416 	.db #0x47
   2EA3 48                12417 	.db #0x48
   2EA4 49                12418 	.db #0x49
   2EA5 4A                12419 	.db #0x4A
   2EA6 4B                12420 	.db #0x4B
   2EA7 4C                12421 	.db #0x4C
   2EA8 4D                12422 	.db #0x4D
   2EA9 4E                12423 	.db #0x4E
   2EAA 4F                12424 	.db #0x4F
   2EAB 50                12425 	.db #0x50
   2EAC 00                12426 	.db #0x00
   2EAD 00                12427 	.db #0x00
   2EAE 00                12428 	.db #0x00
   2EAF 00                12429 	.db #0x00
   2EB0 00                12430 	.db #0x00
   2EB1 00                12431 	.db #0x00
   2EB2 00                12432 	.db #0x00
   2EB3 00                12433 	.db #0x00
   2EB4 00                12434 	.db #0x00
   2EB5 00                12435 	.db #0x00
   2EB6 00                12436 	.db #0x00
   2EB7 00                12437 	.db #0x00
   2EB8 00                12438 	.db #0x00
   2EB9 00                12439 	.db #0x00
   2EBA 00                12440 	.db #0x00
   2EBB 00                12441 	.db #0x00
   2EBC 00                12442 	.db #0x00
   2EBD 00                12443 	.db #0x00
   2EBE 00                12444 	.db #0x00
   2EBF 00                12445 	.db #0x00
   2EC0 00                12446 	.db #0x00
   2EC1 00                12447 	.db #0x00
   2EC2 00                12448 	.db #0x00
   2EC3 00                12449 	.db #0x00
   2EC4 00                12450 	.db #0x00
   2EC5 00                12451 	.db #0x00
   2EC6 00                12452 	.db #0x00
   2EC7 00                12453 	.db #0x00
   2EC8 00                12454 	.db #0x00
   2EC9 00                12455 	.db #0x00
   2ECA 00                12456 	.db #0x00
   2ECB 00                12457 	.db #0x00
   2ECC 00                12458 	.db #0x00
   2ECD 00                12459 	.db #0x00
   2ECE 00                12460 	.db #0x00
   2ECF 00                12461 	.db #0x00
   2ED0 00                12462 	.db #0x00
   2ED1 00                12463 	.db #0x00
   2ED2 00                12464 	.db #0x00
   2ED3 00                12465 	.db #0x00
   2ED4 00                12466 	.db #0x00
   2ED5 00                12467 	.db #0x00
   2ED6 00                12468 	.db #0x00
   2ED7 00                12469 	.db #0x00
   2ED8 00                12470 	.db #0x00
   2ED9 00                12471 	.db #0x00
   2EDA 00                12472 	.db #0x00
   2EDB 00                12473 	.db #0x00
   2EDC 00                12474 	.db #0x00
   2EDD 00                12475 	.db #0x00
   2EDE 00                12476 	.db #0x00
   2EDF 00                12477 	.db #0x00
   2EE0 00                12478 	.db #0x00
   2EE1 00                12479 	.db #0x00
   2EE2 00                12480 	.db #0x00
   2EE3 00                12481 	.db #0x00
   2EE4 00                12482 	.db #0x00
   2EE5 00                12483 	.db #0x00
   2EE6 00                12484 	.db #0x00
   2EE7 00                12485 	.db #0x00
   2EE8 00                12486 	.db #0x00
   2EE9 00                12487 	.db #0x00
   2EEA 00                12488 	.db #0x00
   2EEB 00                12489 	.db #0x00
   2EEC 00                12490 	.db #0x00
   2EED 00                12491 	.db #0x00
   2EEE 00                12492 	.db #0x00
   2EEF 00                12493 	.db #0x00
   2EF0 00                12494 	.db #0x00
   2EF1 00                12495 	.db #0x00
   2EF2 00                12496 	.db #0x00
   2EF3 00                12497 	.db #0x00
   2EF4 00                12498 	.db #0x00
   2EF5 00                12499 	.db #0x00
   2EF6 00                12500 	.db #0x00
   2EF7 00                12501 	.db #0x00
   2EF8 00                12502 	.db #0x00
   2EF9 00                12503 	.db #0x00
   2EFA 00                12504 	.db #0x00
   2EFB 00                12505 	.db #0x00
   2EFC 00                12506 	.db #0x00
   2EFD 00                12507 	.db #0x00
   2EFE 00                12508 	.db #0x00
   2EFF 00                12509 	.db #0x00
   2F00 00                12510 	.db #0x00
   2F01 00                12511 	.db #0x00
   2F02 00                12512 	.db #0x00
   2F03 00                12513 	.db #0x00
   2F04 00                12514 	.db #0x00
   2F05 00                12515 	.db #0x00
   2F06 00                12516 	.db #0x00
   2F07 00                12517 	.db #0x00
   2F08 00                12518 	.db #0x00
   2F09 00                12519 	.db #0x00
   2F0A 00                12520 	.db #0x00
   2F0B 00                12521 	.db #0x00
   2F0C 00                12522 	.db #0x00
   2F0D 00                12523 	.db #0x00
   2F0E 00                12524 	.db #0x00
   2F0F 00                12525 	.db #0x00
   2F10 00                12526 	.db #0x00
   2F11 00                12527 	.db #0x00
   2F12 00                12528 	.db #0x00
   2F13                   12529 _devil_laugh_data:
   2F13 00                12530 	.db #0x00
   2F14 00                12531 	.db #0x00
   2F15 00                12532 	.db #0x00
   2F16 00                12533 	.db #0x00
   2F17 00                12534 	.db #0x00
   2F18 00                12535 	.db #0x00
   2F19 00                12536 	.db #0x00
   2F1A 00                12537 	.db #0x00
   2F1B 00                12538 	.db #0x00
   2F1C 00                12539 	.db #0x00
   2F1D 00                12540 	.db #0x00
   2F1E 00                12541 	.db #0x00
   2F1F 00                12542 	.db #0x00
   2F20 00                12543 	.db #0x00
   2F21 00                12544 	.db #0x00
   2F22 00                12545 	.db #0x00
   2F23 00                12546 	.db #0x00
   2F24 00                12547 	.db #0x00
   2F25 00                12548 	.db #0x00
   2F26 00                12549 	.db #0x00
   2F27 00                12550 	.db #0x00
   2F28 00                12551 	.db #0x00
   2F29 00                12552 	.db #0x00
   2F2A 00                12553 	.db #0x00
   2F2B 00                12554 	.db #0x00
   2F2C 00                12555 	.db #0x00
   2F2D 00                12556 	.db #0x00
   2F2E 00                12557 	.db #0x00
   2F2F 08                12558 	.db #0x08
   2F30 08                12559 	.db #0x08
   2F31 08                12560 	.db #0x08
   2F32 08                12561 	.db #0x08
   2F33 00                12562 	.db #0x00
   2F34 00                12563 	.db #0x00
   2F35 00                12564 	.db #0x00
   2F36 00                12565 	.db #0x00
   2F37 00                12566 	.db #0x00
   2F38 00                12567 	.db #0x00
   2F39 00                12568 	.db #0x00
   2F3A 00                12569 	.db #0x00
   2F3B 00                12570 	.db #0x00
   2F3C 00                12571 	.db #0x00
   2F3D 00                12572 	.db #0x00
   2F3E 00                12573 	.db #0x00
   2F3F 00                12574 	.db #0x00
   2F40 00                12575 	.db #0x00
   2F41 30                12576 	.db #0x30
   2F42 30                12577 	.db #0x30
   2F43 00                12578 	.db #0x00
   2F44 00                12579 	.db #0x00
   2F45 00                12580 	.db #0x00
   2F46 00                12581 	.db #0x00
   2F47 00                12582 	.db #0x00
   2F48 00                12583 	.db #0x00
   2F49 04                12584 	.db #0x04
   2F4A 04                12585 	.db #0x04
   2F4B 02                12586 	.db #0x02
   2F4C 02                12587 	.db #0x02
   2F4D 03                12588 	.db #0x03
   2F4E 03                12589 	.db #0x03
   2F4F 01                12590 	.db #0x01
   2F50 01                12591 	.db #0x01
   2F51 00                12592 	.db #0x00
   2F52 00                12593 	.db #0x00
   2F53 08                12594 	.db #0x08
   2F54 08                12595 	.db #0x08
   2F55 08                12596 	.db #0x08
   2F56 08                12597 	.db #0x08
   2F57 08                12598 	.db #0x08
   2F58 08                12599 	.db #0x08
   2F59 00                12600 	.db #0x00
   2F5A 00                12601 	.db #0x00
   2F5B 00                12602 	.db #0x00
   2F5C 00                12603 	.db #0x00
   2F5D 00                12604 	.db #0x00
   2F5E 00                12605 	.db #0x00
   2F5F 00                12606 	.db #0x00
   2F60 00                12607 	.db #0x00
   2F61 00                12608 	.db #0x00
   2F62 00                12609 	.db #0x00
   2F63 00                12610 	.db #0x00
   2F64 00                12611 	.db #0x00
   2F65 00                12612 	.db #0x00
   2F66 00                12613 	.db #0x00
   2F67 00                12614 	.db #0x00
   2F68 00                12615 	.db #0x00
   2F69 01                12616 	.db #0x01
   2F6A 01                12617 	.db #0x01
   2F6B 03                12618 	.db #0x03
   2F6C 03                12619 	.db #0x03
   2F6D 03                12620 	.db #0x03
   2F6E 03                12621 	.db #0x03
   2F6F 02                12622 	.db #0x02
   2F70 02                12623 	.db #0x02
   2F71 06                12624 	.db #0x06
   2F72 06                12625 	.db #0x06
   2F73 00                12626 	.db #0x00
   2F74 00                12627 	.db #0x00
   2F75 00                12628 	.db #0x00
   2F76 00                12629 	.db #0x00
   2F77 C0                12630 	.db #0xC0
   2F78 C0                12631 	.db #0xC0
   2F79 A0                12632 	.db #0xA0
   2F7A A0                12633 	.db #0xA0
   2F7B 10                12634 	.db #0x10
   2F7C 10                12635 	.db #0x10
   2F7D 10                12636 	.db #0x10
   2F7E 10                12637 	.db #0x10
   2F7F 10                12638 	.db #0x10
   2F80 10                12639 	.db #0x10
   2F81 18                12640 	.db #0x18
   2F82 18                12641 	.db #0x18
   2F83 00                12642 	.db #0x00
   2F84 00                12643 	.db #0x00
   2F85 00                12644 	.db #0x00
   2F86 00                12645 	.db #0x00
   2F87 00                12646 	.db #0x00
   2F88 00                12647 	.db #0x00
   2F89 00                12648 	.db #0x00
   2F8A 00                12649 	.db #0x00
   2F8B 01                12650 	.db #0x01
   2F8C 01                12651 	.db #0x01
   2F8D 03                12652 	.db #0x03
   2F8E 03                12653 	.db #0x03
   2F8F 06                12654 	.db #0x06
   2F90 06                12655 	.db #0x06
   2F91 04                12656 	.db #0x04
   2F92 04                12657 	.db #0x04
   2F93 00                12658 	.db #0x00
   2F94 00                12659 	.db #0x00
   2F95 00                12660 	.db #0x00
   2F96 00                12661 	.db #0x00
   2F97 00                12662 	.db #0x00
   2F98 00                12663 	.db #0x00
   2F99 00                12664 	.db #0x00
   2F9A 00                12665 	.db #0x00
   2F9B 01                12666 	.db #0x01
   2F9C 01                12667 	.db #0x01
   2F9D 01                12668 	.db #0x01
   2F9E 01                12669 	.db #0x01
   2F9F 01                12670 	.db #0x01
   2FA0 01                12671 	.db #0x01
   2FA1 01                12672 	.db #0x01
   2FA2 01                12673 	.db #0x01
   2FA3 48                12674 	.db #0x48
   2FA4 48                12675 	.db #0x48
   2FA5 44                12676 	.db #0x44
   2FA6 44                12677 	.db #0x44
   2FA7 84                12678 	.db #0x84
   2FA8 84                12679 	.db #0x84
   2FA9 86                12680 	.db #0x86
   2FAA 86                12681 	.db #0x86
   2FAB 83                12682 	.db #0x83
   2FAC 83                12683 	.db #0x83
   2FAD 01                12684 	.db #0x01
   2FAE 01                12685 	.db #0x01
   2FAF 00                12686 	.db #0x00
   2FB0 00                12687 	.db #0x00
   2FB1 00                12688 	.db #0x00
   2FB2 00                12689 	.db #0x00
   2FB3 00                12690 	.db #0x00
   2FB4 00                12691 	.db #0x00
   2FB5 00                12692 	.db #0x00
   2FB6 00                12693 	.db #0x00
   2FB7 00                12694 	.db #0x00
   2FB8 00                12695 	.db #0x00
   2FB9 00                12696 	.db #0x00
   2FBA 00                12697 	.db #0x00
   2FBB 00                12698 	.db #0x00
   2FBC 00                12699 	.db #0x00
   2FBD 80                12700 	.db #0x80
   2FBE 80                12701 	.db #0x80
   2FBF 80                12702 	.db #0x80
   2FC0 80                12703 	.db #0x80
   2FC1 C0                12704 	.db #0xC0
   2FC2 C0                12705 	.db #0xC0
   2FC3 00                12706 	.db #0x00
   2FC4 00                12707 	.db #0x00
   2FC5 00                12708 	.db #0x00
   2FC6 00                12709 	.db #0x00
   2FC7 00                12710 	.db #0x00
   2FC8 00                12711 	.db #0x00
   2FC9 00                12712 	.db #0x00
   2FCA 00                12713 	.db #0x00
   2FCB 00                12714 	.db #0x00
   2FCC 00                12715 	.db #0x00
   2FCD 00                12716 	.db #0x00
   2FCE 00                12717 	.db #0x00
   2FCF 00                12718 	.db #0x00
   2FD0 00                12719 	.db #0x00
   2FD1 FF                12720 	.db #0xFF
   2FD2 FF                12721 	.db #0xFF
   2FD3 00                12722 	.db #0x00
   2FD4 00                12723 	.db #0x00
   2FD5 00                12724 	.db #0x00
   2FD6 00                12725 	.db #0x00
   2FD7 00                12726 	.db #0x00
   2FD8 00                12727 	.db #0x00
   2FD9 00                12728 	.db #0x00
   2FDA 00                12729 	.db #0x00
   2FDB 00                12730 	.db #0x00
   2FDC 00                12731 	.db #0x00
   2FDD 00                12732 	.db #0x00
   2FDE 00                12733 	.db #0x00
   2FDF 00                12734 	.db #0x00
   2FE0 00                12735 	.db #0x00
   2FE1 FE                12736 	.db #0xFE
   2FE2 FE                12737 	.db #0xFE
   2FE3 00                12738 	.db #0x00
   2FE4 00                12739 	.db #0x00
   2FE5 00                12740 	.db #0x00
   2FE6 00                12741 	.db #0x00
   2FE7 00                12742 	.db #0x00
   2FE8 00                12743 	.db #0x00
   2FE9 00                12744 	.db #0x00
   2FEA 00                12745 	.db #0x00
   2FEB 00                12746 	.db #0x00
   2FEC 00                12747 	.db #0x00
   2FED 00                12748 	.db #0x00
   2FEE 00                12749 	.db #0x00
   2FEF 01                12750 	.db #0x01
   2FF0 01                12751 	.db #0x01
   2FF1 03                12752 	.db #0x03
   2FF2 03                12753 	.db #0x03
   2FF3 04                12754 	.db #0x04
   2FF4 04                12755 	.db #0x04
   2FF5 08                12756 	.db #0x08
   2FF6 08                12757 	.db #0x08
   2FF7 18                12758 	.db #0x18
   2FF8 18                12759 	.db #0x18
   2FF9 30                12760 	.db #0x30
   2FFA 30                12761 	.db #0x30
   2FFB 60                12762 	.db #0x60
   2FFC 60                12763 	.db #0x60
   2FFD C0                12764 	.db #0xC0
   2FFE C0                12765 	.db #0xC0
   2FFF 80                12766 	.db #0x80
   3000 80                12767 	.db #0x80
   3001 00                12768 	.db #0x00
   3002 00                12769 	.db #0x00
   3003 08                12770 	.db #0x08
   3004 08                12771 	.db #0x08
   3005 08                12772 	.db #0x08
   3006 08                12773 	.db #0x08
   3007 08                12774 	.db #0x08
   3008 08                12775 	.db #0x08
   3009 08                12776 	.db #0x08
   300A 08                12777 	.db #0x08
   300B 08                12778 	.db #0x08
   300C 08                12779 	.db #0x08
   300D 08                12780 	.db #0x08
   300E 08                12781 	.db #0x08
   300F 18                12782 	.db #0x18
   3010 18                12783 	.db #0x18
   3011 10                12784 	.db #0x10
   3012 10                12785 	.db #0x10
   3013 08                12786 	.db #0x08
   3014 08                12787 	.db #0x08
   3015 00                12788 	.db #0x00
   3016 00                12789 	.db #0x00
   3017 00                12790 	.db #0x00
   3018 00                12791 	.db #0x00
   3019 00                12792 	.db #0x00
   301A 00                12793 	.db #0x00
   301B 00                12794 	.db #0x00
   301C 00                12795 	.db #0x00
   301D 00                12796 	.db #0x00
   301E 00                12797 	.db #0x00
   301F 00                12798 	.db #0x00
   3020 00                12799 	.db #0x00
   3021 00                12800 	.db #0x00
   3022 00                12801 	.db #0x00
   3023 00                12802 	.db #0x00
   3024 00                12803 	.db #0x00
   3025 00                12804 	.db #0x00
   3026 00                12805 	.db #0x00
   3027 00                12806 	.db #0x00
   3028 00                12807 	.db #0x00
   3029 00                12808 	.db #0x00
   302A 00                12809 	.db #0x00
   302B 00                12810 	.db #0x00
   302C 00                12811 	.db #0x00
   302D 18                12812 	.db #0x18
   302E 18                12813 	.db #0x18
   302F 30                12814 	.db #0x30
   3030 30                12815 	.db #0x30
   3031 60                12816 	.db #0x60
   3032 60                12817 	.db #0x60
   3033 00                12818 	.db #0x00
   3034 00                12819 	.db #0x00
   3035 00                12820 	.db #0x00
   3036 00                12821 	.db #0x00
   3037 00                12822 	.db #0x00
   3038 00                12823 	.db #0x00
   3039 30                12824 	.db #0x30
   303A 30                12825 	.db #0x30
   303B 18                12826 	.db #0x18
   303C 18                12827 	.db #0x18
   303D 0C                12828 	.db #0x0C
   303E 0C                12829 	.db #0x0C
   303F 03                12830 	.db #0x03
   3040 03                12831 	.db #0x03
   3041 01                12832 	.db #0x01
   3042 01                12833 	.db #0x01
   3043 01                12834 	.db #0x01
   3044 01                12835 	.db #0x01
   3045 01                12836 	.db #0x01
   3046 01                12837 	.db #0x01
   3047 01                12838 	.db #0x01
   3048 01                12839 	.db #0x01
   3049 01                12840 	.db #0x01
   304A 01                12841 	.db #0x01
   304B 00                12842 	.db #0x00
   304C 00                12843 	.db #0x00
   304D 00                12844 	.db #0x00
   304E 00                12845 	.db #0x00
   304F 00                12846 	.db #0x00
   3050 00                12847 	.db #0x00
   3051 80                12848 	.db #0x80
   3052 80                12849 	.db #0x80
   3053 00                12850 	.db #0x00
   3054 00                12851 	.db #0x00
   3055 00                12852 	.db #0x00
   3056 00                12853 	.db #0x00
   3057 00                12854 	.db #0x00
   3058 00                12855 	.db #0x00
   3059 80                12856 	.db #0x80
   305A 80                12857 	.db #0x80
   305B 80                12858 	.db #0x80
   305C 80                12859 	.db #0x80
   305D 80                12860 	.db #0x80
   305E 80                12861 	.db #0x80
   305F 80                12862 	.db #0x80
   3060 80                12863 	.db #0x80
   3061 80                12864 	.db #0x80
   3062 80                12865 	.db #0x80
   3063 60                12866 	.db #0x60
   3064 60                12867 	.db #0x60
   3065 31                12868 	.db #0x31
   3066 31                12869 	.db #0x31
   3067 1F                12870 	.db #0x1F
   3068 1F                12871 	.db #0x1F
   3069 07                12872 	.db #0x07
   306A 06                12873 	.db #0x06
   306B 03                12874 	.db #0x03
   306C 03                12875 	.db #0x03
   306D 01                12876 	.db #0x01
   306E 01                12877 	.db #0x01
   306F 01                12878 	.db #0x01
   3070 01                12879 	.db #0x01
   3071 00                12880 	.db #0x00
   3072 00                12881 	.db #0x00
   3073 07                12882 	.db #0x07
   3074 07                12883 	.db #0x07
   3075 FF                12884 	.db #0xFF
   3076 FC                12885 	.db #0xFC
   3077 FF                12886 	.db #0xFF
   3078 00                12887 	.db #0x00
   3079 FF                12888 	.db #0xFF
   307A 3F                12889 	.db #0x3F
   307B FF                12890 	.db #0xFF
   307C 3F                12891 	.db #0x3F
   307D FF                12892 	.db #0xFF
   307E 03                12893 	.db #0x03
   307F FF                12894 	.db #0xFF
   3080 81                12895 	.db #0x81
   3081 FF                12896 	.db #0xFF
   3082 80                12897 	.db #0x80
   3083 FF                12898 	.db #0xFF
   3084 80                12899 	.db #0x80
   3085 FF                12900 	.db #0xFF
   3086 00                12901 	.db #0x00
   3087 FF                12902 	.db #0xFF
   3088 00                12903 	.db #0x00
   3089 FF                12904 	.db #0xFF
   308A 00                12905 	.db #0x00
   308B FF                12906 	.db #0xFF
   308C 80                12907 	.db #0x80
   308D FF                12908 	.db #0xFF
   308E C0                12909 	.db #0xC0
   308F FF                12910 	.db #0xFF
   3090 E0                12911 	.db #0xE0
   3091 FF                12912 	.db #0xFF
   3092 F0                12913 	.db #0xF0
   3093 FF                12914 	.db #0xFF
   3094 01                12915 	.db #0x01
   3095 FF                12916 	.db #0xFF
   3096 00                12917 	.db #0x00
   3097 FF                12918 	.db #0xFF
   3098 00                12919 	.db #0x00
   3099 FF                12920 	.db #0xFF
   309A 00                12921 	.db #0x00
   309B FF                12922 	.db #0xFF
   309C 00                12923 	.db #0x00
   309D FF                12924 	.db #0xFF
   309E 00                12925 	.db #0x00
   309F FF                12926 	.db #0xFF
   30A0 00                12927 	.db #0x00
   30A1 FF                12928 	.db #0xFF
   30A2 00                12929 	.db #0x00
   30A3 CE                12930 	.db #0xCE
   30A4 CE                12931 	.db #0xCE
   30A5 FF                12932 	.db #0xFF
   30A6 7F                12933 	.db #0x7F
   30A7 FF                12934 	.db #0xFF
   30A8 00                12935 	.db #0x00
   30A9 FF                12936 	.db #0xFF
   30AA 00                12937 	.db #0x00
   30AB FF                12938 	.db #0xFF
   30AC 00                12939 	.db #0x00
   30AD FF                12940 	.db #0xFF
   30AE 00                12941 	.db #0x00
   30AF FF                12942 	.db #0xFF
   30B0 00                12943 	.db #0x00
   30B1 FF                12944 	.db #0xFF
   30B2 00                12945 	.db #0x00
   30B3 00                12946 	.db #0x00
   30B4 00                12947 	.db #0x00
   30B5 00                12948 	.db #0x00
   30B6 00                12949 	.db #0x00
   30B7 FF                12950 	.db #0xFF
   30B8 FF                12951 	.db #0xFF
   30B9 FF                12952 	.db #0xFF
   30BA 00                12953 	.db #0x00
   30BB FF                12954 	.db #0xFF
   30BC 00                12955 	.db #0x00
   30BD FF                12956 	.db #0xFF
   30BE 00                12957 	.db #0x00
   30BF FF                12958 	.db #0xFF
   30C0 00                12959 	.db #0x00
   30C1 FF                12960 	.db #0xFF
   30C2 00                12961 	.db #0x00
   30C3 30                12962 	.db #0x30
   30C4 30                12963 	.db #0x30
   30C5 20                12964 	.db #0x20
   30C6 20                12965 	.db #0x20
   30C7 E0                12966 	.db #0xE0
   30C8 E0                12967 	.db #0xE0
   30C9 F0                12968 	.db #0xF0
   30CA 70                12969 	.db #0x70
   30CB FF                12970 	.db #0xFF
   30CC 0F                12971 	.db #0x0F
   30CD FF                12972 	.db #0xFF
   30CE 00                12973 	.db #0x00
   30CF FF                12974 	.db #0xFF
   30D0 00                12975 	.db #0x00
   30D1 FF                12976 	.db #0xFF
   30D2 00                12977 	.db #0x00
   30D3 00                12978 	.db #0x00
   30D4 00                12979 	.db #0x00
   30D5 00                12980 	.db #0x00
   30D6 00                12981 	.db #0x00
   30D7 00                12982 	.db #0x00
   30D8 00                12983 	.db #0x00
   30D9 00                12984 	.db #0x00
   30DA 00                12985 	.db #0x00
   30DB C0                12986 	.db #0xC0
   30DC C0                12987 	.db #0xC0
   30DD F8                12988 	.db #0xF8
   30DE 38                12989 	.db #0x38
   30DF FC                12990 	.db #0xFC
   30E0 04                12991 	.db #0x04
   30E1 FF                12992 	.db #0xFF
   30E2 0F                12993 	.db #0x0F
   30E3 00                12994 	.db #0x00
   30E4 00                12995 	.db #0x00
   30E5 00                12996 	.db #0x00
   30E6 00                12997 	.db #0x00
   30E7 00                12998 	.db #0x00
   30E8 00                12999 	.db #0x00
   30E9 00                13000 	.db #0x00
   30EA 00                13001 	.db #0x00
   30EB C0                13002 	.db #0xC0
   30EC C0                13003 	.db #0xC0
   30ED 60                13004 	.db #0x60
   30EE 60                13005 	.db #0x60
   30EF E0                13006 	.db #0xE0
   30F0 E0                13007 	.db #0xE0
   30F1 E0                13008 	.db #0xE0
   30F2 E0                13009 	.db #0xE0
   30F3 C0                13010 	.db #0xC0
   30F4 C0                13011 	.db #0xC0
   30F5 00                13012 	.db #0x00
   30F6 00                13013 	.db #0x00
   30F7 00                13014 	.db #0x00
   30F8 00                13015 	.db #0x00
   30F9 00                13016 	.db #0x00
   30FA 00                13017 	.db #0x00
   30FB 00                13018 	.db #0x00
   30FC 00                13019 	.db #0x00
   30FD 00                13020 	.db #0x00
   30FE 00                13021 	.db #0x00
   30FF 00                13022 	.db #0x00
   3100 00                13023 	.db #0x00
   3101 00                13024 	.db #0x00
   3102 00                13025 	.db #0x00
   3103 00                13026 	.db #0x00
   3104 00                13027 	.db #0x00
   3105 00                13028 	.db #0x00
   3106 00                13029 	.db #0x00
   3107 00                13030 	.db #0x00
   3108 00                13031 	.db #0x00
   3109 00                13032 	.db #0x00
   310A 00                13033 	.db #0x00
   310B 00                13034 	.db #0x00
   310C 00                13035 	.db #0x00
   310D 60                13036 	.db #0x60
   310E 60                13037 	.db #0x60
   310F 70                13038 	.db #0x70
   3110 70                13039 	.db #0x70
   3111 78                13040 	.db #0x78
   3112 58                13041 	.db #0x58
   3113 C0                13042 	.db #0xC0
   3114 C0                13043 	.db #0xC0
   3115 40                13044 	.db #0x40
   3116 40                13045 	.db #0x40
   3117 40                13046 	.db #0x40
   3118 40                13047 	.db #0x40
   3119 70                13048 	.db #0x70
   311A 70                13049 	.db #0x70
   311B 7F                13050 	.db #0x7F
   311C 5F                13051 	.db #0x5F
   311D 7F                13052 	.db #0x7F
   311E 40                13053 	.db #0x40
   311F 7F                13054 	.db #0x7F
   3120 40                13055 	.db #0x40
   3121 7F                13056 	.db #0x7F
   3122 47                13057 	.db #0x47
   3123 00                13058 	.db #0x00
   3124 00                13059 	.db #0x00
   3125 01                13060 	.db #0x01
   3126 01                13061 	.db #0x01
   3127 03                13062 	.db #0x03
   3128 03                13063 	.db #0x03
   3129 0F                13064 	.db #0x0F
   312A 0E                13065 	.db #0x0E
   312B FF                13066 	.db #0xFF
   312C FD                13067 	.db #0xFD
   312D FF                13068 	.db #0xFF
   312E 03                13069 	.db #0x03
   312F FF                13070 	.db #0xFF
   3130 0E                13071 	.db #0x0E
   3131 FF                13072 	.db #0xFF
   3132 F8                13073 	.db #0xF8
   3133 FF                13074 	.db #0xFF
   3134 80                13075 	.db #0x80
   3135 FF                13076 	.db #0xFF
   3136 00                13077 	.db #0x00
   3137 FF                13078 	.db #0xFF
   3138 00                13079 	.db #0x00
   3139 FF                13080 	.db #0xFF
   313A 00                13081 	.db #0x00
   313B FF                13082 	.db #0xFF
   313C 00                13083 	.db #0x00
   313D FF                13084 	.db #0xFF
   313E 30                13085 	.db #0x30
   313F FF                13086 	.db #0xFF
   3140 38                13087 	.db #0x38
   3141 FF                13088 	.db #0xFF
   3142 3C                13089 	.db #0x3C
   3143 FF                13090 	.db #0xFF
   3144 38                13091 	.db #0x38
   3145 FF                13092 	.db #0xFF
   3146 3C                13093 	.db #0x3C
   3147 FF                13094 	.db #0xFF
   3148 1E                13095 	.db #0x1E
   3149 FF                13096 	.db #0xFF
   314A 0F                13097 	.db #0x0F
   314B FF                13098 	.db #0xFF
   314C 03                13099 	.db #0x03
   314D FF                13100 	.db #0xFF
   314E 01                13101 	.db #0x01
   314F FF                13102 	.db #0xFF
   3150 00                13103 	.db #0x00
   3151 FF                13104 	.db #0xFF
   3152 00                13105 	.db #0x00
   3153 FF                13106 	.db #0xFF
   3154 00                13107 	.db #0x00
   3155 FF                13108 	.db #0xFF
   3156 00                13109 	.db #0x00
   3157 FF                13110 	.db #0xFF
   3158 00                13111 	.db #0x00
   3159 FF                13112 	.db #0xFF
   315A 80                13113 	.db #0x80
   315B FF                13114 	.db #0xFF
   315C F0                13115 	.db #0xF0
   315D FF                13116 	.db #0xFF
   315E FF                13117 	.db #0xFF
   315F FF                13118 	.db #0xFF
   3160 3F                13119 	.db #0x3F
   3161 FF                13120 	.db #0xFF
   3162 00                13121 	.db #0x00
   3163 FF                13122 	.db #0xFF
   3164 00                13123 	.db #0x00
   3165 FF                13124 	.db #0xFF
   3166 00                13125 	.db #0x00
   3167 FF                13126 	.db #0xFF
   3168 00                13127 	.db #0x00
   3169 FF                13128 	.db #0xFF
   316A 00                13129 	.db #0x00
   316B FF                13130 	.db #0xFF
   316C C0                13131 	.db #0xC0
   316D FF                13132 	.db #0xFF
   316E C0                13133 	.db #0xC0
   316F FF                13134 	.db #0xFF
   3170 80                13135 	.db #0x80
   3171 FF                13136 	.db #0xFF
   3172 00                13137 	.db #0x00
   3173 FF                13138 	.db #0xFF
   3174 00                13139 	.db #0x00
   3175 FF                13140 	.db #0xFF
   3176 00                13141 	.db #0x00
   3177 FF                13142 	.db #0xFF
   3178 00                13143 	.db #0x00
   3179 FF                13144 	.db #0xFF
   317A 00                13145 	.db #0x00
   317B FF                13146 	.db #0xFF
   317C 03                13147 	.db #0x03
   317D FF                13148 	.db #0xFF
   317E 03                13149 	.db #0x03
   317F FF                13150 	.db #0xFF
   3180 01                13151 	.db #0x01
   3181 FF                13152 	.db #0xFF
   3182 00                13153 	.db #0x00
   3183 FF                13154 	.db #0xFF
   3184 00                13155 	.db #0x00
   3185 FF                13156 	.db #0xFF
   3186 00                13157 	.db #0x00
   3187 FF                13158 	.db #0xFF
   3188 03                13159 	.db #0x03
   3189 FF                13160 	.db #0xFF
   318A 0F                13161 	.db #0x0F
   318B FF                13162 	.db #0xFF
   318C BF                13163 	.db #0xBF
   318D FF                13164 	.db #0xFF
   318E FC                13165 	.db #0xFC
   318F FF                13166 	.db #0xFF
   3190 F0                13167 	.db #0xF0
   3191 FF                13168 	.db #0xFF
   3192 60                13169 	.db #0x60
   3193 FF                13170 	.db #0xFF
   3194 7F                13171 	.db #0x7F
   3195 FF                13172 	.db #0xFF
   3196 FF                13173 	.db #0xFF
   3197 FF                13174 	.db #0xFF
   3198 E1                13175 	.db #0xE1
   3199 FF                13176 	.db #0xFF
   319A 81                13177 	.db #0x81
   319B FF                13178 	.db #0xFF
   319C 01                13179 	.db #0x01
   319D FF                13180 	.db #0xFF
   319E 01                13181 	.db #0x01
   319F FF                13182 	.db #0xFF
   31A0 01                13183 	.db #0x01
   31A1 FF                13184 	.db #0xFF
   31A2 01                13185 	.db #0x01
   31A3 C0                13186 	.db #0xC0
   31A4 C0                13187 	.db #0xC0
   31A5 80                13188 	.db #0x80
   31A6 80                13189 	.db #0x80
   31A7 80                13190 	.db #0x80
   31A8 80                13191 	.db #0x80
   31A9 80                13192 	.db #0x80
   31AA 80                13193 	.db #0x80
   31AB 80                13194 	.db #0x80
   31AC 80                13195 	.db #0x80
   31AD 80                13196 	.db #0x80
   31AE 80                13197 	.db #0x80
   31AF 80                13198 	.db #0x80
   31B0 80                13199 	.db #0x80
   31B1 80                13200 	.db #0x80
   31B2 80                13201 	.db #0x80
   31B3 7C                13202 	.db #0x7C
   31B4 4C                13203 	.db #0x4C
   31B5 7F                13204 	.db #0x7F
   31B6 47                13205 	.db #0x47
   31B7 7F                13206 	.db #0x7F
   31B8 41                13207 	.db #0x41
   31B9 7F                13208 	.db #0x7F
   31BA 40                13209 	.db #0x40
   31BB 7F                13210 	.db #0x7F
   31BC 63                13211 	.db #0x63
   31BD 7F                13212 	.db #0x7F
   31BE 63                13213 	.db #0x63
   31BF 3F                13214 	.db #0x3F
   31C0 21                13215 	.db #0x21
   31C1 3F                13216 	.db #0x3F
   31C2 21                13217 	.db #0x21
   31C3 7F                13218 	.db #0x7F
   31C4 40                13219 	.db #0x40
   31C5 7F                13220 	.db #0x7F
   31C6 40                13221 	.db #0x40
   31C7 FF                13222 	.db #0xFF
   31C8 C0                13223 	.db #0xC0
   31C9 FF                13224 	.db #0xFF
   31CA E0                13225 	.db #0xE0
   31CB FF                13226 	.db #0xFF
   31CC 30                13227 	.db #0x30
   31CD FF                13228 	.db #0xFF
   31CE 8C                13229 	.db #0x8C
   31CF FF                13230 	.db #0xFF
   31D0 C7                13231 	.db #0xC7
   31D1 FF                13232 	.db #0xFF
   31D2 61                13233 	.db #0x61
   31D3 FF                13234 	.db #0xFF
   31D4 00                13235 	.db #0x00
   31D5 FF                13236 	.db #0xFF
   31D6 00                13237 	.db #0x00
   31D7 FF                13238 	.db #0xFF
   31D8 00                13239 	.db #0x00
   31D9 FF                13240 	.db #0xFF
   31DA 00                13241 	.db #0x00
   31DB FF                13242 	.db #0xFF
   31DC 00                13243 	.db #0x00
   31DD FF                13244 	.db #0xFF
   31DE 00                13245 	.db #0x00
   31DF FF                13246 	.db #0xFF
   31E0 00                13247 	.db #0x00
   31E1 FF                13248 	.db #0xFF
   31E2 80                13249 	.db #0x80
   31E3 FF                13250 	.db #0xFF
   31E4 1F                13251 	.db #0x1F
   31E5 FF                13252 	.db #0xFF
   31E6 0F                13253 	.db #0x0F
   31E7 FF                13254 	.db #0xFF
   31E8 03                13255 	.db #0x03
   31E9 FF                13256 	.db #0xFF
   31EA 00                13257 	.db #0x00
   31EB FF                13258 	.db #0xFF
   31EC 00                13259 	.db #0x00
   31ED FF                13260 	.db #0xFF
   31EE 00                13261 	.db #0x00
   31EF FF                13262 	.db #0xFF
   31F0 00                13263 	.db #0x00
   31F1 FF                13264 	.db #0xFF
   31F2 01                13265 	.db #0x01
   31F3 FF                13266 	.db #0xFF
   31F4 00                13267 	.db #0x00
   31F5 FF                13268 	.db #0xFF
   31F6 E0                13269 	.db #0xE0
   31F7 FF                13270 	.db #0xFF
   31F8 FF                13271 	.db #0xFF
   31F9 FF                13272 	.db #0xFF
   31FA 7F                13273 	.db #0x7F
   31FB FF                13274 	.db #0xFF
   31FC 1F                13275 	.db #0x1F
   31FD F8                13276 	.db #0xF8
   31FE 78                13277 	.db #0x78
   31FF C0                13278 	.db #0xC0
   3200 C0                13279 	.db #0xC0
   3201 80                13280 	.db #0x80
   3202 80                13281 	.db #0x80
   3203 FF                13282 	.db #0xFF
   3204 00                13283 	.db #0x00
   3205 FF                13284 	.db #0xFF
   3206 00                13285 	.db #0x00
   3207 FF                13286 	.db #0xFF
   3208 80                13287 	.db #0x80
   3209 FF                13288 	.db #0xFF
   320A FC                13289 	.db #0xFC
   320B FF                13290 	.db #0xFF
   320C FF                13291 	.db #0xFF
   320D FF                13292 	.db #0xFF
   320E FF                13293 	.db #0xFF
   320F 1F                13294 	.db #0x1F
   3210 1E                13295 	.db #0x1E
   3211 03                13296 	.db #0x03
   3212 02                13297 	.db #0x02
   3213 FF                13298 	.db #0xFF
   3214 06                13299 	.db #0x06
   3215 FF                13300 	.db #0xFF
   3216 06                13301 	.db #0x06
   3217 FF                13302 	.db #0xFF
   3218 0E                13303 	.db #0x0E
   3219 FF                13304 	.db #0xFF
   321A 1E                13305 	.db #0x1E
   321B FF                13306 	.db #0xFF
   321C FE                13307 	.db #0xFE
   321D FF                13308 	.db #0xFF
   321E F8                13309 	.db #0xF8
   321F FF                13310 	.db #0xFF
   3220 00                13311 	.db #0x00
   3221 FF                13312 	.db #0xFF
   3222 00                13313 	.db #0x00
   3223 FF                13314 	.db #0xFF
   3224 00                13315 	.db #0x00
   3225 FF                13316 	.db #0xFF
   3226 00                13317 	.db #0x00
   3227 FF                13318 	.db #0xFF
   3228 00                13319 	.db #0x00
   3229 FF                13320 	.db #0xFF
   322A 00                13321 	.db #0x00
   322B FF                13322 	.db #0xFF
   322C 10                13323 	.db #0x10
   322D FF                13324 	.db #0xFF
   322E 08                13325 	.db #0x08
   322F FF                13326 	.db #0xFF
   3230 07                13327 	.db #0x07
   3231 FF                13328 	.db #0xFF
   3232 03                13329 	.db #0x03
   3233 FF                13330 	.db #0xFF
   3234 00                13331 	.db #0x00
   3235 FF                13332 	.db #0xFF
   3236 00                13333 	.db #0x00
   3237 FF                13334 	.db #0xFF
   3238 00                13335 	.db #0x00
   3239 FF                13336 	.db #0xFF
   323A 00                13337 	.db #0x00
   323B FF                13338 	.db #0xFF
   323C 00                13339 	.db #0x00
   323D FF                13340 	.db #0xFF
   323E 00                13341 	.db #0x00
   323F FF                13342 	.db #0xFF
   3240 FF                13343 	.db #0xFF
   3241 FF                13344 	.db #0xFF
   3242 FF                13345 	.db #0xFF
   3243 FF                13346 	.db #0xFF
   3244 01                13347 	.db #0x01
   3245 FF                13348 	.db #0xFF
   3246 01                13349 	.db #0x01
   3247 FF                13350 	.db #0xFF
   3248 01                13351 	.db #0x01
   3249 FF                13352 	.db #0xFF
   324A 01                13353 	.db #0x01
   324B FE                13354 	.db #0xFE
   324C 06                13355 	.db #0x06
   324D FE                13356 	.db #0xFE
   324E FE                13357 	.db #0xFE
   324F FC                13358 	.db #0xFC
   3250 FC                13359 	.db #0xFC
   3251 C8                13360 	.db #0xC8
   3252 C8                13361 	.db #0xC8
   3253 80                13362 	.db #0x80
   3254 80                13363 	.db #0x80
   3255 80                13364 	.db #0x80
   3256 80                13365 	.db #0x80
   3257 00                13366 	.db #0x00
   3258 00                13367 	.db #0x00
   3259 00                13368 	.db #0x00
   325A 00                13369 	.db #0x00
   325B 00                13370 	.db #0x00
   325C 00                13371 	.db #0x00
   325D 00                13372 	.db #0x00
   325E 00                13373 	.db #0x00
   325F 00                13374 	.db #0x00
   3260 00                13375 	.db #0x00
   3261 00                13376 	.db #0x00
   3262 00                13377 	.db #0x00
   3263 3F                13378 	.db #0x3F
   3264 21                13379 	.db #0x21
   3265 3F                13380 	.db #0x3F
   3266 30                13381 	.db #0x30
   3267 1F                13382 	.db #0x1F
   3268 10                13383 	.db #0x10
   3269 1F                13384 	.db #0x1F
   326A 18                13385 	.db #0x18
   326B 0F                13386 	.db #0x0F
   326C 08                13387 	.db #0x08
   326D 0F                13388 	.db #0x0F
   326E 0C                13389 	.db #0x0C
   326F 07                13390 	.db #0x07
   3270 06                13391 	.db #0x06
   3271 03                13392 	.db #0x03
   3272 03                13393 	.db #0x03
   3273 FF                13394 	.db #0xFF
   3274 30                13395 	.db #0x30
   3275 FF                13396 	.db #0xFF
   3276 98                13397 	.db #0x98
   3277 FF                13398 	.db #0xFF
   3278 8C                13399 	.db #0x8C
   3279 FF                13400 	.db #0xFF
   327A C0                13401 	.db #0xC0
   327B FF                13402 	.db #0xFF
   327C 60                13403 	.db #0x60
   327D FF                13404 	.db #0xFF
   327E 60                13405 	.db #0x60
   327F FF                13406 	.db #0xFF
   3280 27                13407 	.db #0x27
   3281 FF                13408 	.db #0xFF
   3282 2C                13409 	.db #0x2C
   3283 FF                13410 	.db #0xFF
   3284 00                13411 	.db #0x00
   3285 FF                13412 	.db #0xFF
   3286 00                13413 	.db #0x00
   3287 FF                13414 	.db #0xFF
   3288 00                13415 	.db #0x00
   3289 FF                13416 	.db #0xFF
   328A 00                13417 	.db #0x00
   328B FF                13418 	.db #0xFF
   328C 00                13419 	.db #0x00
   328D FF                13420 	.db #0xFF
   328E 00                13421 	.db #0x00
   328F FF                13422 	.db #0xFF
   3290 E0                13423 	.db #0xE0
   3291 FF                13424 	.db #0xFF
   3292 30                13425 	.db #0x30
   3293 FF                13426 	.db #0xFF
   3294 01                13427 	.db #0x01
   3295 FE                13428 	.db #0xFE
   3296 02                13429 	.db #0x02
   3297 FE                13430 	.db #0xFE
   3298 02                13431 	.db #0x02
   3299 FE                13432 	.db #0xFE
   329A 02                13433 	.db #0x02
   329B FE                13434 	.db #0xFE
   329C 02                13435 	.db #0x02
   329D FE                13436 	.db #0xFE
   329E 02                13437 	.db #0x02
   329F FE                13438 	.db #0xFE
   32A0 02                13439 	.db #0x02
   32A1 FE                13440 	.db #0xFE
   32A2 02                13441 	.db #0x02
   32A3 00                13442 	.db #0x00
   32A4 00                13443 	.db #0x00
   32A5 00                13444 	.db #0x00
   32A6 00                13445 	.db #0x00
   32A7 00                13446 	.db #0x00
   32A8 00                13447 	.db #0x00
   32A9 00                13448 	.db #0x00
   32AA 00                13449 	.db #0x00
   32AB 00                13450 	.db #0x00
   32AC 00                13451 	.db #0x00
   32AD 30                13452 	.db #0x30
   32AE 30                13453 	.db #0x30
   32AF 30                13454 	.db #0x30
   32B0 30                13455 	.db #0x30
   32B1 00                13456 	.db #0x00
   32B2 00                13457 	.db #0x00
   32B3 FF                13458 	.db #0xFF
   32B4 C0                13459 	.db #0xC0
   32B5 3F                13460 	.db #0x3F
   32B6 20                13461 	.db #0x20
   32B7 1F                13462 	.db #0x1F
   32B8 10                13463 	.db #0x10
   32B9 1F                13464 	.db #0x1F
   32BA 18                13465 	.db #0x18
   32BB 0F                13466 	.db #0x0F
   32BC 08                13467 	.db #0x08
   32BD 0F                13468 	.db #0x0F
   32BE 08                13469 	.db #0x08
   32BF 0F                13470 	.db #0x0F
   32C0 08                13471 	.db #0x08
   32C1 0F                13472 	.db #0x0F
   32C2 08                13473 	.db #0x08
   32C3 FF                13474 	.db #0xFF
   32C4 00                13475 	.db #0x00
   32C5 FF                13476 	.db #0xFF
   32C6 00                13477 	.db #0x00
   32C7 FF                13478 	.db #0xFF
   32C8 00                13479 	.db #0x00
   32C9 FF                13480 	.db #0xFF
   32CA 00                13481 	.db #0x00
   32CB FF                13482 	.db #0xFF
   32CC 00                13483 	.db #0x00
   32CD FF                13484 	.db #0xFF
   32CE 00                13485 	.db #0x00
   32CF FF                13486 	.db #0xFF
   32D0 00                13487 	.db #0x00
   32D1 FF                13488 	.db #0xFF
   32D2 00                13489 	.db #0x00
   32D3 F0                13490 	.db #0xF0
   32D4 30                13491 	.db #0x30
   32D5 E0                13492 	.db #0xE0
   32D6 E0                13493 	.db #0xE0
   32D7 C6                13494 	.db #0xC6
   32D8 C6                13495 	.db #0xC6
   32D9 E6                13496 	.db #0xE6
   32DA 66                13497 	.db #0x66
   32DB F0                13498 	.db #0xF0
   32DC 30                13499 	.db #0x30
   32DD FF                13500 	.db #0xFF
   32DE 1F                13501 	.db #0x1F
   32DF FF                13502 	.db #0xFF
   32E0 08                13503 	.db #0x08
   32E1 FF                13504 	.db #0xFF
   32E2 04                13505 	.db #0x04
   32E3 04                13506 	.db #0x04
   32E4 04                13507 	.db #0x04
   32E5 04                13508 	.db #0x04
   32E6 04                13509 	.db #0x04
   32E7 04                13510 	.db #0x04
   32E8 04                13511 	.db #0x04
   32E9 08                13512 	.db #0x08
   32EA 08                13513 	.db #0x08
   32EB F8                13514 	.db #0xF8
   32EC F8                13515 	.db #0xF8
   32ED FC                13516 	.db #0xFC
   32EE 84                13517 	.db #0x84
   32EF FC                13518 	.db #0xFC
   32F0 04                13519 	.db #0x04
   32F1 F8                13520 	.db #0xF8
   32F2 08                13521 	.db #0x08
   32F3 01                13522 	.db #0x01
   32F4 01                13523 	.db #0x01
   32F5 01                13524 	.db #0x01
   32F6 01                13525 	.db #0x01
   32F7 00                13526 	.db #0x00
   32F8 00                13527 	.db #0x00
   32F9 01                13528 	.db #0x01
   32FA 01                13529 	.db #0x01
   32FB 01                13530 	.db #0x01
   32FC 01                13531 	.db #0x01
   32FD 01                13532 	.db #0x01
   32FE 01                13533 	.db #0x01
   32FF 01                13534 	.db #0x01
   3300 01                13535 	.db #0x01
   3301 01                13536 	.db #0x01
   3302 01                13537 	.db #0x01
   3303 FF                13538 	.db #0xFF
   3304 38                13539 	.db #0x38
   3305 FF                13540 	.db #0xFF
   3306 98                13541 	.db #0x98
   3307 FF                13542 	.db #0xFF
   3308 88                13543 	.db #0x88
   3309 FF                13544 	.db #0xFF
   330A 88                13545 	.db #0x88
   330B FF                13546 	.db #0xFF
   330C 08                13547 	.db #0x08
   330D FF                13548 	.db #0xFF
   330E 0C                13549 	.db #0x0C
   330F FF                13550 	.db #0xFF
   3310 04                13551 	.db #0x04
   3311 FF                13552 	.db #0xFF
   3312 84                13553 	.db #0x84
   3313 FF                13554 	.db #0xFF
   3314 00                13555 	.db #0x00
   3315 FF                13556 	.db #0xFF
   3316 00                13557 	.db #0x00
   3317 FF                13558 	.db #0xFF
   3318 00                13559 	.db #0x00
   3319 FF                13560 	.db #0xFF
   331A 70                13561 	.db #0x70
   331B FF                13562 	.db #0xFF
   331C 7C                13563 	.db #0x7C
   331D FF                13564 	.db #0xFF
   331E 7E                13565 	.db #0x7E
   331F F9                13566 	.db #0xF9
   3320 79                13567 	.db #0x79
   3321 FF                13568 	.db #0xFF
   3322 7F                13569 	.db #0x7F
   3323 FF                13570 	.db #0xFF
   3324 03                13571 	.db #0x03
   3325 FF                13572 	.db #0xFF
   3326 07                13573 	.db #0x07
   3327 FF                13574 	.db #0xFF
   3328 08                13575 	.db #0x08
   3329 FF                13576 	.db #0xFF
   332A 00                13577 	.db #0x00
   332B FF                13578 	.db #0xFF
   332C 00                13579 	.db #0x00
   332D FF                13580 	.db #0xFF
   332E 00                13581 	.db #0x00
   332F FF                13582 	.db #0xFF
   3330 80                13583 	.db #0x80
   3331 FF                13584 	.db #0xFF
   3332 E0                13585 	.db #0xE0
   3333 00                13586 	.db #0x00
   3334 00                13587 	.db #0x00
   3335 C0                13588 	.db #0xC0
   3336 C0                13589 	.db #0xC0
   3337 F0                13590 	.db #0xF0
   3338 70                13591 	.db #0x70
   3339 FF                13592 	.db #0xFF
   333A 1F                13593 	.db #0x1F
   333B FF                13594 	.db #0xFF
   333C 00                13595 	.db #0x00
   333D FF                13596 	.db #0xFF
   333E 00                13597 	.db #0x00
   333F FF                13598 	.db #0xFF
   3340 00                13599 	.db #0x00
   3341 FF                13600 	.db #0xFF
   3342 00                13601 	.db #0x00
   3343 00                13602 	.db #0x00
   3344 00                13603 	.db #0x00
   3345 00                13604 	.db #0x00
   3346 00                13605 	.db #0x00
   3347 01                13606 	.db #0x01
   3348 01                13607 	.db #0x01
   3349 FF                13608 	.db #0xFF
   334A FF                13609 	.db #0xFF
   334B FF                13610 	.db #0xFF
   334C 00                13611 	.db #0x00
   334D FF                13612 	.db #0xFF
   334E 00                13613 	.db #0x00
   334F FF                13614 	.db #0xFF
   3350 00                13615 	.db #0x00
   3351 FF                13616 	.db #0xFF
   3352 00                13617 	.db #0x00
   3353 1F                13618 	.db #0x1F
   3354 18                13619 	.db #0x18
   3355 3F                13620 	.db #0x3F
   3356 30                13621 	.db #0x30
   3357 FF                13622 	.db #0xFF
   3358 E0                13623 	.db #0xE0
   3359 FF                13624 	.db #0xFF
   335A 70                13625 	.db #0x70
   335B FF                13626 	.db #0xFF
   335C 00                13627 	.db #0x00
   335D FF                13628 	.db #0xFF
   335E 00                13629 	.db #0x00
   335F FF                13630 	.db #0xFF
   3360 00                13631 	.db #0x00
   3361 FF                13632 	.db #0xFF
   3362 00                13633 	.db #0x00
   3363 FF                13634 	.db #0xFF
   3364 00                13635 	.db #0x00
   3365 FF                13636 	.db #0xFF
   3366 06                13637 	.db #0x06
   3367 FF                13638 	.db #0xFF
   3368 1C                13639 	.db #0x1C
   3369 FF                13640 	.db #0xFF
   336A 70                13641 	.db #0x70
   336B FF                13642 	.db #0xFF
   336C C0                13643 	.db #0xC0
   336D FF                13644 	.db #0xFF
   336E 80                13645 	.db #0x80
   336F FF                13646 	.db #0xFF
   3370 80                13647 	.db #0x80
   3371 FF                13648 	.db #0xFF
   3372 80                13649 	.db #0x80
   3373 FF                13650 	.db #0xFF
   3374 04                13651 	.db #0x04
   3375 FF                13652 	.db #0xFF
   3376 0C                13653 	.db #0x0C
   3377 FF                13654 	.db #0xFF
   3378 1C                13655 	.db #0x1C
   3379 FF                13656 	.db #0xFF
   337A 18                13657 	.db #0x18
   337B FF                13658 	.db #0xFF
   337C 30                13659 	.db #0x30
   337D FF                13660 	.db #0xFF
   337E 20                13661 	.db #0x20
   337F FF                13662 	.db #0xFF
   3380 20                13663 	.db #0x20
   3381 FF                13664 	.db #0xFF
   3382 30                13665 	.db #0x30
   3383 F8                13666 	.db #0xF8
   3384 78                13667 	.db #0x78
   3385 FC                13668 	.db #0xFC
   3386 04                13669 	.db #0x04
   3387 FC                13670 	.db #0xFC
   3388 04                13671 	.db #0x04
   3389 FC                13672 	.db #0xFC
   338A 04                13673 	.db #0x04
   338B FC                13674 	.db #0xFC
   338C 7C                13675 	.db #0x7C
   338D FE                13676 	.db #0xFE
   338E 06                13677 	.db #0x06
   338F FF                13678 	.db #0xFF
   3390 01                13679 	.db #0x01
   3391 FF                13680 	.db #0xFF
   3392 01                13681 	.db #0x01
   3393 00                13682 	.db #0x00
   3394 00                13683 	.db #0x00
   3395 00                13684 	.db #0x00
   3396 00                13685 	.db #0x00
   3397 00                13686 	.db #0x00
   3398 00                13687 	.db #0x00
   3399 00                13688 	.db #0x00
   339A 00                13689 	.db #0x00
   339B 00                13690 	.db #0x00
   339C 00                13691 	.db #0x00
   339D 00                13692 	.db #0x00
   339E 00                13693 	.db #0x00
   339F 00                13694 	.db #0x00
   33A0 00                13695 	.db #0x00
   33A1 40                13696 	.db #0x40
   33A2 40                13697 	.db #0x40
   33A3 FF                13698 	.db #0xFF
   33A4 94                13699 	.db #0x94
   33A5 7F                13700 	.db #0x7F
   33A6 76                13701 	.db #0x76
   33A7 1F                13702 	.db #0x1F
   33A8 12                13703 	.db #0x12
   33A9 1F                13704 	.db #0x1F
   33AA 10                13705 	.db #0x10
   33AB 1F                13706 	.db #0x1F
   33AC 10                13707 	.db #0x10
   33AD 1F                13708 	.db #0x1F
   33AE 10                13709 	.db #0x10
   33AF 1F                13710 	.db #0x1F
   33B0 10                13711 	.db #0x10
   33B1 1F                13712 	.db #0x1F
   33B2 10                13713 	.db #0x10
   33B3 FF                13714 	.db #0xFF
   33B4 7F                13715 	.db #0x7F
   33B5 FF                13716 	.db #0xFF
   33B6 7F                13717 	.db #0x7F
   33B7 FF                13718 	.db #0xFF
   33B8 7F                13719 	.db #0x7F
   33B9 FF                13720 	.db #0xFF
   33BA 7F                13721 	.db #0x7F
   33BB FF                13722 	.db #0xFF
   33BC 7F                13723 	.db #0x7F
   33BD F7                13724 	.db #0xF7
   33BE 37                13725 	.db #0x37
   33BF E7                13726 	.db #0xE7
   33C0 27                13727 	.db #0x27
   33C1 E7                13728 	.db #0xE7
   33C2 27                13729 	.db #0x27
   33C3 FF                13730 	.db #0xFF
   33C4 F8                13731 	.db #0xF8
   33C5 FF                13732 	.db #0xFF
   33C6 FE                13733 	.db #0xFE
   33C7 F9                13734 	.db #0xF9
   33C8 F9                13735 	.db #0xF9
   33C9 F8                13736 	.db #0xF8
   33CA F8                13737 	.db #0xF8
   33CB FB                13738 	.db #0xFB
   33CC FB                13739 	.db #0xFB
   33CD FF                13740 	.db #0xFF
   33CE FF                13741 	.db #0xFF
   33CF FF                13742 	.db #0xFF
   33D0 FF                13743 	.db #0xFF
   33D1 FF                13744 	.db #0xFF
   33D2 FF                13745 	.db #0xFF
   33D3 FF                13746 	.db #0xFF
   33D4 00                13747 	.db #0x00
   33D5 FF                13748 	.db #0xFF
   33D6 00                13749 	.db #0x00
   33D7 FF                13750 	.db #0xFF
   33D8 E0                13751 	.db #0xE0
   33D9 FF                13752 	.db #0xFF
   33DA FC                13753 	.db #0xFC
   33DB FF                13754 	.db #0xFF
   33DC FF                13755 	.db #0xFF
   33DD FE                13756 	.db #0xFE
   33DE FE                13757 	.db #0xFE
   33DF FF                13758 	.db #0xFF
   33E0 FF                13759 	.db #0xFF
   33E1 FF                13760 	.db #0xFF
   33E2 FF                13761 	.db #0xFF
   33E3 FF                13762 	.db #0xFF
   33E4 00                13763 	.db #0x00
   33E5 FF                13764 	.db #0xFF
   33E6 00                13765 	.db #0x00
   33E7 FF                13766 	.db #0xFF
   33E8 00                13767 	.db #0x00
   33E9 FF                13768 	.db #0xFF
   33EA 00                13769 	.db #0x00
   33EB FF                13770 	.db #0xFF
   33EC C0                13771 	.db #0xC0
   33ED FF                13772 	.db #0xFF
   33EE 7F                13773 	.db #0x7F
   33EF 07                13774 	.db #0x07
   33F0 07                13775 	.db #0x07
   33F1 01                13776 	.db #0x01
   33F2 01                13777 	.db #0x01
   33F3 FF                13778 	.db #0xFF
   33F4 00                13779 	.db #0x00
   33F5 FF                13780 	.db #0xFF
   33F6 00                13781 	.db #0x00
   33F7 FF                13782 	.db #0xFF
   33F8 00                13783 	.db #0x00
   33F9 FF                13784 	.db #0xFF
   33FA 00                13785 	.db #0x00
   33FB FF                13786 	.db #0xFF
   33FC 00                13787 	.db #0x00
   33FD FF                13788 	.db #0xFF
   33FE 80                13789 	.db #0x80
   33FF FF                13790 	.db #0xFF
   3400 FE                13791 	.db #0xFE
   3401 FF                13792 	.db #0xFF
   3402 FF                13793 	.db #0xFF
   3403 FF                13794 	.db #0xFF
   3404 80                13795 	.db #0x80
   3405 FF                13796 	.db #0xFF
   3406 C0                13797 	.db #0xC0
   3407 FF                13798 	.db #0xFF
   3408 60                13799 	.db #0x60
   3409 FF                13800 	.db #0xFF
   340A 1F                13801 	.db #0x1F
   340B FF                13802 	.db #0xFF
   340C 00                13803 	.db #0x00
   340D FF                13804 	.db #0xFF
   340E 00                13805 	.db #0x00
   340F FF                13806 	.db #0xFF
   3410 00                13807 	.db #0x00
   3411 FF                13808 	.db #0xFF
   3412 FF                13809 	.db #0xFF
   3413 FF                13810 	.db #0xFF
   3414 1C                13811 	.db #0x1C
   3415 FF                13812 	.db #0xFF
   3416 00                13813 	.db #0x00
   3417 FF                13814 	.db #0xFF
   3418 00                13815 	.db #0x00
   3419 FF                13816 	.db #0xFF
   341A 00                13817 	.db #0x00
   341B FF                13818 	.db #0xFF
   341C E0                13819 	.db #0xE0
   341D FF                13820 	.db #0xFF
   341E 38                13821 	.db #0x38
   341F FF                13822 	.db #0xFF
   3420 0C                13823 	.db #0x0C
   3421 FF                13824 	.db #0xFF
   3422 FF                13825 	.db #0xFF
   3423 FF                13826 	.db #0xFF
   3424 01                13827 	.db #0x01
   3425 FF                13828 	.db #0xFF
   3426 03                13829 	.db #0x03
   3427 FE                13830 	.db #0xFE
   3428 02                13831 	.db #0x02
   3429 FE                13832 	.db #0xFE
   342A 06                13833 	.db #0x06
   342B FE                13834 	.db #0xFE
   342C 06                13835 	.db #0x06
   342D FC                13836 	.db #0xFC
   342E 04                13837 	.db #0x04
   342F FC                13838 	.db #0xFC
   3430 0C                13839 	.db #0x0C
   3431 F8                13840 	.db #0xF8
   3432 F8                13841 	.db #0xF8
   3433 00                13842 	.db #0x00
   3434 00                13843 	.db #0x00
   3435 00                13844 	.db #0x00
   3436 00                13845 	.db #0x00
   3437 00                13846 	.db #0x00
   3438 00                13847 	.db #0x00
   3439 08                13848 	.db #0x08
   343A 08                13849 	.db #0x08
   343B 08                13850 	.db #0x08
   343C 08                13851 	.db #0x08
   343D 0C                13852 	.db #0x0C
   343E 0C                13853 	.db #0x0C
   343F 04                13854 	.db #0x04
   3440 04                13855 	.db #0x04
   3441 07                13856 	.db #0x07
   3442 07                13857 	.db #0x07
   3443 00                13858 	.db #0x00
   3444 00                13859 	.db #0x00
   3445 20                13860 	.db #0x20
   3446 20                13861 	.db #0x20
   3447 20                13862 	.db #0x20
   3448 20                13863 	.db #0x20
   3449 10                13864 	.db #0x10
   344A 10                13865 	.db #0x10
   344B 10                13866 	.db #0x10
   344C 10                13867 	.db #0x10
   344D 10                13868 	.db #0x10
   344E 10                13869 	.db #0x10
   344F F0                13870 	.db #0xF0
   3450 F0                13871 	.db #0xF0
   3451 91                13872 	.db #0x91
   3452 91                13873 	.db #0x91
   3453 E0                13874 	.db #0xE0
   3454 E0                13875 	.db #0xE0
   3455 A0                13876 	.db #0xA0
   3456 A0                13877 	.db #0xA0
   3457 B0                13878 	.db #0xB0
   3458 B0                13879 	.db #0xB0
   3459 90                13880 	.db #0x90
   345A 90                13881 	.db #0x90
   345B 90                13882 	.db #0x90
   345C 90                13883 	.db #0x90
   345D 90                13884 	.db #0x90
   345E 90                13885 	.db #0x90
   345F FE                13886 	.db #0xFE
   3460 FE                13887 	.db #0xFE
   3461 88                13888 	.db #0x88
   3462 88                13889 	.db #0x88
   3463 40                13890 	.db #0x40
   3464 40                13891 	.db #0x40
   3465 40                13892 	.db #0x40
   3466 40                13893 	.db #0x40
   3467 40                13894 	.db #0x40
   3468 40                13895 	.db #0x40
   3469 40                13896 	.db #0x40
   346A 40                13897 	.db #0x40
   346B 40                13898 	.db #0x40
   346C 40                13899 	.db #0x40
   346D 40                13900 	.db #0x40
   346E 40                13901 	.db #0x40
   346F 40                13902 	.db #0x40
   3470 40                13903 	.db #0x40
   3471 00                13904 	.db #0x00
   3472 00                13905 	.db #0x00
   3473 1F                13906 	.db #0x1F
   3474 10                13907 	.db #0x10
   3475 1F                13908 	.db #0x1F
   3476 10                13909 	.db #0x10
   3477 1F                13910 	.db #0x1F
   3478 10                13911 	.db #0x10
   3479 1F                13912 	.db #0x1F
   347A 10                13913 	.db #0x10
   347B 1F                13914 	.db #0x1F
   347C 10                13915 	.db #0x10
   347D 1F                13916 	.db #0x1F
   347E 10                13917 	.db #0x10
   347F 1F                13918 	.db #0x1F
   3480 10                13919 	.db #0x10
   3481 1F                13920 	.db #0x1F
   3482 10                13921 	.db #0x10
   3483 F7                13922 	.db #0xF7
   3484 17                13923 	.db #0x17
   3485 FF                13924 	.db #0xFF
   3486 1F                13925 	.db #0x1F
   3487 FE                13926 	.db #0xFE
   3488 0E                13927 	.db #0x0E
   3489 FC                13928 	.db #0xFC
   348A 0C                13929 	.db #0x0C
   348B FC                13930 	.db #0xFC
   348C 04                13931 	.db #0x04
   348D FE                13932 	.db #0xFE
   348E 02                13933 	.db #0x02
   348F FF                13934 	.db #0xFF
   3490 01                13935 	.db #0x01
   3491 FF                13936 	.db #0xFF
   3492 00                13937 	.db #0x00
   3493 FF                13938 	.db #0xFF
   3494 FF                13939 	.db #0xFF
   3495 FF                13940 	.db #0xFF
   3496 FF                13941 	.db #0xFF
   3497 FF                13942 	.db #0xFF
   3498 FF                13943 	.db #0xFF
   3499 FF                13944 	.db #0xFF
   349A FF                13945 	.db #0xFF
   349B 7F                13946 	.db #0x7F
   349C 7F                13947 	.db #0x7F
   349D 7F                13948 	.db #0x7F
   349E 7F                13949 	.db #0x7F
   349F 39                13950 	.db #0x39
   34A0 39                13951 	.db #0x39
   34A1 B1                13952 	.db #0xB1
   34A2 B1                13953 	.db #0xB1
   34A3 FF                13954 	.db #0xFF
   34A4 FF                13955 	.db #0xFF
   34A5 FF                13956 	.db #0xFF
   34A6 FF                13957 	.db #0xFF
   34A7 FF                13958 	.db #0xFF
   34A8 FF                13959 	.db #0xFF
   34A9 FF                13960 	.db #0xFF
   34AA FF                13961 	.db #0xFF
   34AB FF                13962 	.db #0xFF
   34AC FF                13963 	.db #0xFF
   34AD FF                13964 	.db #0xFF
   34AE FF                13965 	.db #0xFF
   34AF FF                13966 	.db #0xFF
   34B0 FF                13967 	.db #0xFF
   34B1 FF                13968 	.db #0xFF
   34B2 FF                13969 	.db #0xFF
   34B3 03                13970 	.db #0x03
   34B4 03                13971 	.db #0x03
   34B5 8F                13972 	.db #0x8F
   34B6 8F                13973 	.db #0x8F
   34B7 9F                13974 	.db #0x9F
   34B8 9F                13975 	.db #0x9F
   34B9 FF                13976 	.db #0xFF
   34BA FF                13977 	.db #0xFF
   34BB FF                13978 	.db #0xFF
   34BC FF                13979 	.db #0xFF
   34BD FF                13980 	.db #0xFF
   34BE FF                13981 	.db #0xFF
   34BF FF                13982 	.db #0xFF
   34C0 FF                13983 	.db #0xFF
   34C1 FF                13984 	.db #0xFF
   34C2 FF                13985 	.db #0xFF
   34C3 FE                13986 	.db #0xFE
   34C4 FE                13987 	.db #0xFE
   34C5 FE                13988 	.db #0xFE
   34C6 FE                13989 	.db #0xFE
   34C7 FF                13990 	.db #0xFF
   34C8 FF                13991 	.db #0xFF
   34C9 FF                13992 	.db #0xFF
   34CA FF                13993 	.db #0xFF
   34CB FF                13994 	.db #0xFF
   34CC FF                13995 	.db #0xFF
   34CD FF                13996 	.db #0xFF
   34CE FF                13997 	.db #0xFF
   34CF FF                13998 	.db #0xFF
   34D0 FF                13999 	.db #0xFF
   34D1 FF                14000 	.db #0xFF
   34D2 FF                14001 	.db #0xFF
   34D3 07                14002 	.db #0x07
   34D4 07                14003 	.db #0x07
   34D5 0F                14004 	.db #0x0F
   34D6 0F                14005 	.db #0x0F
   34D7 1F                14006 	.db #0x1F
   34D8 1F                14007 	.db #0x1F
   34D9 3F                14008 	.db #0x3F
   34DA 3F                14009 	.db #0x3F
   34DB FF                14010 	.db #0xFF
   34DC FF                14011 	.db #0xFF
   34DD FF                14012 	.db #0xFF
   34DE FF                14013 	.db #0xFF
   34DF FF                14014 	.db #0xFF
   34E0 FF                14015 	.db #0xFF
   34E1 FF                14016 	.db #0xFF
   34E2 FF                14017 	.db #0xFF
   34E3 F0                14018 	.db #0xF0
   34E4 F0                14019 	.db #0xF0
   34E5 D0                14020 	.db #0xD0
   34E6 D0                14021 	.db #0xD0
   34E7 D9                14022 	.db #0xD9
   34E8 D9                14023 	.db #0xD9
   34E9 ED                14024 	.db #0xED
   34EA ED                14025 	.db #0xED
   34EB E5                14026 	.db #0xE5
   34EC E5                14027 	.db #0xE5
   34ED F7                14028 	.db #0xF7
   34EE F7                14029 	.db #0xF7
   34EF F2                14030 	.db #0xF2
   34F0 F2                14031 	.db #0xF2
   34F1 F8                14032 	.db #0xF8
   34F2 F8                14033 	.db #0xF8
   34F3 C0                14034 	.db #0xC0
   34F4 C0                14035 	.db #0xC0
   34F5 80                14036 	.db #0x80
   34F6 80                14037 	.db #0x80
   34F7 80                14038 	.db #0x80
   34F8 80                14039 	.db #0x80
   34F9 00                14040 	.db #0x00
   34FA 00                14041 	.db #0x00
   34FB 00                14042 	.db #0x00
   34FC 00                14043 	.db #0x00
   34FD 00                14044 	.db #0x00
   34FE 00                14045 	.db #0x00
   34FF 00                14046 	.db #0x00
   3500 00                14047 	.db #0x00
   3501 00                14048 	.db #0x00
   3502 00                14049 	.db #0x00
   3503 04                14050 	.db #0x04
   3504 04                14051 	.db #0x04
   3505 04                14052 	.db #0x04
   3506 04                14053 	.db #0x04
   3507 06                14054 	.db #0x06
   3508 06                14055 	.db #0x06
   3509 00                14056 	.db #0x00
   350A 00                14057 	.db #0x00
   350B 00                14058 	.db #0x00
   350C 00                14059 	.db #0x00
   350D 00                14060 	.db #0x00
   350E 00                14061 	.db #0x00
   350F 00                14062 	.db #0x00
   3510 00                14063 	.db #0x00
   3511 00                14064 	.db #0x00
   3512 00                14065 	.db #0x00
   3513 19                14066 	.db #0x19
   3514 19                14067 	.db #0x19
   3515 09                14068 	.db #0x09
   3516 09                14069 	.db #0x09
   3517 0B                14070 	.db #0x0B
   3518 0B                14071 	.db #0x0B
   3519 00                14072 	.db #0x00
   351A 00                14073 	.db #0x00
   351B 00                14074 	.db #0x00
   351C 00                14075 	.db #0x00
   351D 00                14076 	.db #0x00
   351E 00                14077 	.db #0x00
   351F 00                14078 	.db #0x00
   3520 00                14079 	.db #0x00
   3521 00                14080 	.db #0x00
   3522 00                14081 	.db #0x00
   3523 08                14082 	.db #0x08
   3524 08                14083 	.db #0x08
   3525 08                14084 	.db #0x08
   3526 08                14085 	.db #0x08
   3527 00                14086 	.db #0x00
   3528 00                14087 	.db #0x00
   3529 00                14088 	.db #0x00
   352A 00                14089 	.db #0x00
   352B 00                14090 	.db #0x00
   352C 00                14091 	.db #0x00
   352D 00                14092 	.db #0x00
   352E 00                14093 	.db #0x00
   352F 00                14094 	.db #0x00
   3530 00                14095 	.db #0x00
   3531 00                14096 	.db #0x00
   3532 00                14097 	.db #0x00
   3533 C0                14098 	.db #0xC0
   3534 C0                14099 	.db #0xC0
   3535 60                14100 	.db #0x60
   3536 60                14101 	.db #0x60
   3537 00                14102 	.db #0x00
   3538 00                14103 	.db #0x00
   3539 00                14104 	.db #0x00
   353A 00                14105 	.db #0x00
   353B 00                14106 	.db #0x00
   353C 00                14107 	.db #0x00
   353D 00                14108 	.db #0x00
   353E 00                14109 	.db #0x00
   353F 00                14110 	.db #0x00
   3540 00                14111 	.db #0x00
   3541 00                14112 	.db #0x00
   3542 00                14113 	.db #0x00
   3543 3F                14114 	.db #0x3F
   3544 30                14115 	.db #0x30
   3545 BF                14116 	.db #0xBF
   3546 B0                14117 	.db #0xB0
   3547 7F                14118 	.db #0x7F
   3548 70                14119 	.db #0x70
   3549 3F                14120 	.db #0x3F
   354A 30                14121 	.db #0x30
   354B 3F                14122 	.db #0x3F
   354C 38                14123 	.db #0x38
   354D 2F                14124 	.db #0x2F
   354E 3E                14125 	.db #0x3E
   354F 3F                14126 	.db #0x3F
   3550 23                14127 	.db #0x23
   3551 3F                14128 	.db #0x3F
   3552 20                14129 	.db #0x20
   3553 FF                14130 	.db #0xFF
   3554 00                14131 	.db #0x00
   3555 FF                14132 	.db #0xFF
   3556 00                14133 	.db #0x00
   3557 FF                14134 	.db #0xFF
   3558 00                14135 	.db #0x00
   3559 FF                14136 	.db #0xFF
   355A 00                14137 	.db #0x00
   355B FF                14138 	.db #0xFF
   355C 00                14139 	.db #0x00
   355D FF                14140 	.db #0xFF
   355E 00                14141 	.db #0x00
   355F FF                14142 	.db #0xFF
   3560 80                14143 	.db #0x80
   3561 FF                14144 	.db #0xFF
   3562 C0                14145 	.db #0xC0
   3563 E1                14146 	.db #0xE1
   3564 61                14147 	.db #0x61
   3565 E0                14148 	.db #0xE0
   3566 20                14149 	.db #0x20
   3567 F8                14150 	.db #0xF8
   3568 18                14151 	.db #0x18
   3569 FC                14152 	.db #0xFC
   356A 04                14153 	.db #0x04
   356B FF                14154 	.db #0xFF
   356C 03                14155 	.db #0x03
   356D FF                14156 	.db #0xFF
   356E 00                14157 	.db #0x00
   356F FF                14158 	.db #0xFF
   3570 00                14159 	.db #0x00
   3571 FF                14160 	.db #0xFF
   3572 00                14161 	.db #0x00
   3573 F3                14162 	.db #0xF3
   3574 F3                14163 	.db #0xF3
   3575 E1                14164 	.db #0xE1
   3576 E1                14165 	.db #0xE1
   3577 C1                14166 	.db #0xC1
   3578 C1                14167 	.db #0xC1
   3579 80                14168 	.db #0x80
   357A 80                14169 	.db #0x80
   357B 80                14170 	.db #0x80
   357C 80                14171 	.db #0x80
   357D F0                14172 	.db #0xF0
   357E E0                14173 	.db #0xE0
   357F FC                14174 	.db #0xFC
   3580 1C                14175 	.db #0x1C
   3581 FF                14176 	.db #0xFF
   3582 03                14177 	.db #0x03
   3583 FF                14178 	.db #0xFF
   3584 FF                14179 	.db #0xFF
   3585 FE                14180 	.db #0xFE
   3586 FE                14181 	.db #0xFE
   3587 FC                14182 	.db #0xFC
   3588 FC                14183 	.db #0xFC
   3589 FC                14184 	.db #0xFC
   358A FC                14185 	.db #0xFC
   358B 78                14186 	.db #0x78
   358C 78                14187 	.db #0x78
   358D 78                14188 	.db #0x78
   358E 78                14189 	.db #0x78
   358F 38                14190 	.db #0x38
   3590 38                14191 	.db #0x38
   3591 F0                14192 	.db #0xF0
   3592 F0                14193 	.db #0xF0
   3593 FF                14194 	.db #0xFF
   3594 FF                14195 	.db #0xFF
   3595 FF                14196 	.db #0xFF
   3596 FF                14197 	.db #0xFF
   3597 7F                14198 	.db #0x7F
   3598 7F                14199 	.db #0x7F
   3599 7E                14200 	.db #0x7E
   359A 7E                14201 	.db #0x7E
   359B 3C                14202 	.db #0x3C
   359C 3C                14203 	.db #0x3C
   359D 3C                14204 	.db #0x3C
   359E 3C                14205 	.db #0x3C
   359F 18                14206 	.db #0x18
   35A0 18                14207 	.db #0x18
   35A1 18                14208 	.db #0x18
   35A2 18                14209 	.db #0x18
   35A3 FF                14210 	.db #0xFF
   35A4 FF                14211 	.db #0xFF
   35A5 FB                14212 	.db #0xFB
   35A6 FB                14213 	.db #0xFB
   35A7 F1                14214 	.db #0xF1
   35A8 F1                14215 	.db #0xF1
   35A9 F1                14216 	.db #0xF1
   35AA F1                14217 	.db #0xF1
   35AB F0                14218 	.db #0xF0
   35AC F0                14219 	.db #0xF0
   35AD 60                14220 	.db #0x60
   35AE 60                14221 	.db #0x60
   35AF 60                14222 	.db #0x60
   35B0 60                14223 	.db #0x60
   35B1 3F                14224 	.db #0x3F
   35B2 3F                14225 	.db #0x3F
   35B3 FC                14226 	.db #0xFC
   35B4 FC                14227 	.db #0xFC
   35B5 FE                14228 	.db #0xFE
   35B6 FE                14229 	.db #0xFE
   35B7 FB                14230 	.db #0xFB
   35B8 FB                14231 	.db #0xFB
   35B9 F9                14232 	.db #0xF9
   35BA F9                14233 	.db #0xF9
   35BB F0                14234 	.db #0xF0
   35BC F0                14235 	.db #0xF0
   35BD F0                14236 	.db #0xF0
   35BE F0                14237 	.db #0xF0
   35BF 7F                14238 	.db #0x7F
   35C0 7F                14239 	.db #0x7F
   35C1 FF                14240 	.db #0xFF
   35C2 F0                14241 	.db #0xF0
   35C3 00                14242 	.db #0x00
   35C4 00                14243 	.db #0x00
   35C5 00                14244 	.db #0x00
   35C6 00                14245 	.db #0x00
   35C7 00                14246 	.db #0x00
   35C8 00                14247 	.db #0x00
   35C9 80                14248 	.db #0x80
   35CA 80                14249 	.db #0x80
   35CB 80                14250 	.db #0x80
   35CC 80                14251 	.db #0x80
   35CD 40                14252 	.db #0x40
   35CE 40                14253 	.db #0x40
   35CF E0                14254 	.db #0xE0
   35D0 E0                14255 	.db #0xE0
   35D1 F8                14256 	.db #0xF8
   35D2 18                14257 	.db #0x18
   35D3 00                14258 	.db #0x00
   35D4 00                14259 	.db #0x00
   35D5 00                14260 	.db #0x00
   35D6 00                14261 	.db #0x00
   35D7 00                14262 	.db #0x00
   35D8 00                14263 	.db #0x00
   35D9 00                14264 	.db #0x00
   35DA 00                14265 	.db #0x00
   35DB 00                14266 	.db #0x00
   35DC 00                14267 	.db #0x00
   35DD 00                14268 	.db #0x00
   35DE 00                14269 	.db #0x00
   35DF 01                14270 	.db #0x01
   35E0 01                14271 	.db #0x01
   35E1 01                14272 	.db #0x01
   35E2 01                14273 	.db #0x01
   35E3 40                14274 	.db #0x40
   35E4 40                14275 	.db #0x40
   35E5 40                14276 	.db #0x40
   35E6 40                14277 	.db #0x40
   35E7 C0                14278 	.db #0xC0
   35E8 C0                14279 	.db #0xC0
   35E9 81                14280 	.db #0x81
   35EA 81                14281 	.db #0x81
   35EB 81                14282 	.db #0x81
   35EC 81                14283 	.db #0x81
   35ED 81                14284 	.db #0x81
   35EE 81                14285 	.db #0x81
   35EF 82                14286 	.db #0x82
   35F0 82                14287 	.db #0x82
   35F1 62                14288 	.db #0x62
   35F2 62                14289 	.db #0x62
   35F3 00                14290 	.db #0x00
   35F4 00                14291 	.db #0x00
   35F5 00                14292 	.db #0x00
   35F6 00                14293 	.db #0x00
   35F7 80                14294 	.db #0x80
   35F8 80                14295 	.db #0x80
   35F9 80                14296 	.db #0x80
   35FA 80                14297 	.db #0x80
   35FB 00                14298 	.db #0x00
   35FC 00                14299 	.db #0x00
   35FD 00                14300 	.db #0x00
   35FE 00                14301 	.db #0x00
   35FF 00                14302 	.db #0x00
   3600 00                14303 	.db #0x00
   3601 01                14304 	.db #0x01
   3602 01                14305 	.db #0x01
   3603 00                14306 	.db #0x00
   3604 00                14307 	.db #0x00
   3605 00                14308 	.db #0x00
   3606 00                14309 	.db #0x00
   3607 00                14310 	.db #0x00
   3608 00                14311 	.db #0x00
   3609 00                14312 	.db #0x00
   360A 00                14313 	.db #0x00
   360B 00                14314 	.db #0x00
   360C 00                14315 	.db #0x00
   360D 00                14316 	.db #0x00
   360E 00                14317 	.db #0x00
   360F 40                14318 	.db #0x40
   3610 40                14319 	.db #0x40
   3611 40                14320 	.db #0x40
   3612 40                14321 	.db #0x40
   3613 00                14322 	.db #0x00
   3614 00                14323 	.db #0x00
   3615 00                14324 	.db #0x00
   3616 00                14325 	.db #0x00
   3617 01                14326 	.db #0x01
   3618 01                14327 	.db #0x01
   3619 00                14328 	.db #0x00
   361A 00                14329 	.db #0x00
   361B 00                14330 	.db #0x00
   361C 00                14331 	.db #0x00
   361D 00                14332 	.db #0x00
   361E 00                14333 	.db #0x00
   361F 00                14334 	.db #0x00
   3620 00                14335 	.db #0x00
   3621 00                14336 	.db #0x00
   3622 00                14337 	.db #0x00
   3623 3F                14338 	.db #0x3F
   3624 20                14339 	.db #0x20
   3625 3F                14340 	.db #0x3F
   3626 20                14341 	.db #0x20
   3627 FF                14342 	.db #0xFF
   3628 E0                14343 	.db #0xE0
   3629 FF                14344 	.db #0xFF
   362A E0                14345 	.db #0xE0
   362B 7F                14346 	.db #0x7F
   362C 70                14347 	.db #0x70
   362D 7F                14348 	.db #0x7F
   362E 4C                14349 	.db #0x4C
   362F 7F                14350 	.db #0x7F
   3630 47                14351 	.db #0x47
   3631 7F                14352 	.db #0x7F
   3632 40                14353 	.db #0x40
   3633 FF                14354 	.db #0xFF
   3634 03                14355 	.db #0x03
   3635 FF                14356 	.db #0xFF
   3636 00                14357 	.db #0x00
   3637 FF                14358 	.db #0xFF
   3638 00                14359 	.db #0x00
   3639 FF                14360 	.db #0xFF
   363A 00                14361 	.db #0x00
   363B FF                14362 	.db #0xFF
   363C 00                14363 	.db #0x00
   363D FF                14364 	.db #0xFF
   363E 00                14365 	.db #0x00
   363F FF                14366 	.db #0xFF
   3640 00                14367 	.db #0x00
   3641 FF                14368 	.db #0xFF
   3642 00                14369 	.db #0x00
   3643 FF                14370 	.db #0xFF
   3644 C0                14371 	.db #0xC0
   3645 FF                14372 	.db #0xFF
   3646 7C                14373 	.db #0x7C
   3647 FF                14374 	.db #0xFF
   3648 07                14375 	.db #0x07
   3649 FC                14376 	.db #0xFC
   364A 04                14377 	.db #0x04
   364B FC                14378 	.db #0xFC
   364C 04                14379 	.db #0x04
   364D FC                14380 	.db #0xFC
   364E 04                14381 	.db #0x04
   364F FE                14382 	.db #0xFE
   3650 06                14383 	.db #0x06
   3651 FE                14384 	.db #0xFE
   3652 02                14385 	.db #0x02
   3653 FF                14386 	.db #0xFF
   3654 00                14387 	.db #0x00
   3655 FF                14388 	.db #0xFF
   3656 00                14389 	.db #0x00
   3657 FF                14390 	.db #0xFF
   3658 80                14391 	.db #0x80
   3659 7F                14392 	.db #0x7F
   365A 70                14393 	.db #0x70
   365B 1F                14394 	.db #0x1F
   365C 1C                14395 	.db #0x1C
   365D 07                14396 	.db #0x07
   365E 07                14397 	.db #0x07
   365F 01                14398 	.db #0x01
   3660 01                14399 	.db #0x01
   3661 00                14400 	.db #0x00
   3662 00                14401 	.db #0x00
   3663 FF                14402 	.db #0xFF
   3664 1F                14403 	.db #0x1F
   3665 FF                14404 	.db #0xFF
   3666 00                14405 	.db #0x00
   3667 FF                14406 	.db #0xFF
   3668 00                14407 	.db #0x00
   3669 FF                14408 	.db #0xFF
   366A 00                14409 	.db #0x00
   366B FF                14410 	.db #0xFF
   366C 00                14411 	.db #0x00
   366D 7F                14412 	.db #0x7F
   366E 80                14413 	.db #0x80
   366F FF                14414 	.db #0xFF
   3670 F0                14415 	.db #0xF0
   3671 1F                14416 	.db #0x1F
   3672 1E                14417 	.db #0x1E
   3673 FF                14418 	.db #0xFF
   3674 FF                14419 	.db #0xFF
   3675 FF                14420 	.db #0xFF
   3676 00                14421 	.db #0x00
   3677 FF                14422 	.db #0xFF
   3678 00                14423 	.db #0x00
   3679 FF                14424 	.db #0xFF
   367A 00                14425 	.db #0x00
   367B FF                14426 	.db #0xFF
   367C 00                14427 	.db #0x00
   367D FF                14428 	.db #0xFF
   367E 00                14429 	.db #0x00
   367F FF                14430 	.db #0xFF
   3680 00                14431 	.db #0x00
   3681 FF                14432 	.db #0xFF
   3682 00                14433 	.db #0x00
   3683 FF                14434 	.db #0xFF
   3684 E0                14435 	.db #0xE0
   3685 FF                14436 	.db #0xFF
   3686 00                14437 	.db #0x00
   3687 FF                14438 	.db #0xFF
   3688 00                14439 	.db #0x00
   3689 FF                14440 	.db #0xFF
   368A 00                14441 	.db #0x00
   368B FF                14442 	.db #0xFF
   368C 00                14443 	.db #0x00
   368D FF                14444 	.db #0xFF
   368E 00                14445 	.db #0x00
   368F FF                14446 	.db #0xFF
   3690 00                14447 	.db #0x00
   3691 FF                14448 	.db #0xFF
   3692 00                14449 	.db #0x00
   3693 FC                14450 	.db #0xFC
   3694 0C                14451 	.db #0x0C
   3695 FE                14452 	.db #0xFE
   3696 06                14453 	.db #0x06
   3697 FF                14454 	.db #0xFF
   3698 03                14455 	.db #0x03
   3699 FF                14456 	.db #0xFF
   369A 01                14457 	.db #0x01
   369B FF                14458 	.db #0xFF
   369C 00                14459 	.db #0x00
   369D FF                14460 	.db #0xFF
   369E 00                14461 	.db #0x00
   369F FF                14462 	.db #0xFF
   36A0 00                14463 	.db #0x00
   36A1 FF                14464 	.db #0xFF
   36A2 00                14465 	.db #0x00
   36A3 01                14466 	.db #0x01
   36A4 01                14467 	.db #0x01
   36A5 02                14468 	.db #0x02
   36A6 02                14469 	.db #0x02
   36A7 02                14470 	.db #0x02
   36A8 02                14471 	.db #0x02
   36A9 84                14472 	.db #0x84
   36AA 84                14473 	.db #0x84
   36AB C0                14474 	.db #0xC0
   36AC C0                14475 	.db #0xC0
   36AD C0                14476 	.db #0xC0
   36AE 40                14477 	.db #0x40
   36AF E0                14478 	.db #0xE0
   36B0 60                14479 	.db #0x60
   36B1 E0                14480 	.db #0xE0
   36B2 20                14481 	.db #0x20
   36B3 3C                14482 	.db #0x3C
   36B4 3C                14483 	.db #0x3C
   36B5 04                14484 	.db #0x04
   36B6 04                14485 	.db #0x04
   36B7 04                14486 	.db #0x04
   36B8 04                14487 	.db #0x04
   36B9 08                14488 	.db #0x08
   36BA 08                14489 	.db #0x08
   36BB 08                14490 	.db #0x08
   36BC 08                14491 	.db #0x08
   36BD 10                14492 	.db #0x10
   36BE 10                14493 	.db #0x10
   36BF 30                14494 	.db #0x30
   36C0 30                14495 	.db #0x30
   36C1 01                14496 	.db #0x01
   36C2 01                14497 	.db #0x01
   36C3 01                14498 	.db #0x01
   36C4 01                14499 	.db #0x01
   36C5 07                14500 	.db #0x07
   36C6 07                14501 	.db #0x07
   36C7 0F                14502 	.db #0x0F
   36C8 0F                14503 	.db #0x0F
   36C9 1A                14504 	.db #0x1A
   36CA 1A                14505 	.db #0x1A
   36CB 3A                14506 	.db #0x3A
   36CC 3A                14507 	.db #0x3A
   36CD 66                14508 	.db #0x66
   36CE 66                14509 	.db #0x66
   36CF 87                14510 	.db #0x87
   36D0 87                14511 	.db #0x87
   36D1 05                14512 	.db #0x05
   36D2 05                14513 	.db #0x05
   36D3 00                14514 	.db #0x00
   36D4 00                14515 	.db #0x00
   36D5 00                14516 	.db #0x00
   36D6 00                14517 	.db #0x00
   36D7 00                14518 	.db #0x00
   36D8 00                14519 	.db #0x00
   36D9 01                14520 	.db #0x01
   36DA 01                14521 	.db #0x01
   36DB 01                14522 	.db #0x01
   36DC 01                14523 	.db #0x01
   36DD 02                14524 	.db #0x02
   36DE 02                14525 	.db #0x02
   36DF 02                14526 	.db #0x02
   36E0 02                14527 	.db #0x02
   36E1 04                14528 	.db #0x04
   36E2 04                14529 	.db #0x04
   36E3 80                14530 	.db #0x80
   36E4 80                14531 	.db #0x80
   36E5 80                14532 	.db #0x80
   36E6 80                14533 	.db #0x80
   36E7 80                14534 	.db #0x80
   36E8 80                14535 	.db #0x80
   36E9 00                14536 	.db #0x00
   36EA 00                14537 	.db #0x00
   36EB 00                14538 	.db #0x00
   36EC 00                14539 	.db #0x00
   36ED 00                14540 	.db #0x00
   36EE 00                14541 	.db #0x00
   36EF 00                14542 	.db #0x00
   36F0 00                14543 	.db #0x00
   36F1 00                14544 	.db #0x00
   36F2 00                14545 	.db #0x00
   36F3 00                14546 	.db #0x00
   36F4 00                14547 	.db #0x00
   36F5 01                14548 	.db #0x01
   36F6 01                14549 	.db #0x01
   36F7 00                14550 	.db #0x00
   36F8 00                14551 	.db #0x00
   36F9 00                14552 	.db #0x00
   36FA 00                14553 	.db #0x00
   36FB 00                14554 	.db #0x00
   36FC 00                14555 	.db #0x00
   36FD 00                14556 	.db #0x00
   36FE 00                14557 	.db #0x00
   36FF 00                14558 	.db #0x00
   3700 00                14559 	.db #0x00
   3701 00                14560 	.db #0x00
   3702 00                14561 	.db #0x00
   3703 7F                14562 	.db #0x7F
   3704 40                14563 	.db #0x40
   3705 FF                14564 	.db #0xFF
   3706 E0                14565 	.db #0xE0
   3707 7F                14566 	.db #0x7F
   3708 7E                14567 	.db #0x7E
   3709 7F                14568 	.db #0x7F
   370A 47                14569 	.db #0x47
   370B 7F                14570 	.db #0x7F
   370C 40                14571 	.db #0x40
   370D 7F                14572 	.db #0x7F
   370E 40                14573 	.db #0x40
   370F 7F                14574 	.db #0x7F
   3710 40                14575 	.db #0x40
   3711 FF                14576 	.db #0xFF
   3712 C0                14577 	.db #0xC0
   3713 FF                14578 	.db #0xFF
   3714 03                14579 	.db #0x03
   3715 FF                14580 	.db #0xFF
   3716 01                14581 	.db #0x01
   3717 FF                14582 	.db #0xFF
   3718 01                14583 	.db #0x01
   3719 FF                14584 	.db #0xFF
   371A 00                14585 	.db #0x00
   371B FF                14586 	.db #0xFF
   371C 00                14587 	.db #0x00
   371D FF                14588 	.db #0xFF
   371E 00                14589 	.db #0x00
   371F FF                14590 	.db #0xFF
   3720 00                14591 	.db #0x00
   3721 FF                14592 	.db #0xFF
   3722 00                14593 	.db #0x00
   3723 00                14594 	.db #0x00
   3724 00                14595 	.db #0x00
   3725 00                14596 	.db #0x00
   3726 00                14597 	.db #0x00
   3727 80                14598 	.db #0x80
   3728 80                14599 	.db #0x80
   3729 80                14600 	.db #0x80
   372A 80                14601 	.db #0x80
   372B 80                14602 	.db #0x80
   372C 80                14603 	.db #0x80
   372D C0                14604 	.db #0xC0
   372E C0                14605 	.db #0xC0
   372F C0                14606 	.db #0xC0
   3730 40                14607 	.db #0x40
   3731 E0                14608 	.db #0xE0
   3732 60                14609 	.db #0x60
   3733 03                14610 	.db #0x03
   3734 03                14611 	.db #0x03
   3735 00                14612 	.db #0x00
   3736 00                14613 	.db #0x00
   3737 00                14614 	.db #0x00
   3738 00                14615 	.db #0x00
   3739 00                14616 	.db #0x00
   373A 00                14617 	.db #0x00
   373B 00                14618 	.db #0x00
   373C 00                14619 	.db #0x00
   373D 00                14620 	.db #0x00
   373E 00                14621 	.db #0x00
   373F 00                14622 	.db #0x00
   3740 00                14623 	.db #0x00
   3741 00                14624 	.db #0x00
   3742 00                14625 	.db #0x00
   3743 FF                14626 	.db #0xFF
   3744 80                14627 	.db #0x80
   3745 7F                14628 	.db #0x7F
   3746 70                14629 	.db #0x70
   3747 1F                14630 	.db #0x1F
   3748 18                14631 	.db #0x18
   3749 0F                14632 	.db #0x0F
   374A 0E                14633 	.db #0x0E
   374B 03                14634 	.db #0x03
   374C 03                14635 	.db #0x03
   374D 00                14636 	.db #0x00
   374E 00                14637 	.db #0x00
   374F 00                14638 	.db #0x00
   3750 00                14639 	.db #0x00
   3751 00                14640 	.db #0x00
   3752 00                14641 	.db #0x00
   3753 FF                14642 	.db #0xFF
   3754 00                14643 	.db #0x00
   3755 FF                14644 	.db #0xFF
   3756 00                14645 	.db #0x00
   3757 FF                14646 	.db #0xFF
   3758 00                14647 	.db #0x00
   3759 FF                14648 	.db #0xFF
   375A 00                14649 	.db #0x00
   375B FF                14650 	.db #0xFF
   375C C0                14651 	.db #0xC0
   375D 7F                14652 	.db #0x7F
   375E 7F                14653 	.db #0x7F
   375F 01                14654 	.db #0x01
   3760 01                14655 	.db #0x01
   3761 00                14656 	.db #0x00
   3762 00                14657 	.db #0x00
   3763 FF                14658 	.db #0xFF
   3764 00                14659 	.db #0x00
   3765 FF                14660 	.db #0xFF
   3766 00                14661 	.db #0x00
   3767 FF                14662 	.db #0xFF
   3768 00                14663 	.db #0x00
   3769 FF                14664 	.db #0xFF
   376A 00                14665 	.db #0x00
   376B FF                14666 	.db #0xFF
   376C 00                14667 	.db #0x00
   376D FF                14668 	.db #0xFF
   376E 00                14669 	.db #0x00
   376F FF                14670 	.db #0xFF
   3770 E1                14671 	.db #0xE1
   3771 3F                14672 	.db #0x3F
   3772 3F                14673 	.db #0x3F
   3773 FF                14674 	.db #0xFF
   3774 00                14675 	.db #0x00
   3775 FF                14676 	.db #0xFF
   3776 00                14677 	.db #0x00
   3777 FF                14678 	.db #0xFF
   3778 03                14679 	.db #0x03
   3779 FE                14680 	.db #0xFE
   377A 0E                14681 	.db #0x0E
   377B F8                14682 	.db #0xF8
   377C 38                14683 	.db #0x38
   377D E0                14684 	.db #0xE0
   377E E0                14685 	.db #0xE0
   377F 80                14686 	.db #0x80
   3780 80                14687 	.db #0x80
   3781 00                14688 	.db #0x00
   3782 00                14689 	.db #0x00
   3783 E0                14690 	.db #0xE0
   3784 20                14691 	.db #0x20
   3785 E0                14692 	.db #0xE0
   3786 60                14693 	.db #0x60
   3787 C0                14694 	.db #0xC0
   3788 C0                14695 	.db #0xC0
   3789 00                14696 	.db #0x00
   378A 00                14697 	.db #0x00
   378B 00                14698 	.db #0x00
   378C 00                14699 	.db #0x00
   378D 00                14700 	.db #0x00
   378E 00                14701 	.db #0x00
   378F 00                14702 	.db #0x00
   3790 00                14703 	.db #0x00
   3791 00                14704 	.db #0x00
   3792 00                14705 	.db #0x00
   3793 02                14706 	.db #0x02
   3794 02                14707 	.db #0x02
   3795 00                14708 	.db #0x00
   3796 00                14709 	.db #0x00
   3797 00                14710 	.db #0x00
   3798 00                14711 	.db #0x00
   3799 00                14712 	.db #0x00
   379A 00                14713 	.db #0x00
   379B 00                14714 	.db #0x00
   379C 00                14715 	.db #0x00
   379D 00                14716 	.db #0x00
   379E 00                14717 	.db #0x00
   379F 00                14718 	.db #0x00
   37A0 00                14719 	.db #0x00
   37A1 00                14720 	.db #0x00
   37A2 00                14721 	.db #0x00
   37A3 04                14722 	.db #0x04
   37A4 04                14723 	.db #0x04
   37A5 04                14724 	.db #0x04
   37A6 04                14725 	.db #0x04
   37A7 04                14726 	.db #0x04
   37A8 04                14727 	.db #0x04
   37A9 0C                14728 	.db #0x0C
   37AA 0C                14729 	.db #0x0C
   37AB 00                14730 	.db #0x00
   37AC 00                14731 	.db #0x00
   37AD 00                14732 	.db #0x00
   37AE 00                14733 	.db #0x00
   37AF 00                14734 	.db #0x00
   37B0 00                14735 	.db #0x00
   37B1 00                14736 	.db #0x00
   37B2 00                14737 	.db #0x00
   37B3 04                14738 	.db #0x04
   37B4 04                14739 	.db #0x04
   37B5 04                14740 	.db #0x04
   37B6 04                14741 	.db #0x04
   37B7 00                14742 	.db #0x00
   37B8 00                14743 	.db #0x00
   37B9 00                14744 	.db #0x00
   37BA 00                14745 	.db #0x00
   37BB 60                14746 	.db #0x60
   37BC 60                14747 	.db #0x60
   37BD 40                14748 	.db #0x40
   37BE 40                14749 	.db #0x40
   37BF 40                14750 	.db #0x40
   37C0 40                14751 	.db #0x40
   37C1 00                14752 	.db #0x00
   37C2 00                14753 	.db #0x00
   37C3 1F                14754 	.db #0x1F
   37C4 1F                14755 	.db #0x1F
   37C5 3F                14756 	.db #0x3F
   37C6 3F                14757 	.db #0x3F
   37C7 3F                14758 	.db #0x3F
   37C8 3F                14759 	.db #0x3F
   37C9 7F                14760 	.db #0x7F
   37CA 7F                14761 	.db #0x7F
   37CB 7F                14762 	.db #0x7F
   37CC 7F                14763 	.db #0x7F
   37CD 7F                14764 	.db #0x7F
   37CE 7F                14765 	.db #0x7F
   37CF 7F                14766 	.db #0x7F
   37D0 7F                14767 	.db #0x7F
   37D1 7F                14768 	.db #0x7F
   37D2 7F                14769 	.db #0x7F
   37D3 FE                14770 	.db #0xFE
   37D4 FE                14771 	.db #0xFE
   37D5 FF                14772 	.db #0xFF
   37D6 FF                14773 	.db #0xFF
   37D7 FF                14774 	.db #0xFF
   37D8 FF                14775 	.db #0xFF
   37D9 FF                14776 	.db #0xFF
   37DA FF                14777 	.db #0xFF
   37DB FF                14778 	.db #0xFF
   37DC FF                14779 	.db #0xFF
   37DD FF                14780 	.db #0xFF
   37DE FF                14781 	.db #0xFF
   37DF FF                14782 	.db #0xFF
   37E0 FF                14783 	.db #0xFF
   37E1 FF                14784 	.db #0xFF
   37E2 FF                14785 	.db #0xFF
   37E3 07                14786 	.db #0x07
   37E4 07                14787 	.db #0x07
   37E5 FF                14788 	.db #0xFF
   37E6 FF                14789 	.db #0xFF
   37E7 FF                14790 	.db #0xFF
   37E8 FF                14791 	.db #0xFF
   37E9 FF                14792 	.db #0xFF
   37EA FF                14793 	.db #0xFF
   37EB FF                14794 	.db #0xFF
   37EC FF                14795 	.db #0xFF
   37ED FF                14796 	.db #0xFF
   37EE FF                14797 	.db #0xFF
   37EF FF                14798 	.db #0xFF
   37F0 FF                14799 	.db #0xFF
   37F1 FF                14800 	.db #0xFF
   37F2 FF                14801 	.db #0xFF
   37F3 FF                14802 	.db #0xFF
   37F4 F0                14803 	.db #0xF0
   37F5 FF                14804 	.db #0xFF
   37F6 F8                14805 	.db #0xF8
   37F7 FF                14806 	.db #0xFF
   37F8 F8                14807 	.db #0xF8
   37F9 FF                14808 	.db #0xFF
   37FA FC                14809 	.db #0xFC
   37FB FF                14810 	.db #0xFF
   37FC FE                14811 	.db #0xFE
   37FD FF                14812 	.db #0xFF
   37FE FF                14813 	.db #0xFF
   37FF FF                14814 	.db #0xFF
   3800 FF                14815 	.db #0xFF
   3801 FF                14816 	.db #0xFF
   3802 FF                14817 	.db #0xFF
   3803 E0                14818 	.db #0xE0
   3804 60                14819 	.db #0x60
   3805 F0                14820 	.db #0xF0
   3806 70                14821 	.db #0x70
   3807 F0                14822 	.db #0xF0
   3808 30                14823 	.db #0x30
   3809 F0                14824 	.db #0xF0
   380A 30                14825 	.db #0x30
   380B F8                14826 	.db #0xF8
   380C 38                14827 	.db #0x38
   380D FF                14828 	.db #0xFF
   380E 1F                14829 	.db #0x1F
   380F FF                14830 	.db #0xFF
   3810 07                14831 	.db #0x07
   3811 FF                14832 	.db #0xFF
   3812 03                14833 	.db #0x03
   3813 00                14834 	.db #0x00
   3814 00                14835 	.db #0x00
   3815 00                14836 	.db #0x00
   3816 00                14837 	.db #0x00
   3817 00                14838 	.db #0x00
   3818 00                14839 	.db #0x00
   3819 00                14840 	.db #0x00
   381A 00                14841 	.db #0x00
   381B FF                14842 	.db #0xFF
   381C FF                14843 	.db #0xFF
   381D FF                14844 	.db #0xFF
   381E FF                14845 	.db #0xFF
   381F FF                14846 	.db #0xFF
   3820 FF                14847 	.db #0xFF
   3821 FF                14848 	.db #0xFF
   3822 FF                14849 	.db #0xFF
   3823 00                14850 	.db #0x00
   3824 00                14851 	.db #0x00
   3825 00                14852 	.db #0x00
   3826 00                14853 	.db #0x00
   3827 0F                14854 	.db #0x0F
   3828 0F                14855 	.db #0x0F
   3829 FF                14856 	.db #0xFF
   382A FF                14857 	.db #0xFF
   382B FF                14858 	.db #0xFF
   382C FF                14859 	.db #0xFF
   382D FF                14860 	.db #0xFF
   382E FF                14861 	.db #0xFF
   382F FF                14862 	.db #0xFF
   3830 FF                14863 	.db #0xFF
   3831 FF                14864 	.db #0xFF
   3832 FF                14865 	.db #0xFF
   3833 00                14866 	.db #0x00
   3834 00                14867 	.db #0x00
   3835 00                14868 	.db #0x00
   3836 00                14869 	.db #0x00
   3837 80                14870 	.db #0x80
   3838 80                14871 	.db #0x80
   3839 E0                14872 	.db #0xE0
   383A E0                14873 	.db #0xE0
   383B F0                14874 	.db #0xF0
   383C F0                14875 	.db #0xF0
   383D F8                14876 	.db #0xF8
   383E F8                14877 	.db #0xF8
   383F FC                14878 	.db #0xFC
   3840 FC                14879 	.db #0xFC
   3841 FE                14880 	.db #0xFE
   3842 FE                14881 	.db #0xFE
   3843 FF                14882 	.db #0xFF
   3844 F0                14883 	.db #0xF0
   3845 FF                14884 	.db #0xFF
   3846 F8                14885 	.db #0xF8
   3847 FF                14886 	.db #0xFF
   3848 FC                14887 	.db #0xFC
   3849 FF                14888 	.db #0xFF
   384A FE                14889 	.db #0xFE
   384B FF                14890 	.db #0xFF
   384C FF                14891 	.db #0xFF
   384D FF                14892 	.db #0xFF
   384E FF                14893 	.db #0xFF
   384F FF                14894 	.db #0xFF
   3850 FF                14895 	.db #0xFF
   3851 FF                14896 	.db #0xFF
   3852 FF                14897 	.db #0xFF
   3853 FF                14898 	.db #0xFF
   3854 00                14899 	.db #0x00
   3855 FF                14900 	.db #0xFF
   3856 00                14901 	.db #0x00
   3857 FF                14902 	.db #0xFF
   3858 00                14903 	.db #0x00
   3859 FF                14904 	.db #0xFF
   385A 00                14905 	.db #0x00
   385B FF                14906 	.db #0xFF
   385C 80                14907 	.db #0x80
   385D FF                14908 	.db #0xFF
   385E C0                14909 	.db #0xC0
   385F FF                14910 	.db #0xFF
   3860 F0                14911 	.db #0xF0
   3861 FF                14912 	.db #0xFF
   3862 F8                14913 	.db #0xF8
   3863 FF                14914 	.db #0xFF
   3864 03                14915 	.db #0x03
   3865 FE                14916 	.db #0xFE
   3866 01                14917 	.db #0x01
   3867 FF                14918 	.db #0xFF
   3868 01                14919 	.db #0x01
   3869 FF                14920 	.db #0xFF
   386A 01                14921 	.db #0x01
   386B FF                14922 	.db #0xFF
   386C 01                14923 	.db #0x01
   386D FF                14924 	.db #0xFF
   386E 01                14925 	.db #0x01
   386F FF                14926 	.db #0xFF
   3870 01                14927 	.db #0x01
   3871 FE                14928 	.db #0xFE
   3872 01                14929 	.db #0x01
   3873 00                14930 	.db #0x00
   3874 00                14931 	.db #0x00
   3875 80                14932 	.db #0x80
   3876 80                14933 	.db #0x80
   3877 80                14934 	.db #0x80
   3878 80                14935 	.db #0x80
   3879 C0                14936 	.db #0xC0
   387A C0                14937 	.db #0xC0
   387B E0                14938 	.db #0xE0
   387C E0                14939 	.db #0xE0
   387D E0                14940 	.db #0xE0
   387E E0                14941 	.db #0xE0
   387F F0                14942 	.db #0xF0
   3880 F0                14943 	.db #0xF0
   3881 F8                14944 	.db #0xF8
   3882 F8                14945 	.db #0xF8
   3883 00                14946 	.db #0x00
   3884 00                14947 	.db #0x00
   3885 01                14948 	.db #0x01
   3886 01                14949 	.db #0x01
   3887 01                14950 	.db #0x01
   3888 01                14951 	.db #0x01
   3889 01                14952 	.db #0x01
   388A 01                14953 	.db #0x01
   388B 01                14954 	.db #0x01
   388C 01                14955 	.db #0x01
   388D 03                14956 	.db #0x03
   388E 03                14957 	.db #0x03
   388F 03                14958 	.db #0x03
   3890 03                14959 	.db #0x03
   3891 03                14960 	.db #0x03
   3892 03                14961 	.db #0x03
   3893 FF                14962 	.db #0xFF
   3894 FE                14963 	.db #0xFE
   3895 FF                14964 	.db #0xFF
   3896 FF                14965 	.db #0xFF
   3897 FF                14966 	.db #0xFF
   3898 FF                14967 	.db #0xFF
   3899 FF                14968 	.db #0xFF
   389A FF                14969 	.db #0xFF
   389B FF                14970 	.db #0xFF
   389C FF                14971 	.db #0xFF
   389D FF                14972 	.db #0xFF
   389E FF                14973 	.db #0xFF
   389F FF                14974 	.db #0xFF
   38A0 FF                14975 	.db #0xFF
   38A1 FF                14976 	.db #0xFF
   38A2 FF                14977 	.db #0xFF
   38A3 FF                14978 	.db #0xFF
   38A4 01                14979 	.db #0x01
   38A5 FF                14980 	.db #0xFF
   38A6 81                14981 	.db #0x81
   38A7 FF                14982 	.db #0xFF
   38A8 C3                14983 	.db #0xC3
   38A9 FF                14984 	.db #0xFF
   38AA F3                14985 	.db #0xF3
   38AB FF                14986 	.db #0xFF
   38AC FF                14987 	.db #0xFF
   38AD FF                14988 	.db #0xFF
   38AE FF                14989 	.db #0xFF
   38AF FF                14990 	.db #0xFF
   38B0 FF                14991 	.db #0xFF
   38B1 FF                14992 	.db #0xFF
   38B2 FF                14993 	.db #0xFF
   38B3 FC                14994 	.db #0xFC
   38B4 FC                14995 	.db #0xFC
   38B5 FE                14996 	.db #0xFE
   38B6 FE                14997 	.db #0xFE
   38B7 FE                14998 	.db #0xFE
   38B8 FE                14999 	.db #0xFE
   38B9 FF                15000 	.db #0xFF
   38BA FF                15001 	.db #0xFF
   38BB FF                15002 	.db #0xFF
   38BC FF                15003 	.db #0xFF
   38BD FF                15004 	.db #0xFF
   38BE FF                15005 	.db #0xFF
   38BF FF                15006 	.db #0xFF
   38C0 FF                15007 	.db #0xFF
   38C1 FF                15008 	.db #0xFF
   38C2 FF                15009 	.db #0xFF
   38C3 00                15010 	.db #0x00
   38C4 00                15011 	.db #0x00
   38C5 00                15012 	.db #0x00
   38C6 00                15013 	.db #0x00
   38C7 00                15014 	.db #0x00
   38C8 00                15015 	.db #0x00
   38C9 00                15016 	.db #0x00
   38CA 00                15017 	.db #0x00
   38CB 80                15018 	.db #0x80
   38CC 80                15019 	.db #0x80
   38CD 80                15020 	.db #0x80
   38CE 80                15021 	.db #0x80
   38CF C0                15022 	.db #0xC0
   38D0 C0                15023 	.db #0xC0
   38D1 C0                15024 	.db #0xC0
   38D2 C0                15025 	.db #0xC0
   38D3 03                15026 	.db #0x03
   38D4 03                15027 	.db #0x03
   38D5 03                15028 	.db #0x03
   38D6 03                15029 	.db #0x03
   38D7 03                15030 	.db #0x03
   38D8 03                15031 	.db #0x03
   38D9 03                15032 	.db #0x03
   38DA 03                15033 	.db #0x03
   38DB 03                15034 	.db #0x03
   38DC 03                15035 	.db #0x03
   38DD 03                15036 	.db #0x03
   38DE 03                15037 	.db #0x03
   38DF 03                15038 	.db #0x03
   38E0 03                15039 	.db #0x03
   38E1 03                15040 	.db #0x03
   38E2 03                15041 	.db #0x03
   38E3 C0                15042 	.db #0xC0
   38E4 C0                15043 	.db #0xC0
   38E5 E0                15044 	.db #0xE0
   38E6 E0                15045 	.db #0xE0
   38E7 E0                15046 	.db #0xE0
   38E8 E0                15047 	.db #0xE0
   38E9 E0                15048 	.db #0xE0
   38EA E0                15049 	.db #0xE0
   38EB E0                15050 	.db #0xE0
   38EC E0                15051 	.db #0xE0
   38ED F0                15052 	.db #0xF0
   38EE F0                15053 	.db #0xF0
   38EF F0                15054 	.db #0xF0
   38F0 F0                15055 	.db #0xF0
   38F1 F0                15056 	.db #0xF0
   38F2 F0                15057 	.db #0xF0
   38F3 03                15058 	.db #0x03
   38F4 03                15059 	.db #0x03
   38F5 07                15060 	.db #0x07
   38F6 07                15061 	.db #0x07
   38F7 07                15062 	.db #0x07
   38F8 07                15063 	.db #0x07
   38F9 07                15064 	.db #0x07
   38FA 07                15065 	.db #0x07
   38FB 07                15066 	.db #0x07
   38FC 07                15067 	.db #0x07
   38FD 07                15068 	.db #0x07
   38FE 07                15069 	.db #0x07
   38FF 07                15070 	.db #0x07
   3900 07                15071 	.db #0x07
   3901 0F                15072 	.db #0x0F
   3902 0F                15073 	.db #0x0F
   3903 F0                15074 	.db #0xF0
   3904 F0                15075 	.db #0xF0
   3905 F8                15076 	.db #0xF8
   3906 F8                15077 	.db #0xF8
   3907 F8                15078 	.db #0xF8
   3908 F8                15079 	.db #0xF8
   3909 F8                15080 	.db #0xF8
   390A F8                15081 	.db #0xF8
   390B F8                15082 	.db #0xF8
   390C F8                15083 	.db #0xF8
   390D F8                15084 	.db #0xF8
   390E F8                15085 	.db #0xF8
   390F FC                15086 	.db #0xFC
   3910 FC                15087 	.db #0xFC
   3911 FC                15088 	.db #0xFC
   3912 FC                15089 	.db #0xFC
   3913                   15090 _devil_laugh_map:
   3913 00                15091 	.db #0x00
   3914 00                15092 	.db #0x00
   3915 00                15093 	.db #0x00
   3916 00                15094 	.db #0x00
   3917 00                15095 	.db #0x00
   3918 00                15096 	.db #0x00
   3919 00                15097 	.db #0x00
   391A 00                15098 	.db #0x00
   391B 00                15099 	.db #0x00
   391C 00                15100 	.db #0x00
   391D 01                15101 	.db #0x01
   391E 00                15102 	.db #0x00
   391F 00                15103 	.db #0x00
   3920 00                15104 	.db #0x00
   3921 00                15105 	.db #0x00
   3922 00                15106 	.db #0x00
   3923 00                15107 	.db #0x00
   3924 00                15108 	.db #0x00
   3925 00                15109 	.db #0x00
   3926 00                15110 	.db #0x00
   3927 00                15111 	.db #0x00
   3928 00                15112 	.db #0x00
   3929 00                15113 	.db #0x00
   392A 00                15114 	.db #0x00
   392B 00                15115 	.db #0x00
   392C 00                15116 	.db #0x00
   392D 02                15117 	.db #0x02
   392E 03                15118 	.db #0x03
   392F 00                15119 	.db #0x00
   3930 00                15120 	.db #0x00
   3931 04                15121 	.db #0x04
   3932 00                15122 	.db #0x00
   3933 05                15123 	.db #0x05
   3934 06                15124 	.db #0x06
   3935 07                15125 	.db #0x07
   3936 00                15126 	.db #0x00
   3937 00                15127 	.db #0x00
   3938 00                15128 	.db #0x00
   3939 00                15129 	.db #0x00
   393A 00                15130 	.db #0x00
   393B 00                15131 	.db #0x00
   393C 00                15132 	.db #0x00
   393D 00                15133 	.db #0x00
   393E 00                15134 	.db #0x00
   393F 00                15135 	.db #0x00
   3940 08                15136 	.db #0x08
   3941 09                15137 	.db #0x09
   3942 0A                15138 	.db #0x0A
   3943 00                15139 	.db #0x00
   3944 0B                15140 	.db #0x0B
   3945 0C                15141 	.db #0x0C
   3946 0D                15142 	.db #0x0D
   3947 0E                15143 	.db #0x0E
   3948 0F                15144 	.db #0x0F
   3949 10                15145 	.db #0x10
   394A 00                15146 	.db #0x00
   394B 11                15147 	.db #0x11
   394C 00                15148 	.db #0x00
   394D 00                15149 	.db #0x00
   394E 00                15150 	.db #0x00
   394F 00                15151 	.db #0x00
   3950 00                15152 	.db #0x00
   3951 00                15153 	.db #0x00
   3952 00                15154 	.db #0x00
   3953 12                15155 	.db #0x12
   3954 13                15156 	.db #0x13
   3955 14                15157 	.db #0x14
   3956 15                15158 	.db #0x15
   3957 16                15159 	.db #0x16
   3958 17                15160 	.db #0x17
   3959 18                15161 	.db #0x18
   395A 19                15162 	.db #0x19
   395B 1A                15163 	.db #0x1A
   395C 1B                15164 	.db #0x1B
   395D 1C                15165 	.db #0x1C
   395E 1D                15166 	.db #0x1D
   395F 1E                15167 	.db #0x1E
   3960 00                15168 	.db #0x00
   3961 00                15169 	.db #0x00
   3962 00                15170 	.db #0x00
   3963 00                15171 	.db #0x00
   3964 00                15172 	.db #0x00
   3965 00                15173 	.db #0x00
   3966 00                15174 	.db #0x00
   3967 00                15175 	.db #0x00
   3968 1F                15176 	.db #0x1F
   3969 20                15177 	.db #0x20
   396A 21                15178 	.db #0x21
   396B 22                15179 	.db #0x22
   396C 23                15180 	.db #0x23
   396D 24                15181 	.db #0x24
   396E 25                15182 	.db #0x25
   396F 26                15183 	.db #0x26
   3970 27                15184 	.db #0x27
   3971 28                15185 	.db #0x28
   3972 29                15186 	.db #0x29
   3973 00                15187 	.db #0x00
   3974 00                15188 	.db #0x00
   3975 00                15189 	.db #0x00
   3976 00                15190 	.db #0x00
   3977 00                15191 	.db #0x00
   3978 00                15192 	.db #0x00
   3979 00                15193 	.db #0x00
   397A 00                15194 	.db #0x00
   397B 00                15195 	.db #0x00
   397C 2A                15196 	.db #0x2A
   397D 2B                15197 	.db #0x2B
   397E 2C                15198 	.db #0x2C
   397F 2D                15199 	.db #0x2D
   3980 2E                15200 	.db #0x2E
   3981 2F                15201 	.db #0x2F
   3982 30                15202 	.db #0x30
   3983 31                15203 	.db #0x31
   3984 32                15204 	.db #0x32
   3985 33                15205 	.db #0x33
   3986 34                15206 	.db #0x34
   3987 00                15207 	.db #0x00
   3988 00                15208 	.db #0x00
   3989 00                15209 	.db #0x00
   398A 00                15210 	.db #0x00
   398B 00                15211 	.db #0x00
   398C 00                15212 	.db #0x00
   398D 00                15213 	.db #0x00
   398E 00                15214 	.db #0x00
   398F 00                15215 	.db #0x00
   3990 35                15216 	.db #0x35
   3991 36                15217 	.db #0x36
   3992 37                15218 	.db #0x37
   3993 38                15219 	.db #0x38
   3994 00                15220 	.db #0x00
   3995 39                15221 	.db #0x39
   3996 3A                15222 	.db #0x3A
   3997 3B                15223 	.db #0x3B
   3998 3C                15224 	.db #0x3C
   3999 3D                15225 	.db #0x3D
   399A 00                15226 	.db #0x00
   399B 00                15227 	.db #0x00
   399C 00                15228 	.db #0x00
   399D 00                15229 	.db #0x00
   399E 00                15230 	.db #0x00
   399F 00                15231 	.db #0x00
   39A0 00                15232 	.db #0x00
   39A1 00                15233 	.db #0x00
   39A2 00                15234 	.db #0x00
   39A3 00                15235 	.db #0x00
   39A4 3E                15236 	.db #0x3E
   39A5 3F                15237 	.db #0x3F
   39A6 40                15238 	.db #0x40
   39A7 41                15239 	.db #0x41
   39A8 42                15240 	.db #0x42
   39A9 43                15241 	.db #0x43
   39AA 44                15242 	.db #0x44
   39AB 45                15243 	.db #0x45
   39AC 46                15244 	.db #0x46
   39AD 47                15245 	.db #0x47
   39AE 00                15246 	.db #0x00
   39AF 00                15247 	.db #0x00
   39B0 48                15248 	.db #0x48
   39B1 0A                15249 	.db #0x0A
   39B2 00                15250 	.db #0x00
   39B3 00                15251 	.db #0x00
   39B4 00                15252 	.db #0x00
   39B5 00                15253 	.db #0x00
   39B6 00                15254 	.db #0x00
   39B7 00                15255 	.db #0x00
   39B8 00                15256 	.db #0x00
   39B9 49                15257 	.db #0x49
   39BA 4A                15258 	.db #0x4A
   39BB 4B                15259 	.db #0x4B
   39BC 4C                15260 	.db #0x4C
   39BD 4D                15261 	.db #0x4D
   39BE 4E                15262 	.db #0x4E
   39BF 4F                15263 	.db #0x4F
   39C0 50                15264 	.db #0x50
   39C1 51                15265 	.db #0x51
   39C2 52                15266 	.db #0x52
   39C3 53                15267 	.db #0x53
   39C4 54                15268 	.db #0x54
   39C5 55                15269 	.db #0x55
   39C6 00                15270 	.db #0x00
   39C7 00                15271 	.db #0x00
   39C8 00                15272 	.db #0x00
   39C9 00                15273 	.db #0x00
   39CA 00                15274 	.db #0x00
   39CB 00                15275 	.db #0x00
   39CC 00                15276 	.db #0x00
   39CD 56                15277 	.db #0x56
   39CE 57                15278 	.db #0x57
   39CF 58                15279 	.db #0x58
   39D0 59                15280 	.db #0x59
   39D1 5A                15281 	.db #0x5A
   39D2 5B                15282 	.db #0x5B
   39D3 5C                15283 	.db #0x5C
   39D4 5D                15284 	.db #0x5D
   39D5 5E                15285 	.db #0x5E
   39D6 5F                15286 	.db #0x5F
   39D7 60                15287 	.db #0x60
   39D8 61                15288 	.db #0x61
   39D9 62                15289 	.db #0x62
   39DA 00                15290 	.db #0x00
   39DB 00                15291 	.db #0x00
   39DC 00                15292 	.db #0x00
   39DD 00                15293 	.db #0x00
   39DE 00                15294 	.db #0x00
   39DF 00                15295 	.db #0x00
   39E0 00                15296 	.db #0x00
   39E1 63                15297 	.db #0x63
   39E2 64                15298 	.db #0x64
   39E3 65                15299 	.db #0x65
   39E4 66                15300 	.db #0x66
   39E5 67                15301 	.db #0x67
   39E6 68                15302 	.db #0x68
   39E7 69                15303 	.db #0x69
   39E8 6A                15304 	.db #0x6A
   39E9 6B                15305 	.db #0x6B
   39EA 6C                15306 	.db #0x6C
   39EB 6D                15307 	.db #0x6D
   39EC 6E                15308 	.db #0x6E
   39ED 00                15309 	.db #0x00
   39EE 6F                15310 	.db #0x6F
   39EF 00                15311 	.db #0x00
   39F0 00                15312 	.db #0x00
   39F1 00                15313 	.db #0x00
   39F2 00                15314 	.db #0x00
   39F3 00                15315 	.db #0x00
   39F4 70                15316 	.db #0x70
   39F5 71                15317 	.db #0x71
   39F6 72                15318 	.db #0x72
   39F7 73                15319 	.db #0x73
   39F8 74                15320 	.db #0x74
   39F9 75                15321 	.db #0x75
   39FA 76                15322 	.db #0x76
   39FB 77                15323 	.db #0x77
   39FC 3B                15324 	.db #0x3B
   39FD 78                15325 	.db #0x78
   39FE 79                15326 	.db #0x79
   39FF 7A                15327 	.db #0x7A
   3A00 7B                15328 	.db #0x7B
   3A01 7C                15329 	.db #0x7C
   3A02 7D                15330 	.db #0x7D
   3A03 00                15331 	.db #0x00
   3A04 00                15332 	.db #0x00
   3A05 00                15333 	.db #0x00
   3A06 00                15334 	.db #0x00
   3A07 00                15335 	.db #0x00
   3A08 7E                15336 	.db #0x7E
   3A09 7F                15337 	.db #0x7F
   3A0A 3B                15338 	.db #0x3B
   3A0B 80                15339 	.db #0x80
   3A0C 81                15340 	.db #0x81
   3A0D 82                15341 	.db #0x82
   3A0E 83                15342 	.db #0x83
   3A0F 84                15343 	.db #0x84
   3A10 85                15344 	.db #0x85
   3A11 86                15345 	.db #0x86
   3A12 87                15346 	.db #0x87
   3A13 88                15347 	.db #0x88
   3A14 89                15348 	.db #0x89
   3A15 8A                15349 	.db #0x8A
   3A16 00                15350 	.db #0x00
   3A17 00                15351 	.db #0x00
   3A18 00                15352 	.db #0x00
   3A19 00                15353 	.db #0x00
   3A1A 8B                15354 	.db #0x8B
   3A1B 8C                15355 	.db #0x8C
   3A1C 8D                15356 	.db #0x8D
   3A1D 8E                15357 	.db #0x8E
   3A1E 64                15358 	.db #0x64
   3A1F 3B                15359 	.db #0x3B
   3A20 8F                15360 	.db #0x8F
   3A21 90                15361 	.db #0x90
   3A22 91                15362 	.db #0x91
   3A23 92                15363 	.db #0x92
   3A24 00                15364 	.db #0x00
   3A25 00                15365 	.db #0x00
   3A26 00                15366 	.db #0x00
   3A27 00                15367 	.db #0x00
   3A28 00                15368 	.db #0x00
   3A29 00                15369 	.db #0x00
   3A2A 00                15370 	.db #0x00
   3A2B 00                15371 	.db #0x00
   3A2C 00                15372 	.db #0x00
   3A2D 00                15373 	.db #0x00
   3A2E 59                15374 	.db #0x59
   3A2F 59                15375 	.db #0x59
   3A30 59                15376 	.db #0x59
   3A31 59                15377 	.db #0x59
   3A32 93                15378 	.db #0x93
   3A33 94                15379 	.db #0x94
   3A34 95                15380 	.db #0x95
   3A35 59                15381 	.db #0x59
   3A36 59                15382 	.db #0x59
   3A37 59                15383 	.db #0x59
   3A38 96                15384 	.db #0x96
   3A39 00                15385 	.db #0x00
   3A3A 00                15386 	.db #0x00
   3A3B 00                15387 	.db #0x00
   3A3C 00                15388 	.db #0x00
   3A3D 00                15389 	.db #0x00
   3A3E 00                15390 	.db #0x00
   3A3F 00                15391 	.db #0x00
   3A40 00                15392 	.db #0x00
   3A41 97                15393 	.db #0x97
   3A42 59                15394 	.db #0x59
   3A43 59                15395 	.db #0x59
   3A44 59                15396 	.db #0x59
   3A45 59                15397 	.db #0x59
   3A46 59                15398 	.db #0x59
   3A47 98                15399 	.db #0x98
   3A48 99                15400 	.db #0x99
   3A49 59                15401 	.db #0x59
   3A4A 59                15402 	.db #0x59
   3A4B 59                15403 	.db #0x59
   3A4C 9A                15404 	.db #0x9A
   3A4D 9B                15405 	.db #0x9B
   3A4E 00                15406 	.db #0x00
   3A4F 00                15407 	.db #0x00
   3A50 00                15408 	.db #0x00
   3A51 00                15409 	.db #0x00
   3A52 00                15410 	.db #0x00
   3A53 00                15411 	.db #0x00
   3A54 00                15412 	.db #0x00
   3A55 9C                15413 	.db #0x9C
   3A56 59                15414 	.db #0x59
   3A57 59                15415 	.db #0x59
   3A58 59                15416 	.db #0x59
   3A59 59                15417 	.db #0x59
   3A5A 59                15418 	.db #0x59
   3A5B 59                15419 	.db #0x59
   3A5C 59                15420 	.db #0x59
   3A5D 59                15421 	.db #0x59
   3A5E 59                15422 	.db #0x59
   3A5F 59                15423 	.db #0x59
   3A60 59                15424 	.db #0x59
   3A61 9D                15425 	.db #0x9D
   3A62 00                15426 	.db #0x00
   3A63 00                15427 	.db #0x00
   3A64 00                15428 	.db #0x00
   3A65 00                15429 	.db #0x00
   3A66 00                15430 	.db #0x00
   3A67 00                15431 	.db #0x00
   3A68 00                15432 	.db #0x00
   3A69 9E                15433 	.db #0x9E
   3A6A 59                15434 	.db #0x59
   3A6B 59                15435 	.db #0x59
   3A6C 59                15436 	.db #0x59
   3A6D 59                15437 	.db #0x59
   3A6E 59                15438 	.db #0x59
   3A6F 59                15439 	.db #0x59
   3A70 59                15440 	.db #0x59
   3A71 59                15441 	.db #0x59
   3A72 59                15442 	.db #0x59
   3A73 59                15443 	.db #0x59
   3A74 59                15444 	.db #0x59
   3A75 9F                15445 	.db #0x9F
   3A76 00                15446 	.db #0x00
   3A77 00                15447 	.db #0x00
   3A78 00                15448 	.db #0x00
   3A79 00                15449 	.db #0x00
   3A7A 00                15450 	.db #0x00
   3A7B                   15451 _devil_angry_data:
   3A7B 00                15452 	.db #0x00
   3A7C 00                15453 	.db #0x00
   3A7D 00                15454 	.db #0x00
   3A7E 00                15455 	.db #0x00
   3A7F 00                15456 	.db #0x00
   3A80 00                15457 	.db #0x00
   3A81 00                15458 	.db #0x00
   3A82 00                15459 	.db #0x00
   3A83 00                15460 	.db #0x00
   3A84 00                15461 	.db #0x00
   3A85 00                15462 	.db #0x00
   3A86 00                15463 	.db #0x00
   3A87 00                15464 	.db #0x00
   3A88 00                15465 	.db #0x00
   3A89 00                15466 	.db #0x00
   3A8A 00                15467 	.db #0x00
   3A8B 00                15468 	.db #0x00
   3A8C 00                15469 	.db #0x00
   3A8D 00                15470 	.db #0x00
   3A8E 00                15471 	.db #0x00
   3A8F 00                15472 	.db #0x00
   3A90 00                15473 	.db #0x00
   3A91 00                15474 	.db #0x00
   3A92 00                15475 	.db #0x00
   3A93 01                15476 	.db #0x01
   3A94 01                15477 	.db #0x01
   3A95 01                15478 	.db #0x01
   3A96 01                15479 	.db #0x01
   3A97 01                15480 	.db #0x01
   3A98 01                15481 	.db #0x01
   3A99 01                15482 	.db #0x01
   3A9A 01                15483 	.db #0x01
   3A9B 00                15484 	.db #0x00
   3A9C 00                15485 	.db #0x00
   3A9D 00                15486 	.db #0x00
   3A9E 00                15487 	.db #0x00
   3A9F 00                15488 	.db #0x00
   3AA0 00                15489 	.db #0x00
   3AA1 86                15490 	.db #0x86
   3AA2 86                15491 	.db #0x86
   3AA3 83                15492 	.db #0x83
   3AA4 83                15493 	.db #0x83
   3AA5 01                15494 	.db #0x01
   3AA6 01                15495 	.db #0x01
   3AA7 00                15496 	.db #0x00
   3AA8 00                15497 	.db #0x00
   3AA9 00                15498 	.db #0x00
   3AAA 00                15499 	.db #0x00
   3AAB 00                15500 	.db #0x00
   3AAC 00                15501 	.db #0x00
   3AAD 00                15502 	.db #0x00
   3AAE 00                15503 	.db #0x00
   3AAF 00                15504 	.db #0x00
   3AB0 00                15505 	.db #0x00
   3AB1 00                15506 	.db #0x00
   3AB2 00                15507 	.db #0x00
   3AB3 00                15508 	.db #0x00
   3AB4 00                15509 	.db #0x00
   3AB5 80                15510 	.db #0x80
   3AB6 80                15511 	.db #0x80
   3AB7 80                15512 	.db #0x80
   3AB8 80                15513 	.db #0x80
   3AB9 C0                15514 	.db #0xC0
   3ABA C0                15515 	.db #0xC0
   3ABB 00                15516 	.db #0x00
   3ABC 00                15517 	.db #0x00
   3ABD 00                15518 	.db #0x00
   3ABE 00                15519 	.db #0x00
   3ABF 00                15520 	.db #0x00
   3AC0 00                15521 	.db #0x00
   3AC1 00                15522 	.db #0x00
   3AC2 00                15523 	.db #0x00
   3AC3 00                15524 	.db #0x00
   3AC4 00                15525 	.db #0x00
   3AC5 00                15526 	.db #0x00
   3AC6 00                15527 	.db #0x00
   3AC7 00                15528 	.db #0x00
   3AC8 00                15529 	.db #0x00
   3AC9 FF                15530 	.db #0xFF
   3ACA FF                15531 	.db #0xFF
   3ACB 00                15532 	.db #0x00
   3ACC 00                15533 	.db #0x00
   3ACD 00                15534 	.db #0x00
   3ACE 00                15535 	.db #0x00
   3ACF 00                15536 	.db #0x00
   3AD0 00                15537 	.db #0x00
   3AD1 00                15538 	.db #0x00
   3AD2 00                15539 	.db #0x00
   3AD3 00                15540 	.db #0x00
   3AD4 00                15541 	.db #0x00
   3AD5 00                15542 	.db #0x00
   3AD6 00                15543 	.db #0x00
   3AD7 00                15544 	.db #0x00
   3AD8 00                15545 	.db #0x00
   3AD9 FE                15546 	.db #0xFE
   3ADA FE                15547 	.db #0xFE
   3ADB 00                15548 	.db #0x00
   3ADC 00                15549 	.db #0x00
   3ADD 00                15550 	.db #0x00
   3ADE 00                15551 	.db #0x00
   3ADF 00                15552 	.db #0x00
   3AE0 00                15553 	.db #0x00
   3AE1 00                15554 	.db #0x00
   3AE2 00                15555 	.db #0x00
   3AE3 00                15556 	.db #0x00
   3AE4 00                15557 	.db #0x00
   3AE5 00                15558 	.db #0x00
   3AE6 00                15559 	.db #0x00
   3AE7 01                15560 	.db #0x01
   3AE8 01                15561 	.db #0x01
   3AE9 03                15562 	.db #0x03
   3AEA 03                15563 	.db #0x03
   3AEB 00                15564 	.db #0x00
   3AEC 00                15565 	.db #0x00
   3AED 00                15566 	.db #0x00
   3AEE 00                15567 	.db #0x00
   3AEF 00                15568 	.db #0x00
   3AF0 00                15569 	.db #0x00
   3AF1 30                15570 	.db #0x30
   3AF2 30                15571 	.db #0x30
   3AF3 60                15572 	.db #0x60
   3AF4 60                15573 	.db #0x60
   3AF5 C0                15574 	.db #0xC0
   3AF6 C0                15575 	.db #0xC0
   3AF7 80                15576 	.db #0x80
   3AF8 80                15577 	.db #0x80
   3AF9 00                15578 	.db #0x00
   3AFA 00                15579 	.db #0x00
   3AFB 00                15580 	.db #0x00
   3AFC 00                15581 	.db #0x00
   3AFD 00                15582 	.db #0x00
   3AFE 00                15583 	.db #0x00
   3AFF 00                15584 	.db #0x00
   3B00 00                15585 	.db #0x00
   3B01 08                15586 	.db #0x08
   3B02 08                15587 	.db #0x08
   3B03 08                15588 	.db #0x08
   3B04 08                15589 	.db #0x08
   3B05 08                15590 	.db #0x08
   3B06 08                15591 	.db #0x08
   3B07 18                15592 	.db #0x18
   3B08 18                15593 	.db #0x18
   3B09 10                15594 	.db #0x10
   3B0A 10                15595 	.db #0x10
   3B0B 00                15596 	.db #0x00
   3B0C 00                15597 	.db #0x00
   3B0D 00                15598 	.db #0x00
   3B0E 00                15599 	.db #0x00
   3B0F 00                15600 	.db #0x00
   3B10 00                15601 	.db #0x00
   3B11 00                15602 	.db #0x00
   3B12 00                15603 	.db #0x00
   3B13 00                15604 	.db #0x00
   3B14 00                15605 	.db #0x00
   3B15 00                15606 	.db #0x00
   3B16 00                15607 	.db #0x00
   3B17 38                15608 	.db #0x38
   3B18 38                15609 	.db #0x38
   3B19 38                15610 	.db #0x38
   3B1A 38                15611 	.db #0x38
   3B1B 00                15612 	.db #0x00
   3B1C 00                15613 	.db #0x00
   3B1D 00                15614 	.db #0x00
   3B1E 00                15615 	.db #0x00
   3B1F 00                15616 	.db #0x00
   3B20 00                15617 	.db #0x00
   3B21 00                15618 	.db #0x00
   3B22 00                15619 	.db #0x00
   3B23 01                15620 	.db #0x01
   3B24 01                15621 	.db #0x01
   3B25 01                15622 	.db #0x01
   3B26 01                15623 	.db #0x01
   3B27 00                15624 	.db #0x00
   3B28 00                15625 	.db #0x00
   3B29 01                15626 	.db #0x01
   3B2A 01                15627 	.db #0x01
   3B2B 00                15628 	.db #0x00
   3B2C 00                15629 	.db #0x00
   3B2D 00                15630 	.db #0x00
   3B2E 00                15631 	.db #0x00
   3B2F 00                15632 	.db #0x00
   3B30 00                15633 	.db #0x00
   3B31 00                15634 	.db #0x00
   3B32 00                15635 	.db #0x00
   3B33 D8                15636 	.db #0xD8
   3B34 D8                15637 	.db #0xD8
   3B35 DF                15638 	.db #0xDF
   3B36 DF                15639 	.db #0xDF
   3B37 DF                15640 	.db #0xDF
   3B38 DF                15641 	.db #0xDF
   3B39 C3                15642 	.db #0xC3
   3B3A C3                15643 	.db #0xC3
   3B3B 01                15644 	.db #0x01
   3B3C 01                15645 	.db #0x01
   3B3D 01                15646 	.db #0x01
   3B3E 01                15647 	.db #0x01
   3B3F 01                15648 	.db #0x01
   3B40 01                15649 	.db #0x01
   3B41 01                15650 	.db #0x01
   3B42 01                15651 	.db #0x01
   3B43 00                15652 	.db #0x00
   3B44 00                15653 	.db #0x00
   3B45 E0                15654 	.db #0xE0
   3B46 E0                15655 	.db #0xE0
   3B47 E0                15656 	.db #0xE0
   3B48 E0                15657 	.db #0xE0
   3B49 80                15658 	.db #0x80
   3B4A 80                15659 	.db #0x80
   3B4B 00                15660 	.db #0x00
   3B4C 00                15661 	.db #0x00
   3B4D 00                15662 	.db #0x00
   3B4E 00                15663 	.db #0x00
   3B4F 00                15664 	.db #0x00
   3B50 00                15665 	.db #0x00
   3B51 80                15666 	.db #0x80
   3B52 80                15667 	.db #0x80
   3B53 80                15668 	.db #0x80
   3B54 80                15669 	.db #0x80
   3B55 80                15670 	.db #0x80
   3B56 80                15671 	.db #0x80
   3B57 80                15672 	.db #0x80
   3B58 80                15673 	.db #0x80
   3B59 80                15674 	.db #0x80
   3B5A 80                15675 	.db #0x80
   3B5B 60                15676 	.db #0x60
   3B5C 60                15677 	.db #0x60
   3B5D 31                15678 	.db #0x31
   3B5E 31                15679 	.db #0x31
   3B5F 1F                15680 	.db #0x1F
   3B60 1F                15681 	.db #0x1F
   3B61 07                15682 	.db #0x07
   3B62 06                15683 	.db #0x06
   3B63 03                15684 	.db #0x03
   3B64 03                15685 	.db #0x03
   3B65 01                15686 	.db #0x01
   3B66 01                15687 	.db #0x01
   3B67 01                15688 	.db #0x01
   3B68 01                15689 	.db #0x01
   3B69 00                15690 	.db #0x00
   3B6A 00                15691 	.db #0x00
   3B6B 07                15692 	.db #0x07
   3B6C 07                15693 	.db #0x07
   3B6D FF                15694 	.db #0xFF
   3B6E FC                15695 	.db #0xFC
   3B6F FF                15696 	.db #0xFF
   3B70 00                15697 	.db #0x00
   3B71 FF                15698 	.db #0xFF
   3B72 00                15699 	.db #0x00
   3B73 FF                15700 	.db #0xFF
   3B74 01                15701 	.db #0x01
   3B75 FF                15702 	.db #0xFF
   3B76 01                15703 	.db #0x01
   3B77 FF                15704 	.db #0xFF
   3B78 80                15705 	.db #0x80
   3B79 FF                15706 	.db #0xFF
   3B7A 80                15707 	.db #0x80
   3B7B FF                15708 	.db #0xFF
   3B7C 80                15709 	.db #0x80
   3B7D FF                15710 	.db #0xFF
   3B7E 00                15711 	.db #0x00
   3B7F FF                15712 	.db #0xFF
   3B80 00                15713 	.db #0x00
   3B81 FF                15714 	.db #0xFF
   3B82 00                15715 	.db #0x00
   3B83 FF                15716 	.db #0xFF
   3B84 C0                15717 	.db #0xC0
   3B85 FF                15718 	.db #0xFF
   3B86 E0                15719 	.db #0xE0
   3B87 FF                15720 	.db #0xFF
   3B88 F0                15721 	.db #0xF0
   3B89 FF                15722 	.db #0xFF
   3B8A 78                15723 	.db #0x78
   3B8B FF                15724 	.db #0xFF
   3B8C 01                15725 	.db #0x01
   3B8D FF                15726 	.db #0xFF
   3B8E 00                15727 	.db #0x00
   3B8F FF                15728 	.db #0xFF
   3B90 00                15729 	.db #0x00
   3B91 FF                15730 	.db #0xFF
   3B92 00                15731 	.db #0x00
   3B93 FF                15732 	.db #0xFF
   3B94 00                15733 	.db #0x00
   3B95 FF                15734 	.db #0xFF
   3B96 00                15735 	.db #0x00
   3B97 FF                15736 	.db #0xFF
   3B98 00                15737 	.db #0x00
   3B99 FF                15738 	.db #0xFF
   3B9A 00                15739 	.db #0x00
   3B9B CE                15740 	.db #0xCE
   3B9C CE                15741 	.db #0xCE
   3B9D FF                15742 	.db #0xFF
   3B9E 7F                15743 	.db #0x7F
   3B9F FF                15744 	.db #0xFF
   3BA0 00                15745 	.db #0x00
   3BA1 FF                15746 	.db #0xFF
   3BA2 00                15747 	.db #0x00
   3BA3 FF                15748 	.db #0xFF
   3BA4 00                15749 	.db #0x00
   3BA5 FF                15750 	.db #0xFF
   3BA6 00                15751 	.db #0x00
   3BA7 FF                15752 	.db #0xFF
   3BA8 00                15753 	.db #0x00
   3BA9 FF                15754 	.db #0xFF
   3BAA 00                15755 	.db #0x00
   3BAB 00                15756 	.db #0x00
   3BAC 00                15757 	.db #0x00
   3BAD 00                15758 	.db #0x00
   3BAE 00                15759 	.db #0x00
   3BAF FF                15760 	.db #0xFF
   3BB0 FF                15761 	.db #0xFF
   3BB1 FF                15762 	.db #0xFF
   3BB2 00                15763 	.db #0x00
   3BB3 FF                15764 	.db #0xFF
   3BB4 00                15765 	.db #0x00
   3BB5 FF                15766 	.db #0xFF
   3BB6 00                15767 	.db #0x00
   3BB7 FF                15768 	.db #0xFF
   3BB8 00                15769 	.db #0x00
   3BB9 FF                15770 	.db #0xFF
   3BBA 00                15771 	.db #0x00
   3BBB 30                15772 	.db #0x30
   3BBC 30                15773 	.db #0x30
   3BBD 20                15774 	.db #0x20
   3BBE 20                15775 	.db #0x20
   3BBF E0                15776 	.db #0xE0
   3BC0 E0                15777 	.db #0xE0
   3BC1 F0                15778 	.db #0xF0
   3BC2 70                15779 	.db #0x70
   3BC3 FF                15780 	.db #0xFF
   3BC4 0F                15781 	.db #0x0F
   3BC5 FF                15782 	.db #0xFF
   3BC6 00                15783 	.db #0x00
   3BC7 FF                15784 	.db #0xFF
   3BC8 00                15785 	.db #0x00
   3BC9 FF                15786 	.db #0xFF
   3BCA 00                15787 	.db #0x00
   3BCB 00                15788 	.db #0x00
   3BCC 00                15789 	.db #0x00
   3BCD 00                15790 	.db #0x00
   3BCE 00                15791 	.db #0x00
   3BCF 00                15792 	.db #0x00
   3BD0 00                15793 	.db #0x00
   3BD1 00                15794 	.db #0x00
   3BD2 00                15795 	.db #0x00
   3BD3 C1                15796 	.db #0xC1
   3BD4 C1                15797 	.db #0xC1
   3BD5 F9                15798 	.db #0xF9
   3BD6 39                15799 	.db #0x39
   3BD7 FF                15800 	.db #0xFF
   3BD8 07                15801 	.db #0x07
   3BD9 FF                15802 	.db #0xFF
   3BDA 07                15803 	.db #0x07
   3BDB 30                15804 	.db #0x30
   3BDC 30                15805 	.db #0x30
   3BDD 70                15806 	.db #0x70
   3BDE 70                15807 	.db #0x70
   3BDF 60                15808 	.db #0x60
   3BE0 60                15809 	.db #0x60
   3BE1 E0                15810 	.db #0xE0
   3BE2 E0                15811 	.db #0xE0
   3BE3 C0                15812 	.db #0xC0
   3BE4 C0                15813 	.db #0xC0
   3BE5 C0                15814 	.db #0xC0
   3BE6 C0                15815 	.db #0xC0
   3BE7 80                15816 	.db #0x80
   3BE8 80                15817 	.db #0x80
   3BE9 00                15818 	.db #0x00
   3BEA 00                15819 	.db #0x00
   3BEB 03                15820 	.db #0x03
   3BEC 03                15821 	.db #0x03
   3BED 07                15822 	.db #0x07
   3BEE 07                15823 	.db #0x07
   3BEF 07                15824 	.db #0x07
   3BF0 07                15825 	.db #0x07
   3BF1 00                15826 	.db #0x00
   3BF2 00                15827 	.db #0x00
   3BF3 00                15828 	.db #0x00
   3BF4 00                15829 	.db #0x00
   3BF5 00                15830 	.db #0x00
   3BF6 00                15831 	.db #0x00
   3BF7 00                15832 	.db #0x00
   3BF8 00                15833 	.db #0x00
   3BF9 00                15834 	.db #0x00
   3BFA 00                15835 	.db #0x00
   3BFB 80                15836 	.db #0x80
   3BFC 80                15837 	.db #0x80
   3BFD 9F                15838 	.db #0x9F
   3BFE 9F                15839 	.db #0x9F
   3BFF 3F                15840 	.db #0x3F
   3C00 3F                15841 	.db #0x3F
   3C01 78                15842 	.db #0x78
   3C02 78                15843 	.db #0x78
   3C03 70                15844 	.db #0x70
   3C04 70                15845 	.db #0x70
   3C05 60                15846 	.db #0x60
   3C06 60                15847 	.db #0x60
   3C07 00                15848 	.db #0x00
   3C08 00                15849 	.db #0x00
   3C09 00                15850 	.db #0x00
   3C0A 00                15851 	.db #0x00
   3C0B 00                15852 	.db #0x00
   3C0C 00                15853 	.db #0x00
   3C0D C0                15854 	.db #0xC0
   3C0E C0                15855 	.db #0xC0
   3C0F C0                15856 	.db #0xC0
   3C10 C0                15857 	.db #0xC0
   3C11 00                15858 	.db #0x00
   3C12 00                15859 	.db #0x00
   3C13 00                15860 	.db #0x00
   3C14 00                15861 	.db #0x00
   3C15 60                15862 	.db #0x60
   3C16 60                15863 	.db #0x60
   3C17 70                15864 	.db #0x70
   3C18 70                15865 	.db #0x70
   3C19 78                15866 	.db #0x78
   3C1A 58                15867 	.db #0x58
   3C1B C0                15868 	.db #0xC0
   3C1C C0                15869 	.db #0xC0
   3C1D 40                15870 	.db #0x40
   3C1E 40                15871 	.db #0x40
   3C1F 40                15872 	.db #0x40
   3C20 40                15873 	.db #0x40
   3C21 70                15874 	.db #0x70
   3C22 70                15875 	.db #0x70
   3C23 7F                15876 	.db #0x7F
   3C24 5F                15877 	.db #0x5F
   3C25 7F                15878 	.db #0x7F
   3C26 40                15879 	.db #0x40
   3C27 7F                15880 	.db #0x7F
   3C28 40                15881 	.db #0x40
   3C29 7F                15882 	.db #0x7F
   3C2A 47                15883 	.db #0x47
   3C2B 00                15884 	.db #0x00
   3C2C 00                15885 	.db #0x00
   3C2D 01                15886 	.db #0x01
   3C2E 01                15887 	.db #0x01
   3C2F 03                15888 	.db #0x03
   3C30 03                15889 	.db #0x03
   3C31 0F                15890 	.db #0x0F
   3C32 0E                15891 	.db #0x0E
   3C33 FF                15892 	.db #0xFF
   3C34 FD                15893 	.db #0xFD
   3C35 FF                15894 	.db #0xFF
   3C36 03                15895 	.db #0x03
   3C37 FF                15896 	.db #0xFF
   3C38 0E                15897 	.db #0x0E
   3C39 FF                15898 	.db #0xFF
   3C3A F8                15899 	.db #0xF8
   3C3B FF                15900 	.db #0xFF
   3C3C 80                15901 	.db #0x80
   3C3D FF                15902 	.db #0xFF
   3C3E 00                15903 	.db #0x00
   3C3F FF                15904 	.db #0xFF
   3C40 00                15905 	.db #0x00
   3C41 FF                15906 	.db #0xFF
   3C42 80                15907 	.db #0x80
   3C43 FF                15908 	.db #0xFF
   3C44 80                15909 	.db #0x80
   3C45 FF                15910 	.db #0xFF
   3C46 00                15911 	.db #0x00
   3C47 FF                15912 	.db #0xFF
   3C48 00                15913 	.db #0x00
   3C49 FF                15914 	.db #0xFF
   3C4A 00                15915 	.db #0x00
   3C4B FF                15916 	.db #0xFF
   3C4C 3E                15917 	.db #0x3E
   3C4D BF                15918 	.db #0xBF
   3C4E 1F                15919 	.db #0x1F
   3C4F FF                15920 	.db #0xFF
   3C50 07                15921 	.db #0x07
   3C51 FF                15922 	.db #0xFF
   3C52 03                15923 	.db #0x03
   3C53 FF                15924 	.db #0xFF
   3C54 00                15925 	.db #0x00
   3C55 FF                15926 	.db #0xFF
   3C56 00                15927 	.db #0x00
   3C57 FF                15928 	.db #0xFF
   3C58 00                15929 	.db #0x00
   3C59 FF                15930 	.db #0xFF
   3C5A 00                15931 	.db #0x00
   3C5B FF                15932 	.db #0xFF
   3C5C 00                15933 	.db #0x00
   3C5D FF                15934 	.db #0xFF
   3C5E 00                15935 	.db #0x00
   3C5F FF                15936 	.db #0xFF
   3C60 C0                15937 	.db #0xC0
   3C61 FF                15938 	.db #0xFF
   3C62 E0                15939 	.db #0xE0
   3C63 FF                15940 	.db #0xFF
   3C64 FC                15941 	.db #0xFC
   3C65 FF                15942 	.db #0xFF
   3C66 3F                15943 	.db #0x3F
   3C67 FF                15944 	.db #0xFF
   3C68 0F                15945 	.db #0x0F
   3C69 FF                15946 	.db #0xFF
   3C6A 03                15947 	.db #0x03
   3C6B FF                15948 	.db #0xFF
   3C6C 00                15949 	.db #0x00
   3C6D FF                15950 	.db #0xFF
   3C6E 00                15951 	.db #0x00
   3C6F FF                15952 	.db #0xFF
   3C70 00                15953 	.db #0x00
   3C71 FF                15954 	.db #0xFF
   3C72 00                15955 	.db #0x00
   3C73 FF                15956 	.db #0xFF
   3C74 00                15957 	.db #0x00
   3C75 FF                15958 	.db #0xFF
   3C76 00                15959 	.db #0x00
   3C77 FF                15960 	.db #0xFF
   3C78 C0                15961 	.db #0xC0
   3C79 FF                15962 	.db #0xFF
   3C7A F0                15963 	.db #0xF0
   3C7B FF                15964 	.db #0xFF
   3C7C 00                15965 	.db #0x00
   3C7D FF                15966 	.db #0xFF
   3C7E 00                15967 	.db #0x00
   3C7F FF                15968 	.db #0xFF
   3C80 00                15969 	.db #0x00
   3C81 FF                15970 	.db #0xFF
   3C82 00                15971 	.db #0x00
   3C83 FF                15972 	.db #0xFF
   3C84 00                15973 	.db #0x00
   3C85 FF                15974 	.db #0xFF
   3C86 00                15975 	.db #0x00
   3C87 FF                15976 	.db #0xFF
   3C88 60                15977 	.db #0x60
   3C89 FF                15978 	.db #0xFF
   3C8A 64                15979 	.db #0x64
   3C8B FF                15980 	.db #0xFF
   3C8C 00                15981 	.db #0x00
   3C8D FF                15982 	.db #0xFF
   3C8E 00                15983 	.db #0x00
   3C8F FF                15984 	.db #0xFF
   3C90 00                15985 	.db #0x00
   3C91 FF                15986 	.db #0xFF
   3C92 00                15987 	.db #0x00
   3C93 FF                15988 	.db #0xFF
   3C94 00                15989 	.db #0x00
   3C95 FF                15990 	.db #0xFF
   3C96 63                15991 	.db #0x63
   3C97 FF                15992 	.db #0xFF
   3C98 E7                15993 	.db #0xE7
   3C99 FF                15994 	.db #0xFF
   3C9A EF                15995 	.db #0xEF
   3C9B FF                15996 	.db #0xFF
   3C9C 0F                15997 	.db #0x0F
   3C9D FF                15998 	.db #0xFF
   3C9E 0F                15999 	.db #0x0F
   3C9F FF                16000 	.db #0xFF
   3CA0 1D                16001 	.db #0x1D
   3CA1 FF                16002 	.db #0xFF
   3CA2 3D                16003 	.db #0x3D
   3CA3 FF                16004 	.db #0xFF
   3CA4 F1                16005 	.db #0xF1
   3CA5 FF                16006 	.db #0xFF
   3CA6 F1                16007 	.db #0xF1
   3CA7 FF                16008 	.db #0xFF
   3CA8 E1                16009 	.db #0xE1
   3CA9 FF                16010 	.db #0xFF
   3CAA 81                16011 	.db #0x81
   3CAB 00                16012 	.db #0x00
   3CAC 00                16013 	.db #0x00
   3CAD 80                16014 	.db #0x80
   3CAE 80                16015 	.db #0x80
   3CAF 80                16016 	.db #0x80
   3CB0 80                16017 	.db #0x80
   3CB1 80                16018 	.db #0x80
   3CB2 80                16019 	.db #0x80
   3CB3 80                16020 	.db #0x80
   3CB4 80                16021 	.db #0x80
   3CB5 80                16022 	.db #0x80
   3CB6 80                16023 	.db #0x80
   3CB7 80                16024 	.db #0x80
   3CB8 80                16025 	.db #0x80
   3CB9 80                16026 	.db #0x80
   3CBA 80                16027 	.db #0x80
   3CBB 7C                16028 	.db #0x7C
   3CBC 4C                16029 	.db #0x4C
   3CBD 7F                16030 	.db #0x7F
   3CBE 47                16031 	.db #0x47
   3CBF 7F                16032 	.db #0x7F
   3CC0 41                16033 	.db #0x41
   3CC1 7F                16034 	.db #0x7F
   3CC2 40                16035 	.db #0x40
   3CC3 7F                16036 	.db #0x7F
   3CC4 63                16037 	.db #0x63
   3CC5 7F                16038 	.db #0x7F
   3CC6 63                16039 	.db #0x63
   3CC7 3F                16040 	.db #0x3F
   3CC8 21                16041 	.db #0x21
   3CC9 3F                16042 	.db #0x3F
   3CCA 21                16043 	.db #0x21
   3CCB 7F                16044 	.db #0x7F
   3CCC 40                16045 	.db #0x40
   3CCD 7F                16046 	.db #0x7F
   3CCE 40                16047 	.db #0x40
   3CCF FF                16048 	.db #0xFF
   3CD0 C0                16049 	.db #0xC0
   3CD1 FF                16050 	.db #0xFF
   3CD2 E0                16051 	.db #0xE0
   3CD3 FF                16052 	.db #0xFF
   3CD4 30                16053 	.db #0x30
   3CD5 FF                16054 	.db #0xFF
   3CD6 8C                16055 	.db #0x8C
   3CD7 FF                16056 	.db #0xFF
   3CD8 C7                16057 	.db #0xC7
   3CD9 FF                16058 	.db #0xFF
   3CDA 61                16059 	.db #0x61
   3CDB FF                16060 	.db #0xFF
   3CDC 00                16061 	.db #0x00
   3CDD FF                16062 	.db #0xFF
   3CDE 00                16063 	.db #0x00
   3CDF FF                16064 	.db #0xFF
   3CE0 00                16065 	.db #0x00
   3CE1 FF                16066 	.db #0xFF
   3CE2 00                16067 	.db #0x00
   3CE3 FF                16068 	.db #0xFF
   3CE4 00                16069 	.db #0x00
   3CE5 FF                16070 	.db #0xFF
   3CE6 00                16071 	.db #0x00
   3CE7 FF                16072 	.db #0xFF
   3CE8 00                16073 	.db #0x00
   3CE9 FF                16074 	.db #0xFF
   3CEA 80                16075 	.db #0x80
   3CEB FF                16076 	.db #0xFF
   3CEC 00                16077 	.db #0x00
   3CED FF                16078 	.db #0xFF
   3CEE C0                16079 	.db #0xC0
   3CEF FF                16080 	.db #0xFF
   3CF0 E0                16081 	.db #0xE0
   3CF1 FF                16082 	.db #0xFF
   3CF2 F0                16083 	.db #0xF0
   3CF3 FF                16084 	.db #0xFF
   3CF4 7C                16085 	.db #0x7C
   3CF5 FF                16086 	.db #0xFF
   3CF6 3E                16087 	.db #0x3E
   3CF7 FF                16088 	.db #0xFF
   3CF8 0F                16089 	.db #0x0F
   3CF9 FF                16090 	.db #0xFF
   3CFA 01                16091 	.db #0x01
   3CFB FF                16092 	.db #0xFF
   3CFC 00                16093 	.db #0x00
   3CFD FF                16094 	.db #0xFF
   3CFE 00                16095 	.db #0x00
   3CFF FF                16096 	.db #0xFF
   3D00 00                16097 	.db #0x00
   3D01 FF                16098 	.db #0xFF
   3D02 00                16099 	.db #0x00
   3D03 FF                16100 	.db #0xFF
   3D04 00                16101 	.db #0x00
   3D05 FF                16102 	.db #0xFF
   3D06 00                16103 	.db #0x00
   3D07 FF                16104 	.db #0xFF
   3D08 80                16105 	.db #0x80
   3D09 FF                16106 	.db #0xFF
   3D0A F8                16107 	.db #0xF8
   3D0B FF                16108 	.db #0xFF
   3D0C 00                16109 	.db #0x00
   3D0D FB                16110 	.db #0xFB
   3D0E 00                16111 	.db #0x00
   3D0F FF                16112 	.db #0xFF
   3D10 00                16113 	.db #0x00
   3D11 FF                16114 	.db #0xFF
   3D12 00                16115 	.db #0x00
   3D13 FF                16116 	.db #0xFF
   3D14 00                16117 	.db #0x00
   3D15 FF                16118 	.db #0xFF
   3D16 00                16119 	.db #0x00
   3D17 FF                16120 	.db #0xFF
   3D18 00                16121 	.db #0x00
   3D19 FF                16122 	.db #0xFF
   3D1A 00                16123 	.db #0x00
   3D1B FF                16124 	.db #0xFF
   3D1C FC                16125 	.db #0xFC
   3D1D FF                16126 	.db #0xFF
   3D1E 3F                16127 	.db #0x3F
   3D1F FF                16128 	.db #0xFF
   3D20 0F                16129 	.db #0x0F
   3D21 FF                16130 	.db #0xFF
   3D22 07                16131 	.db #0x07
   3D23 FF                16132 	.db #0xFF
   3D24 03                16133 	.db #0x03
   3D25 FF                16134 	.db #0xFF
   3D26 03                16135 	.db #0x03
   3D27 FF                16136 	.db #0xFF
   3D28 00                16137 	.db #0x00
   3D29 FF                16138 	.db #0xFF
   3D2A 00                16139 	.db #0x00
   3D2B FF                16140 	.db #0xFF
   3D2C 74                16141 	.db #0x74
   3D2D FF                16142 	.db #0xFF
   3D2E 32                16143 	.db #0x32
   3D2F FF                16144 	.db #0xFF
   3D30 BA                16145 	.db #0xBA
   3D31 FF                16146 	.db #0xFF
   3D32 B8                16147 	.db #0xB8
   3D33 FF                16148 	.db #0xFF
   3D34 B8                16149 	.db #0xB8
   3D35 FF                16150 	.db #0xFF
   3D36 30                16151 	.db #0x30
   3D37 FF                16152 	.db #0xFF
   3D38 30                16153 	.db #0x30
   3D39 FF                16154 	.db #0xFF
   3D3A 70                16155 	.db #0x70
   3D3B FF                16156 	.db #0xFF
   3D3C DE                16157 	.db #0xDE
   3D3D FF                16158 	.db #0xFF
   3D3E DC                16159 	.db #0xDC
   3D3F FF                16160 	.db #0xFF
   3D40 DC                16161 	.db #0xDC
   3D41 FF                16162 	.db #0xFF
   3D42 CC                16163 	.db #0xCC
   3D43 FF                16164 	.db #0xFF
   3D44 CC                16165 	.db #0xCC
   3D45 FF                16166 	.db #0xFF
   3D46 C0                16167 	.db #0xC0
   3D47 FF                16168 	.db #0xFF
   3D48 C0                16169 	.db #0xC0
   3D49 FF                16170 	.db #0xFF
   3D4A C3                16171 	.db #0xC3
   3D4B FF                16172 	.db #0xFF
   3D4C 01                16173 	.db #0x01
   3D4D FF                16174 	.db #0xFF
   3D4E 01                16175 	.db #0x01
   3D4F FF                16176 	.db #0xFF
   3D50 03                16177 	.db #0x03
   3D51 FF                16178 	.db #0xFF
   3D52 0F                16179 	.db #0x0F
   3D53 FF                16180 	.db #0xFF
   3D54 1F                16181 	.db #0x1F
   3D55 FC                16182 	.db #0xFC
   3D56 3C                16183 	.db #0x3C
   3D57 F0                16184 	.db #0xF0
   3D58 F0                16185 	.db #0xF0
   3D59 F8                16186 	.db #0xF8
   3D5A D8                16187 	.db #0xD8
   3D5B 80                16188 	.db #0x80
   3D5C 80                16189 	.db #0x80
   3D5D 80                16190 	.db #0x80
   3D5E 80                16191 	.db #0x80
   3D5F 80                16192 	.db #0x80
   3D60 80                16193 	.db #0x80
   3D61 80                16194 	.db #0x80
   3D62 80                16195 	.db #0x80
   3D63 00                16196 	.db #0x00
   3D64 00                16197 	.db #0x00
   3D65 00                16198 	.db #0x00
   3D66 00                16199 	.db #0x00
   3D67 00                16200 	.db #0x00
   3D68 00                16201 	.db #0x00
   3D69 00                16202 	.db #0x00
   3D6A 00                16203 	.db #0x00
   3D6B 3F                16204 	.db #0x3F
   3D6C 21                16205 	.db #0x21
   3D6D 3F                16206 	.db #0x3F
   3D6E 30                16207 	.db #0x30
   3D6F 1F                16208 	.db #0x1F
   3D70 10                16209 	.db #0x10
   3D71 1F                16210 	.db #0x1F
   3D72 18                16211 	.db #0x18
   3D73 0F                16212 	.db #0x0F
   3D74 08                16213 	.db #0x08
   3D75 0F                16214 	.db #0x0F
   3D76 0C                16215 	.db #0x0C
   3D77 07                16216 	.db #0x07
   3D78 06                16217 	.db #0x06
   3D79 03                16218 	.db #0x03
   3D7A 03                16219 	.db #0x03
   3D7B FF                16220 	.db #0xFF
   3D7C 30                16221 	.db #0x30
   3D7D FF                16222 	.db #0xFF
   3D7E 98                16223 	.db #0x98
   3D7F FF                16224 	.db #0xFF
   3D80 8C                16225 	.db #0x8C
   3D81 FF                16226 	.db #0xFF
   3D82 C0                16227 	.db #0xC0
   3D83 FF                16228 	.db #0xFF
   3D84 60                16229 	.db #0x60
   3D85 FF                16230 	.db #0xFF
   3D86 60                16231 	.db #0x60
   3D87 FF                16232 	.db #0xFF
   3D88 20                16233 	.db #0x20
   3D89 FF                16234 	.db #0xFF
   3D8A 20                16235 	.db #0x20
   3D8B FF                16236 	.db #0xFF
   3D8C 00                16237 	.db #0x00
   3D8D FF                16238 	.db #0xFF
   3D8E 00                16239 	.db #0x00
   3D8F FF                16240 	.db #0xFF
   3D90 00                16241 	.db #0x00
   3D91 FF                16242 	.db #0xFF
   3D92 00                16243 	.db #0x00
   3D93 FF                16244 	.db #0xFF
   3D94 00                16245 	.db #0x00
   3D95 FF                16246 	.db #0xFF
   3D96 00                16247 	.db #0x00
   3D97 FF                16248 	.db #0xFF
   3D98 00                16249 	.db #0x00
   3D99 FF                16250 	.db #0xFF
   3D9A 01                16251 	.db #0x01
   3D9B FF                16252 	.db #0xFF
   3D9C 00                16253 	.db #0x00
   3D9D FF                16254 	.db #0xFF
   3D9E 00                16255 	.db #0x00
   3D9F FF                16256 	.db #0xFF
   3DA0 01                16257 	.db #0x01
   3DA1 FF                16258 	.db #0xFF
   3DA2 01                16259 	.db #0x01
   3DA3 FF                16260 	.db #0xFF
   3DA4 03                16261 	.db #0x03
   3DA5 FE                16262 	.db #0xFE
   3DA6 02                16263 	.db #0x02
   3DA7 FE                16264 	.db #0xFE
   3DA8 02                16265 	.db #0x02
   3DA9 FF                16266 	.db #0xFF
   3DAA 03                16267 	.db #0x03
   3DAB FF                16268 	.db #0xFF
   3DAC DF                16269 	.db #0xDF
   3DAD 83                16270 	.db #0x83
   3DAE 83                16271 	.db #0x83
   3DAF 00                16272 	.db #0x00
   3DB0 00                16273 	.db #0x00
   3DB1 00                16274 	.db #0x00
   3DB2 00                16275 	.db #0x00
   3DB3 00                16276 	.db #0x00
   3DB4 00                16277 	.db #0x00
   3DB5 00                16278 	.db #0x00
   3DB6 00                16279 	.db #0x00
   3DB7 00                16280 	.db #0x00
   3DB8 00                16281 	.db #0x00
   3DB9 00                16282 	.db #0x00
   3DBA 00                16283 	.db #0x00
   3DBB FF                16284 	.db #0xFF
   3DBC 80                16285 	.db #0x80
   3DBD FF                16286 	.db #0xFF
   3DBE F0                16287 	.db #0xF0
   3DBF 7F                16288 	.db #0x7F
   3DC0 7E                16289 	.db #0x7E
   3DC1 0F                16290 	.db #0x0F
   3DC2 0F                16291 	.db #0x0F
   3DC3 01                16292 	.db #0x01
   3DC4 01                16293 	.db #0x01
   3DC5 30                16294 	.db #0x30
   3DC6 30                16295 	.db #0x30
   3DC7 30                16296 	.db #0x30
   3DC8 30                16297 	.db #0x30
   3DC9 00                16298 	.db #0x00
   3DCA 00                16299 	.db #0x00
   3DCB FF                16300 	.db #0xFF
   3DCC 00                16301 	.db #0x00
   3DCD FF                16302 	.db #0xFF
   3DCE 00                16303 	.db #0x00
   3DCF FF                16304 	.db #0xFF
   3DD0 00                16305 	.db #0x00
   3DD1 FF                16306 	.db #0xFF
   3DD2 C0                16307 	.db #0xC0
   3DD3 FF                16308 	.db #0xFF
   3DD4 FF                16309 	.db #0xFF
   3DD5 FF                16310 	.db #0xFF
   3DD6 FF                16311 	.db #0xFF
   3DD7 1F                16312 	.db #0x1F
   3DD8 08                16313 	.db #0x08
   3DD9 3F                16314 	.db #0x3F
   3DDA 09                16315 	.db #0x09
   3DDB FF                16316 	.db #0xFF
   3DDC 71                16317 	.db #0x71
   3DDD FF                16318 	.db #0xFF
   3DDE 60                16319 	.db #0x60
   3DDF FF                16320 	.db #0xFF
   3DE0 E0                16321 	.db #0xE0
   3DE1 FF                16322 	.db #0xFF
   3DE2 C0                16323 	.db #0xC0
   3DE3 FF                16324 	.db #0xFF
   3DE4 C0                16325 	.db #0xC0
   3DE5 FF                16326 	.db #0xFF
   3DE6 80                16327 	.db #0x80
   3DE7 FF                16328 	.db #0xFF
   3DE8 00                16329 	.db #0x00
   3DE9 FF                16330 	.db #0xFF
   3DEA 00                16331 	.db #0x00
   3DEB FF                16332 	.db #0xFF
   3DEC CF                16333 	.db #0xCF
   3DED FC                16334 	.db #0xFC
   3DEE FC                16335 	.db #0xFC
   3DEF F0                16336 	.db #0xF0
   3DF0 C0                16337 	.db #0xC0
   3DF1 F6                16338 	.db #0xF6
   3DF2 66                16339 	.db #0x66
   3DF3 F6                16340 	.db #0xF6
   3DF4 36                16341 	.db #0x36
   3DF5 F8                16342 	.db #0xF8
   3DF6 18                16343 	.db #0x18
   3DF7 FC                16344 	.db #0xFC
   3DF8 0C                16345 	.db #0x0C
   3DF9 EF                16346 	.db #0xEF
   3DFA 07                16347 	.db #0x07
   3DFB 08                16348 	.db #0x08
   3DFC 08                16349 	.db #0x08
   3DFD 08                16350 	.db #0x08
   3DFE 08                16351 	.db #0x08
   3DFF 08                16352 	.db #0x08
   3E00 08                16353 	.db #0x08
   3E01 08                16354 	.db #0x08
   3E02 08                16355 	.db #0x08
   3E03 08                16356 	.db #0x08
   3E04 08                16357 	.db #0x08
   3E05 10                16358 	.db #0x10
   3E06 10                16359 	.db #0x10
   3E07 30                16360 	.db #0x30
   3E08 30                16361 	.db #0x30
   3E09 F8                16362 	.db #0xF8
   3E0A E8                16363 	.db #0xE8
   3E0B 01                16364 	.db #0x01
   3E0C 01                16365 	.db #0x01
   3E0D 01                16366 	.db #0x01
   3E0E 01                16367 	.db #0x01
   3E0F 00                16368 	.db #0x00
   3E10 00                16369 	.db #0x00
   3E11 01                16370 	.db #0x01
   3E12 01                16371 	.db #0x01
   3E13 01                16372 	.db #0x01
   3E14 01                16373 	.db #0x01
   3E15 01                16374 	.db #0x01
   3E16 01                16375 	.db #0x01
   3E17 01                16376 	.db #0x01
   3E18 01                16377 	.db #0x01
   3E19 01                16378 	.db #0x01
   3E1A 01                16379 	.db #0x01
   3E1B FF                16380 	.db #0xFF
   3E1C 30                16381 	.db #0x30
   3E1D FF                16382 	.db #0xFF
   3E1E 90                16383 	.db #0x90
   3E1F FF                16384 	.db #0xFF
   3E20 80                16385 	.db #0x80
   3E21 FF                16386 	.db #0xFF
   3E22 80                16387 	.db #0x80
   3E23 FF                16388 	.db #0xFF
   3E24 00                16389 	.db #0x00
   3E25 FF                16390 	.db #0xFF
   3E26 00                16391 	.db #0x00
   3E27 FF                16392 	.db #0xFF
   3E28 00                16393 	.db #0x00
   3E29 FF                16394 	.db #0xFF
   3E2A 80                16395 	.db #0x80
   3E2B FF                16396 	.db #0xFF
   3E2C 01                16397 	.db #0x01
   3E2D EF                16398 	.db #0xEF
   3E2E 01                16399 	.db #0x01
   3E2F FF                16400 	.db #0xFF
   3E30 01                16401 	.db #0x01
   3E31 FF                16402 	.db #0xFF
   3E32 01                16403 	.db #0x01
   3E33 FF                16404 	.db #0xFF
   3E34 01                16405 	.db #0x01
   3E35 FF                16406 	.db #0xFF
   3E36 00                16407 	.db #0x00
   3E37 FF                16408 	.db #0xFF
   3E38 00                16409 	.db #0x00
   3E39 FF                16410 	.db #0xFF
   3E3A 03                16411 	.db #0x03
   3E3B FF                16412 	.db #0xFF
   3E3C 00                16413 	.db #0x00
   3E3D FF                16414 	.db #0xFF
   3E3E 00                16415 	.db #0x00
   3E3F FF                16416 	.db #0xFF
   3E40 00                16417 	.db #0x00
   3E41 FF                16418 	.db #0xFF
   3E42 00                16419 	.db #0x00
   3E43 FF                16420 	.db #0xFF
   3E44 00                16421 	.db #0x00
   3E45 FF                16422 	.db #0xFF
   3E46 00                16423 	.db #0x00
   3E47 FF                16424 	.db #0xFF
   3E48 00                16425 	.db #0x00
   3E49 FF                16426 	.db #0xFF
   3E4A C0                16427 	.db #0xC0
   3E4B 80                16428 	.db #0x80
   3E4C 80                16429 	.db #0x80
   3E4D C0                16430 	.db #0xC0
   3E4E C0                16431 	.db #0xC0
   3E4F E0                16432 	.db #0xE0
   3E50 60                16433 	.db #0x60
   3E51 F0                16434 	.db #0xF0
   3E52 30                16435 	.db #0x30
   3E53 FC                16436 	.db #0xFC
   3E54 1C                16437 	.db #0x1C
   3E55 FF                16438 	.db #0xFF
   3E56 03                16439 	.db #0x03
   3E57 FF                16440 	.db #0xFF
   3E58 10                16441 	.db #0x10
   3E59 FF                16442 	.db #0xFF
   3E5A 1E                16443 	.db #0x1E
   3E5B 00                16444 	.db #0x00
   3E5C 00                16445 	.db #0x00
   3E5D 00                16446 	.db #0x00
   3E5E 00                16447 	.db #0x00
   3E5F 00                16448 	.db #0x00
   3E60 00                16449 	.db #0x00
   3E61 00                16450 	.db #0x00
   3E62 00                16451 	.db #0x00
   3E63 07                16452 	.db #0x07
   3E64 07                16453 	.db #0x07
   3E65 FF                16454 	.db #0xFF
   3E66 F8                16455 	.db #0xF8
   3E67 FF                16456 	.db #0xFF
   3E68 00                16457 	.db #0x00
   3E69 FF                16458 	.db #0xFF
   3E6A 0F                16459 	.db #0x0F
   3E6B 3F                16460 	.db #0x3F
   3E6C 19                16461 	.db #0x19
   3E6D 3F                16462 	.db #0x3F
   3E6E 33                16463 	.db #0x33
   3E6F 7F                16464 	.db #0x7F
   3E70 62                16465 	.db #0x62
   3E71 FF                16466 	.db #0xFF
   3E72 C4                16467 	.db #0xC4
   3E73 FF                16468 	.db #0xFF
   3E74 88                16469 	.db #0x88
   3E75 FF                16470 	.db #0xFF
   3E76 00                16471 	.db #0x00
   3E77 FF                16472 	.db #0xFF
   3E78 C0                16473 	.db #0xC0
   3E79 FF                16474 	.db #0xFF
   3E7A 80                16475 	.db #0x80
   3E7B FF                16476 	.db #0xFF
   3E7C 00                16477 	.db #0x00
   3E7D FF                16478 	.db #0xFF
   3E7E 06                16479 	.db #0x06
   3E7F FF                16480 	.db #0xFF
   3E80 1C                16481 	.db #0x1C
   3E81 FF                16482 	.db #0xFF
   3E82 70                16483 	.db #0x70
   3E83 FF                16484 	.db #0xFF
   3E84 C0                16485 	.db #0xC0
   3E85 FF                16486 	.db #0xFF
   3E86 80                16487 	.db #0x80
   3E87 FF                16488 	.db #0xFF
   3E88 80                16489 	.db #0x80
   3E89 FF                16490 	.db #0xFF
   3E8A 80                16491 	.db #0x80
   3E8B FF                16492 	.db #0xFF
   3E8C 04                16493 	.db #0x04
   3E8D FF                16494 	.db #0xFF
   3E8E 0C                16495 	.db #0x0C
   3E8F FF                16496 	.db #0xFF
   3E90 1C                16497 	.db #0x1C
   3E91 FF                16498 	.db #0xFF
   3E92 18                16499 	.db #0x18
   3E93 FF                16500 	.db #0xFF
   3E94 30                16501 	.db #0x30
   3E95 FF                16502 	.db #0xFF
   3E96 20                16503 	.db #0x20
   3E97 FF                16504 	.db #0xFF
   3E98 20                16505 	.db #0x20
   3E99 FF                16506 	.db #0xFF
   3E9A 30                16507 	.db #0x30
   3E9B FC                16508 	.db #0xFC
   3E9C 04                16509 	.db #0x04
   3E9D FC                16510 	.db #0xFC
   3E9E 04                16511 	.db #0x04
   3E9F FC                16512 	.db #0xFC
   3EA0 04                16513 	.db #0x04
   3EA1 FC                16514 	.db #0xFC
   3EA2 04                16515 	.db #0x04
   3EA3 FC                16516 	.db #0xFC
   3EA4 7C                16517 	.db #0x7C
   3EA5 FE                16518 	.db #0xFE
   3EA6 06                16519 	.db #0x06
   3EA7 FF                16520 	.db #0xFF
   3EA8 01                16521 	.db #0x01
   3EA9 FF                16522 	.db #0xFF
   3EAA 01                16523 	.db #0x01
   3EAB FF                16524 	.db #0xFF
   3EAC 90                16525 	.db #0x90
   3EAD 7F                16526 	.db #0x7F
   3EAE 70                16527 	.db #0x70
   3EAF 1F                16528 	.db #0x1F
   3EB0 10                16529 	.db #0x10
   3EB1 1F                16530 	.db #0x1F
   3EB2 10                16531 	.db #0x10
   3EB3 1F                16532 	.db #0x1F
   3EB4 10                16533 	.db #0x10
   3EB5 1F                16534 	.db #0x1F
   3EB6 10                16535 	.db #0x10
   3EB7 1F                16536 	.db #0x1F
   3EB8 10                16537 	.db #0x10
   3EB9 1F                16538 	.db #0x1F
   3EBA 10                16539 	.db #0x10
   3EBB FF                16540 	.db #0xFF
   3EBC 00                16541 	.db #0x00
   3EBD FF                16542 	.db #0xFF
   3EBE 00                16543 	.db #0x00
   3EBF FF                16544 	.db #0xFF
   3EC0 00                16545 	.db #0x00
   3EC1 FF                16546 	.db #0xFF
   3EC2 00                16547 	.db #0x00
   3EC3 FF                16548 	.db #0xFF
   3EC4 00                16549 	.db #0x00
   3EC5 FF                16550 	.db #0xFF
   3EC6 00                16551 	.db #0x00
   3EC7 FF                16552 	.db #0xFF
   3EC8 00                16553 	.db #0x00
   3EC9 FF                16554 	.db #0xFF
   3ECA 00                16555 	.db #0x00
   3ECB FF                16556 	.db #0xFF
   3ECC 78                16557 	.db #0x78
   3ECD FF                16558 	.db #0xFF
   3ECE 00                16559 	.db #0x00
   3ECF FF                16560 	.db #0xFF
   3ED0 00                16561 	.db #0x00
   3ED1 FF                16562 	.db #0xFF
   3ED2 00                16563 	.db #0x00
   3ED3 FF                16564 	.db #0xFF
   3ED4 00                16565 	.db #0x00
   3ED5 FF                16566 	.db #0xFF
   3ED6 00                16567 	.db #0x00
   3ED7 FF                16568 	.db #0xFF
   3ED8 1F                16569 	.db #0x1F
   3ED9 F0                16570 	.db #0xF0
   3EDA 30                16571 	.db #0x30
   3EDB FF                16572 	.db #0xFF
   3EDC 03                16573 	.db #0x03
   3EDD FF                16574 	.db #0xFF
   3EDE 00                16575 	.db #0x00
   3EDF FF                16576 	.db #0xFF
   3EE0 00                16577 	.db #0x00
   3EE1 FF                16578 	.db #0xFF
   3EE2 00                16579 	.db #0x00
   3EE3 FF                16580 	.db #0xFF
   3EE4 00                16581 	.db #0x00
   3EE5 FF                16582 	.db #0xFF
   3EE6 00                16583 	.db #0x00
   3EE7 FF                16584 	.db #0xFF
   3EE8 FF                16585 	.db #0xFF
   3EE9 20                16586 	.db #0x20
   3EEA 20                16587 	.db #0x20
   3EEB FF                16588 	.db #0xFF
   3EEC FC                16589 	.db #0xFC
   3EED FF                16590 	.db #0xFF
   3EEE 00                16591 	.db #0x00
   3EEF FF                16592 	.db #0xFF
   3EF0 00                16593 	.db #0x00
   3EF1 FF                16594 	.db #0xFF
   3EF2 00                16595 	.db #0x00
   3EF3 FF                16596 	.db #0xFF
   3EF4 00                16597 	.db #0x00
   3EF5 FF                16598 	.db #0xFF
   3EF6 00                16599 	.db #0x00
   3EF7 FF                16600 	.db #0xFF
   3EF8 FC                16601 	.db #0xFC
   3EF9 03                16602 	.db #0x03
   3EFA 03                16603 	.db #0x03
   3EFB FF                16604 	.db #0xFF
   3EFC 00                16605 	.db #0x00
   3EFD FF                16606 	.db #0xFF
   3EFE 00                16607 	.db #0x00
   3EFF FF                16608 	.db #0xFF
   3F00 00                16609 	.db #0x00
   3F01 FF                16610 	.db #0xFF
   3F02 01                16611 	.db #0x01
   3F03 FF                16612 	.db #0xFF
   3F04 02                16613 	.db #0x02
   3F05 FF                16614 	.db #0xFF
   3F06 01                16615 	.db #0x01
   3F07 FF                16616 	.db #0xFF
   3F08 00                16617 	.db #0x00
   3F09 FF                16618 	.db #0xFF
   3F0A F0                16619 	.db #0xF0
   3F0B FF                16620 	.db #0xFF
   3F0C 80                16621 	.db #0x80
   3F0D FF                16622 	.db #0xFF
   3F0E 80                16623 	.db #0x80
   3F0F FF                16624 	.db #0xFF
   3F10 80                16625 	.db #0x80
   3F11 FF                16626 	.db #0xFF
   3F12 80                16627 	.db #0x80
   3F13 FF                16628 	.db #0xFF
   3F14 00                16629 	.db #0x00
   3F15 FF                16630 	.db #0xFF
   3F16 F0                16631 	.db #0xF0
   3F17 FF                16632 	.db #0xFF
   3F18 0F                16633 	.db #0x0F
   3F19 FF                16634 	.db #0xFF
   3F1A 00                16635 	.db #0x00
   3F1B FF                16636 	.db #0xFF
   3F1C 1C                16637 	.db #0x1C
   3F1D FF                16638 	.db #0xFF
   3F1E 00                16639 	.db #0x00
   3F1F FF                16640 	.db #0xFF
   3F20 00                16641 	.db #0x00
   3F21 FF                16642 	.db #0xFF
   3F22 00                16643 	.db #0x00
   3F23 FF                16644 	.db #0xFF
   3F24 00                16645 	.db #0x00
   3F25 FF                16646 	.db #0xFF
   3F26 00                16647 	.db #0x00
   3F27 FF                16648 	.db #0xFF
   3F28 C0                16649 	.db #0xC0
   3F29 FF                16650 	.db #0xFF
   3F2A 7F                16651 	.db #0x7F
   3F2B FF                16652 	.db #0xFF
   3F2C 01                16653 	.db #0x01
   3F2D FF                16654 	.db #0xFF
   3F2E 03                16655 	.db #0x03
   3F2F FE                16656 	.db #0xFE
   3F30 02                16657 	.db #0x02
   3F31 FE                16658 	.db #0xFE
   3F32 06                16659 	.db #0x06
   3F33 FE                16660 	.db #0xFE
   3F34 06                16661 	.db #0x06
   3F35 FC                16662 	.db #0xFC
   3F36 04                16663 	.db #0x04
   3F37 FC                16664 	.db #0xFC
   3F38 0C                16665 	.db #0x0C
   3F39 F8                16666 	.db #0xF8
   3F3A F8                16667 	.db #0xF8
   3F3B 1F                16668 	.db #0x1F
   3F3C 10                16669 	.db #0x10
   3F3D 1F                16670 	.db #0x1F
   3F3E 10                16671 	.db #0x10
   3F3F 1F                16672 	.db #0x1F
   3F40 10                16673 	.db #0x10
   3F41 1F                16674 	.db #0x1F
   3F42 10                16675 	.db #0x10
   3F43 1F                16676 	.db #0x1F
   3F44 10                16677 	.db #0x10
   3F45 1F                16678 	.db #0x1F
   3F46 10                16679 	.db #0x10
   3F47 1F                16680 	.db #0x1F
   3F48 10                16681 	.db #0x10
   3F49 1F                16682 	.db #0x1F
   3F4A 10                16683 	.db #0x10
   3F4B E0                16684 	.db #0xE0
   3F4C 60                16685 	.db #0x60
   3F4D F0                16686 	.db #0xF0
   3F4E 70                16687 	.db #0x70
   3F4F DF                16688 	.db #0xDF
   3F50 5F                16689 	.db #0x5F
   3F51 C1                16690 	.db #0xC1
   3F52 41                16691 	.db #0x41
   3F53 C1                16692 	.db #0xC1
   3F54 41                16693 	.db #0x41
   3F55 C1                16694 	.db #0xC1
   3F56 41                16695 	.db #0x41
   3F57 C1                16696 	.db #0xC1
   3F58 41                16697 	.db #0x41
   3F59 E1                16698 	.db #0xE1
   3F5A 61                16699 	.db #0x61
   3F5B 20                16700 	.db #0x20
   3F5C 20                16701 	.db #0x20
   3F5D 20                16702 	.db #0x20
   3F5E 20                16703 	.db #0x20
   3F5F 20                16704 	.db #0x20
   3F60 20                16705 	.db #0x20
   3F61 E0                16706 	.db #0xE0
   3F62 E0                16707 	.db #0xE0
   3F63 10                16708 	.db #0x10
   3F64 10                16709 	.db #0x10
   3F65 08                16710 	.db #0x08
   3F66 08                16711 	.db #0x08
   3F67 04                16712 	.db #0x04
   3F68 04                16713 	.db #0x04
   3F69 02                16714 	.db #0x02
   3F6A 02                16715 	.db #0x02
   3F6B 02                16716 	.db #0x02
   3F6C 02                16717 	.db #0x02
   3F6D 02                16718 	.db #0x02
   3F6E 02                16719 	.db #0x02
   3F6F 02                16720 	.db #0x02
   3F70 02                16721 	.db #0x02
   3F71 04                16722 	.db #0x04
   3F72 04                16723 	.db #0x04
   3F73 06                16724 	.db #0x06
   3F74 06                16725 	.db #0x06
   3F75 19                16726 	.db #0x19
   3F76 19                16727 	.db #0x19
   3F77 30                16728 	.db #0x30
   3F78 30                16729 	.db #0x30
   3F79 60                16730 	.db #0x60
   3F7A 60                16731 	.db #0x60
   3F7B 0F                16732 	.db #0x0F
   3F7C 0E                16733 	.db #0x0E
   3F7D 01                16734 	.db #0x01
   3F7E 01                16735 	.db #0x01
   3F7F 00                16736 	.db #0x00
   3F80 00                16737 	.db #0x00
   3F81 00                16738 	.db #0x00
   3F82 00                16739 	.db #0x00
   3F83 00                16740 	.db #0x00
   3F84 00                16741 	.db #0x00
   3F85 FC                16742 	.db #0xFC
   3F86 FC                16743 	.db #0xFC
   3F87 07                16744 	.db #0x07
   3F88 07                16745 	.db #0x07
   3F89 00                16746 	.db #0x00
   3F8A 00                16747 	.db #0x00
   3F8B FF                16748 	.db #0xFF
   3F8C 00                16749 	.db #0x00
   3F8D FF                16750 	.db #0xFF
   3F8E C0                16751 	.db #0xC0
   3F8F 3F                16752 	.db #0x3F
   3F90 3E                16753 	.db #0x3E
   3F91 23                16754 	.db #0x23
   3F92 23                16755 	.db #0x23
   3F93 20                16756 	.db #0x20
   3F94 20                16757 	.db #0x20
   3F95 20                16758 	.db #0x20
   3F96 20                16759 	.db #0x20
   3F97 FF                16760 	.db #0xFF
   3F98 FF                16761 	.db #0xFF
   3F99 10                16762 	.db #0x10
   3F9A 10                16763 	.db #0x10
   3F9B FF                16764 	.db #0xFF
   3F9C 07                16765 	.db #0x07
   3F9D FF                16766 	.db #0xFF
   3F9E 03                16767 	.db #0x03
   3F9F FE                16768 	.db #0xFE
   3FA0 0E                16769 	.db #0x0E
   3FA1 FA                16770 	.db #0xFA
   3FA2 FA                16771 	.db #0xFA
   3FA3 02                16772 	.db #0x02
   3FA4 02                16773 	.db #0x02
   3FA5 1E                16774 	.db #0x1E
   3FA6 1E                16775 	.db #0x1E
   3FA7 F2                16776 	.db #0xF2
   3FA8 F2                16777 	.db #0xF2
   3FA9 02                16778 	.db #0x02
   3FAA 02                16779 	.db #0x02
   3FAB 3F                16780 	.db #0x3F
   3FAC 30                16781 	.db #0x30
   3FAD BF                16782 	.db #0xBF
   3FAE B0                16783 	.db #0xB0
   3FAF 7F                16784 	.db #0x7F
   3FB0 70                16785 	.db #0x70
   3FB1 3F                16786 	.db #0x3F
   3FB2 30                16787 	.db #0x30
   3FB3 3F                16788 	.db #0x3F
   3FB4 38                16789 	.db #0x38
   3FB5 2F                16790 	.db #0x2F
   3FB6 3E                16791 	.db #0x3E
   3FB7 3F                16792 	.db #0x3F
   3FB8 23                16793 	.db #0x23
   3FB9 3F                16794 	.db #0x3F
   3FBA 20                16795 	.db #0x20
   3FBB FF                16796 	.db #0xFF
   3FBC 00                16797 	.db #0x00
   3FBD FF                16798 	.db #0xFF
   3FBE 00                16799 	.db #0x00
   3FBF FF                16800 	.db #0xFF
   3FC0 00                16801 	.db #0x00
   3FC1 FF                16802 	.db #0xFF
   3FC2 00                16803 	.db #0x00
   3FC3 FF                16804 	.db #0xFF
   3FC4 00                16805 	.db #0x00
   3FC5 FF                16806 	.db #0xFF
   3FC6 00                16807 	.db #0x00
   3FC7 FF                16808 	.db #0xFF
   3FC8 80                16809 	.db #0x80
   3FC9 FF                16810 	.db #0xFF
   3FCA C0                16811 	.db #0xC0
   3FCB E1                16812 	.db #0xE1
   3FCC 21                16813 	.db #0x21
   3FCD F1                16814 	.db #0xF1
   3FCE 31                16815 	.db #0x31
   3FCF F9                16816 	.db #0xF9
   3FD0 19                16817 	.db #0x19
   3FD1 FF                16818 	.db #0xFF
   3FD2 0F                16819 	.db #0x0F
   3FD3 FF                16820 	.db #0xFF
   3FD4 03                16821 	.db #0x03
   3FD5 FF                16822 	.db #0xFF
   3FD6 00                16823 	.db #0x00
   3FD7 FF                16824 	.db #0xFF
   3FD8 00                16825 	.db #0x00
   3FD9 FF                16826 	.db #0xFF
   3FDA 00                16827 	.db #0x00
   3FDB 01                16828 	.db #0x01
   3FDC 01                16829 	.db #0x01
   3FDD 00                16830 	.db #0x00
   3FDE 00                16831 	.db #0x00
   3FDF 00                16832 	.db #0x00
   3FE0 00                16833 	.db #0x00
   3FE1 00                16834 	.db #0x00
   3FE2 00                16835 	.db #0x00
   3FE3 80                16836 	.db #0x80
   3FE4 80                16837 	.db #0x80
   3FE5 F8                16838 	.db #0xF8
   3FE6 F8                16839 	.db #0xF8
   3FE7 FF                16840 	.db #0xFF
   3FE8 0F                16841 	.db #0x0F
   3FE9 FF                16842 	.db #0xFF
   3FEA 00                16843 	.db #0x00
   3FEB A0                16844 	.db #0xA0
   3FEC A0                16845 	.db #0xA0
   3FED 20                16846 	.db #0x20
   3FEE 20                16847 	.db #0x20
   3FEF 20                16848 	.db #0x20
   3FF0 20                16849 	.db #0x20
   3FF1 20                16850 	.db #0x20
   3FF2 20                16851 	.db #0x20
   3FF3 20                16852 	.db #0x20
   3FF4 20                16853 	.db #0x20
   3FF5 21                16854 	.db #0x21
   3FF6 21                16855 	.db #0x21
   3FF7 FF                16856 	.db #0xFF
   3FF8 FE                16857 	.db #0xFE
   3FF9 FF                16858 	.db #0xFF
   3FFA 00                16859 	.db #0x00
   3FFB 00                16860 	.db #0x00
   3FFC 00                16861 	.db #0x00
   3FFD 00                16862 	.db #0x00
   3FFE 00                16863 	.db #0x00
   3FFF 00                16864 	.db #0x00
   4000 00                16865 	.db #0x00
   4001 00                16866 	.db #0x00
   4002 00                16867 	.db #0x00
   4003 00                16868 	.db #0x00
   4004 00                16869 	.db #0x00
   4005 FE                16870 	.db #0xFE
   4006 FE                16871 	.db #0xFE
   4007 FF                16872 	.db #0xFF
   4008 07                16873 	.db #0x07
   4009 FF                16874 	.db #0xFF
   400A 00                16875 	.db #0x00
   400B 10                16876 	.db #0x10
   400C 10                16877 	.db #0x10
   400D 10                16878 	.db #0x10
   400E 10                16879 	.db #0x10
   400F 10                16880 	.db #0x10
   4010 10                16881 	.db #0x10
   4011 10                16882 	.db #0x10
   4012 10                16883 	.db #0x10
   4013 10                16884 	.db #0x10
   4014 10                16885 	.db #0x10
   4015 1F                16886 	.db #0x1F
   4016 17                16887 	.db #0x17
   4017 FF                16888 	.db #0xFF
   4018 FC                16889 	.db #0xFC
   4019 FF                16890 	.db #0xFF
   401A 00                16891 	.db #0x00
   401B 02                16892 	.db #0x02
   401C 02                16893 	.db #0x02
   401D 03                16894 	.db #0x03
   401E 03                16895 	.db #0x03
   401F 0F                16896 	.db #0x0F
   4020 0E                16897 	.db #0x0E
   4021 1F                16898 	.db #0x1F
   4022 18                16899 	.db #0x18
   4023 3F                16900 	.db #0x3F
   4024 30                16901 	.db #0x30
   4025 FF                16902 	.db #0xFF
   4026 E0                16903 	.db #0xE0
   4027 FF                16904 	.db #0xFF
   4028 00                16905 	.db #0x00
   4029 FF                16906 	.db #0xFF
   402A 08                16907 	.db #0x08
   402B 00                16908 	.db #0x00
   402C 00                16909 	.db #0x00
   402D 80                16910 	.db #0x80
   402E 80                16911 	.db #0x80
   402F C0                16912 	.db #0xC0
   4030 C0                16913 	.db #0xC0
   4031 C0                16914 	.db #0xC0
   4032 40                16915 	.db #0x40
   4033 C0                16916 	.db #0xC0
   4034 40                16917 	.db #0x40
   4035 C0                16918 	.db #0xC0
   4036 40                16919 	.db #0x40
   4037 E0                16920 	.db #0xE0
   4038 60                16921 	.db #0x60
   4039 F8                16922 	.db #0xF8
   403A 98                16923 	.db #0x98
   403B 00                16924 	.db #0x00
   403C 00                16925 	.db #0x00
   403D 00                16926 	.db #0x00
   403E 00                16927 	.db #0x00
   403F 01                16928 	.db #0x01
   4040 01                16929 	.db #0x01
   4041 00                16930 	.db #0x00
   4042 00                16931 	.db #0x00
   4043 00                16932 	.db #0x00
   4044 00                16933 	.db #0x00
   4045 00                16934 	.db #0x00
   4046 00                16935 	.db #0x00
   4047 00                16936 	.db #0x00
   4048 00                16937 	.db #0x00
   4049 00                16938 	.db #0x00
   404A 00                16939 	.db #0x00
   404B 3F                16940 	.db #0x3F
   404C 20                16941 	.db #0x20
   404D 3F                16942 	.db #0x3F
   404E 20                16943 	.db #0x20
   404F FF                16944 	.db #0xFF
   4050 E0                16945 	.db #0xE0
   4051 FF                16946 	.db #0xFF
   4052 E0                16947 	.db #0xE0
   4053 7F                16948 	.db #0x7F
   4054 70                16949 	.db #0x70
   4055 7F                16950 	.db #0x7F
   4056 4C                16951 	.db #0x4C
   4057 7F                16952 	.db #0x7F
   4058 47                16953 	.db #0x47
   4059 7F                16954 	.db #0x7F
   405A 40                16955 	.db #0x40
   405B FF                16956 	.db #0xFF
   405C 03                16957 	.db #0x03
   405D FF                16958 	.db #0xFF
   405E 00                16959 	.db #0x00
   405F FF                16960 	.db #0xFF
   4060 00                16961 	.db #0x00
   4061 FF                16962 	.db #0xFF
   4062 00                16963 	.db #0x00
   4063 FF                16964 	.db #0xFF
   4064 00                16965 	.db #0x00
   4065 FF                16966 	.db #0xFF
   4066 00                16967 	.db #0x00
   4067 FF                16968 	.db #0xFF
   4068 00                16969 	.db #0x00
   4069 FF                16970 	.db #0xFF
   406A 00                16971 	.db #0x00
   406B FF                16972 	.db #0xFF
   406C C0                16973 	.db #0xC0
   406D FF                16974 	.db #0xFF
   406E 7C                16975 	.db #0x7C
   406F FF                16976 	.db #0xFF
   4070 07                16977 	.db #0x07
   4071 FC                16978 	.db #0xFC
   4072 04                16979 	.db #0x04
   4073 FC                16980 	.db #0xFC
   4074 04                16981 	.db #0x04
   4075 FC                16982 	.db #0xFC
   4076 04                16983 	.db #0x04
   4077 BE                16984 	.db #0xBE
   4078 06                16985 	.db #0x06
   4079 FE                16986 	.db #0xFE
   407A 02                16987 	.db #0x02
   407B FF                16988 	.db #0xFF
   407C 00                16989 	.db #0x00
   407D FF                16990 	.db #0xFF
   407E 00                16991 	.db #0x00
   407F FF                16992 	.db #0xFF
   4080 80                16993 	.db #0x80
   4081 7F                16994 	.db #0x7F
   4082 70                16995 	.db #0x70
   4083 1F                16996 	.db #0x1F
   4084 1C                16997 	.db #0x1C
   4085 07                16998 	.db #0x07
   4086 07                16999 	.db #0x07
   4087 01                17000 	.db #0x01
   4088 01                17001 	.db #0x01
   4089 00                17002 	.db #0x00
   408A 00                17003 	.db #0x00
   408B FF                17004 	.db #0xFF
   408C 00                17005 	.db #0x00
   408D FF                17006 	.db #0xFF
   408E 00                17007 	.db #0x00
   408F FF                17008 	.db #0xFF
   4090 00                17009 	.db #0x00
   4091 FF                17010 	.db #0xFF
   4092 00                17011 	.db #0x00
   4093 FF                17012 	.db #0xFF
   4094 00                17013 	.db #0x00
   4095 7F                17014 	.db #0x7F
   4096 80                17015 	.db #0x80
   4097 FF                17016 	.db #0xFF
   4098 F0                17017 	.db #0xF0
   4099 1F                17018 	.db #0x1F
   409A 1E                17019 	.db #0x1E
   409B FF                17020 	.db #0xFF
   409C 07                17021 	.db #0x07
   409D FF                17022 	.db #0xFF
   409E 00                17023 	.db #0x00
   409F FF                17024 	.db #0xFF
   40A0 00                17025 	.db #0x00
   40A1 FF                17026 	.db #0xFF
   40A2 00                17027 	.db #0x00
   40A3 FF                17028 	.db #0xFF
   40A4 00                17029 	.db #0x00
   40A5 FF                17030 	.db #0xFF
   40A6 00                17031 	.db #0x00
   40A7 FF                17032 	.db #0xFF
   40A8 00                17033 	.db #0x00
   40A9 FF                17034 	.db #0xFF
   40AA 00                17035 	.db #0x00
   40AB FC                17036 	.db #0xFC
   40AC 0C                17037 	.db #0x0C
   40AD FE                17038 	.db #0xFE
   40AE 06                17039 	.db #0x06
   40AF FF                17040 	.db #0xFF
   40B0 03                17041 	.db #0x03
   40B1 FF                17042 	.db #0xFF
   40B2 01                17043 	.db #0x01
   40B3 FF                17044 	.db #0xFF
   40B4 00                17045 	.db #0x00
   40B5 FF                17046 	.db #0xFF
   40B6 00                17047 	.db #0x00
   40B7 FF                17048 	.db #0xFF
   40B8 00                17049 	.db #0x00
   40B9 FF                17050 	.db #0xFF
   40BA 00                17051 	.db #0x00
   40BB 00                17052 	.db #0x00
   40BC 00                17053 	.db #0x00
   40BD 00                17054 	.db #0x00
   40BE 00                17055 	.db #0x00
   40BF 00                17056 	.db #0x00
   40C0 00                17057 	.db #0x00
   40C1 80                17058 	.db #0x80
   40C2 80                17059 	.db #0x80
   40C3 C0                17060 	.db #0xC0
   40C4 C0                17061 	.db #0xC0
   40C5 C0                17062 	.db #0xC0
   40C6 40                17063 	.db #0x40
   40C7 E0                17064 	.db #0xE0
   40C8 60                17065 	.db #0x60
   40C9 E0                17066 	.db #0xE0
   40CA 20                17067 	.db #0x20
   40CB 00                17068 	.db #0x00
   40CC 00                17069 	.db #0x00
   40CD 01                17070 	.db #0x01
   40CE 01                17071 	.db #0x01
   40CF 00                17072 	.db #0x00
   40D0 00                17073 	.db #0x00
   40D1 00                17074 	.db #0x00
   40D2 00                17075 	.db #0x00
   40D3 00                17076 	.db #0x00
   40D4 00                17077 	.db #0x00
   40D5 00                17078 	.db #0x00
   40D6 00                17079 	.db #0x00
   40D7 00                17080 	.db #0x00
   40D8 00                17081 	.db #0x00
   40D9 00                17082 	.db #0x00
   40DA 00                17083 	.db #0x00
   40DB 7F                17084 	.db #0x7F
   40DC 40                17085 	.db #0x40
   40DD FF                17086 	.db #0xFF
   40DE E0                17087 	.db #0xE0
   40DF 7F                17088 	.db #0x7F
   40E0 7E                17089 	.db #0x7E
   40E1 7F                17090 	.db #0x7F
   40E2 47                17091 	.db #0x47
   40E3 77                17092 	.db #0x77
   40E4 40                17093 	.db #0x40
   40E5 7F                17094 	.db #0x7F
   40E6 40                17095 	.db #0x40
   40E7 7E                17096 	.db #0x7E
   40E8 40                17097 	.db #0x40
   40E9 FF                17098 	.db #0xFF
   40EA C0                17099 	.db #0xC0
   40EB FF                17100 	.db #0xFF
   40EC 00                17101 	.db #0x00
   40ED FF                17102 	.db #0xFF
   40EE 00                17103 	.db #0x00
   40EF FF                17104 	.db #0xFF
   40F0 00                17105 	.db #0x00
   40F1 FF                17106 	.db #0xFF
   40F2 00                17107 	.db #0x00
   40F3 FF                17108 	.db #0xFF
   40F4 00                17109 	.db #0x00
   40F5 FF                17110 	.db #0xFF
   40F6 00                17111 	.db #0x00
   40F7 FF                17112 	.db #0xFF
   40F8 00                17113 	.db #0x00
   40F9 F7                17114 	.db #0xF7
   40FA 00                17115 	.db #0x00
   40FB FF                17116 	.db #0xFF
   40FC 03                17117 	.db #0x03
   40FD FF                17118 	.db #0xFF
   40FE 01                17119 	.db #0x01
   40FF FF                17120 	.db #0xFF
   4100 01                17121 	.db #0x01
   4101 FF                17122 	.db #0xFF
   4102 00                17123 	.db #0x00
   4103 FF                17124 	.db #0xFF
   4104 00                17125 	.db #0x00
   4105 FF                17126 	.db #0xFF
   4106 00                17127 	.db #0x00
   4107 FF                17128 	.db #0xFF
   4108 00                17129 	.db #0x00
   4109 FF                17130 	.db #0xFF
   410A 00                17131 	.db #0x00
   410B 00                17132 	.db #0x00
   410C 00                17133 	.db #0x00
   410D 00                17134 	.db #0x00
   410E 00                17135 	.db #0x00
   410F 80                17136 	.db #0x80
   4110 80                17137 	.db #0x80
   4111 80                17138 	.db #0x80
   4112 80                17139 	.db #0x80
   4113 80                17140 	.db #0x80
   4114 80                17141 	.db #0x80
   4115 C0                17142 	.db #0xC0
   4116 C0                17143 	.db #0xC0
   4117 C0                17144 	.db #0xC0
   4118 40                17145 	.db #0x40
   4119 E0                17146 	.db #0xE0
   411A 60                17147 	.db #0x60
   411B 03                17148 	.db #0x03
   411C 03                17149 	.db #0x03
   411D 00                17150 	.db #0x00
   411E 00                17151 	.db #0x00
   411F 00                17152 	.db #0x00
   4120 00                17153 	.db #0x00
   4121 00                17154 	.db #0x00
   4122 00                17155 	.db #0x00
   4123 00                17156 	.db #0x00
   4124 00                17157 	.db #0x00
   4125 00                17158 	.db #0x00
   4126 00                17159 	.db #0x00
   4127 00                17160 	.db #0x00
   4128 00                17161 	.db #0x00
   4129 00                17162 	.db #0x00
   412A 00                17163 	.db #0x00
   412B FF                17164 	.db #0xFF
   412C 80                17165 	.db #0x80
   412D 7F                17166 	.db #0x7F
   412E 70                17167 	.db #0x70
   412F 1F                17168 	.db #0x1F
   4130 18                17169 	.db #0x18
   4131 0F                17170 	.db #0x0F
   4132 0E                17171 	.db #0x0E
   4133 03                17172 	.db #0x03
   4134 03                17173 	.db #0x03
   4135 00                17174 	.db #0x00
   4136 00                17175 	.db #0x00
   4137 00                17176 	.db #0x00
   4138 00                17177 	.db #0x00
   4139 00                17178 	.db #0x00
   413A 00                17179 	.db #0x00
   413B FF                17180 	.db #0xFF
   413C 00                17181 	.db #0x00
   413D FF                17182 	.db #0xFF
   413E 00                17183 	.db #0x00
   413F FF                17184 	.db #0xFF
   4140 00                17185 	.db #0x00
   4141 FF                17186 	.db #0xFF
   4142 00                17187 	.db #0x00
   4143 FF                17188 	.db #0xFF
   4144 C0                17189 	.db #0xC0
   4145 7F                17190 	.db #0x7F
   4146 7F                17191 	.db #0x7F
   4147 01                17192 	.db #0x01
   4148 01                17193 	.db #0x01
   4149 00                17194 	.db #0x00
   414A 00                17195 	.db #0x00
   414B FF                17196 	.db #0xFF
   414C 00                17197 	.db #0x00
   414D FF                17198 	.db #0xFF
   414E 00                17199 	.db #0x00
   414F FF                17200 	.db #0xFF
   4150 00                17201 	.db #0x00
   4151 FF                17202 	.db #0xFF
   4152 00                17203 	.db #0x00
   4153 FF                17204 	.db #0xFF
   4154 00                17205 	.db #0x00
   4155 FF                17206 	.db #0xFF
   4156 00                17207 	.db #0x00
   4157 FF                17208 	.db #0xFF
   4158 E1                17209 	.db #0xE1
   4159 3F                17210 	.db #0x3F
   415A 3F                17211 	.db #0x3F
   415B FF                17212 	.db #0xFF
   415C 00                17213 	.db #0x00
   415D FF                17214 	.db #0xFF
   415E 00                17215 	.db #0x00
   415F FF                17216 	.db #0xFF
   4160 03                17217 	.db #0x03
   4161 FE                17218 	.db #0xFE
   4162 0E                17219 	.db #0x0E
   4163 F8                17220 	.db #0xF8
   4164 38                17221 	.db #0x38
   4165 E0                17222 	.db #0xE0
   4166 E0                17223 	.db #0xE0
   4167 80                17224 	.db #0x80
   4168 80                17225 	.db #0x80
   4169 00                17226 	.db #0x00
   416A 00                17227 	.db #0x00
   416B E0                17228 	.db #0xE0
   416C 20                17229 	.db #0x20
   416D E0                17230 	.db #0xE0
   416E 60                17231 	.db #0x60
   416F C0                17232 	.db #0xC0
   4170 C0                17233 	.db #0xC0
   4171 00                17234 	.db #0x00
   4172 00                17235 	.db #0x00
   4173 00                17236 	.db #0x00
   4174 00                17237 	.db #0x00
   4175 00                17238 	.db #0x00
   4176 00                17239 	.db #0x00
   4177 00                17240 	.db #0x00
   4178 00                17241 	.db #0x00
   4179 00                17242 	.db #0x00
   417A 00                17243 	.db #0x00
   417B 1F                17244 	.db #0x1F
   417C 1F                17245 	.db #0x1F
   417D 3F                17246 	.db #0x3F
   417E 3F                17247 	.db #0x3F
   417F 3F                17248 	.db #0x3F
   4180 3F                17249 	.db #0x3F
   4181 7F                17250 	.db #0x7F
   4182 7F                17251 	.db #0x7F
   4183 7F                17252 	.db #0x7F
   4184 7F                17253 	.db #0x7F
   4185 7F                17254 	.db #0x7F
   4186 7F                17255 	.db #0x7F
   4187 7F                17256 	.db #0x7F
   4188 7F                17257 	.db #0x7F
   4189 7F                17258 	.db #0x7F
   418A 7F                17259 	.db #0x7F
   418B FE                17260 	.db #0xFE
   418C FE                17261 	.db #0xFE
   418D FF                17262 	.db #0xFF
   418E FF                17263 	.db #0xFF
   418F FF                17264 	.db #0xFF
   4190 FF                17265 	.db #0xFF
   4191 FF                17266 	.db #0xFF
   4192 FF                17267 	.db #0xFF
   4193 FF                17268 	.db #0xFF
   4194 FF                17269 	.db #0xFF
   4195 FF                17270 	.db #0xFF
   4196 FF                17271 	.db #0xFF
   4197 FF                17272 	.db #0xFF
   4198 FF                17273 	.db #0xFF
   4199 FF                17274 	.db #0xFF
   419A FF                17275 	.db #0xFF
   419B 07                17276 	.db #0x07
   419C 07                17277 	.db #0x07
   419D FF                17278 	.db #0xFF
   419E FF                17279 	.db #0xFF
   419F FF                17280 	.db #0xFF
   41A0 FF                17281 	.db #0xFF
   41A1 FF                17282 	.db #0xFF
   41A2 FF                17283 	.db #0xFF
   41A3 FF                17284 	.db #0xFF
   41A4 FF                17285 	.db #0xFF
   41A5 FF                17286 	.db #0xFF
   41A6 FF                17287 	.db #0xFF
   41A7 FF                17288 	.db #0xFF
   41A8 FF                17289 	.db #0xFF
   41A9 FF                17290 	.db #0xFF
   41AA FF                17291 	.db #0xFF
   41AB FF                17292 	.db #0xFF
   41AC F0                17293 	.db #0xF0
   41AD FF                17294 	.db #0xFF
   41AE F8                17295 	.db #0xF8
   41AF FF                17296 	.db #0xFF
   41B0 F8                17297 	.db #0xF8
   41B1 FF                17298 	.db #0xFF
   41B2 FC                17299 	.db #0xFC
   41B3 FF                17300 	.db #0xFF
   41B4 FE                17301 	.db #0xFE
   41B5 FF                17302 	.db #0xFF
   41B6 FF                17303 	.db #0xFF
   41B7 FF                17304 	.db #0xFF
   41B8 FF                17305 	.db #0xFF
   41B9 FF                17306 	.db #0xFF
   41BA FF                17307 	.db #0xFF
   41BB FF                17308 	.db #0xFF
   41BC 00                17309 	.db #0x00
   41BD FF                17310 	.db #0xFF
   41BE 00                17311 	.db #0x00
   41BF FF                17312 	.db #0xFF
   41C0 00                17313 	.db #0x00
   41C1 F7                17314 	.db #0xF7
   41C2 00                17315 	.db #0x00
   41C3 FF                17316 	.db #0xFF
   41C4 00                17317 	.db #0x00
   41C5 BF                17318 	.db #0xBF
   41C6 00                17319 	.db #0x00
   41C7 DF                17320 	.db #0xDF
   41C8 80                17321 	.db #0x80
   41C9 FF                17322 	.db #0xFF
   41CA C0                17323 	.db #0xC0
   41CB FF                17324 	.db #0xFF
   41CC 00                17325 	.db #0x00
   41CD FF                17326 	.db #0xFF
   41CE 00                17327 	.db #0x00
   41CF FF                17328 	.db #0xFF
   41D0 00                17329 	.db #0x00
   41D1 FF                17330 	.db #0xFF
   41D2 00                17331 	.db #0x00
   41D3 FF                17332 	.db #0xFF
   41D4 00                17333 	.db #0x00
   41D5 FF                17334 	.db #0xFF
   41D6 00                17335 	.db #0x00
   41D7 FF                17336 	.db #0xFF
   41D8 00                17337 	.db #0x00
   41D9 77                17338 	.db #0x77
   41DA 00                17339 	.db #0x00
   41DB E0                17340 	.db #0xE0
   41DC 60                17341 	.db #0x60
   41DD F0                17342 	.db #0xF0
   41DE 70                17343 	.db #0x70
   41DF F0                17344 	.db #0xF0
   41E0 30                17345 	.db #0x30
   41E1 F0                17346 	.db #0xF0
   41E2 30                17347 	.db #0x30
   41E3 F8                17348 	.db #0xF8
   41E4 38                17349 	.db #0x38
   41E5 FF                17350 	.db #0xFF
   41E6 1F                17351 	.db #0x1F
   41E7 FF                17352 	.db #0xFF
   41E8 07                17353 	.db #0x07
   41E9 FF                17354 	.db #0xFF
   41EA 03                17355 	.db #0x03
   41EB 00                17356 	.db #0x00
   41EC 00                17357 	.db #0x00
   41ED 00                17358 	.db #0x00
   41EE 00                17359 	.db #0x00
   41EF 00                17360 	.db #0x00
   41F0 00                17361 	.db #0x00
   41F1 00                17362 	.db #0x00
   41F2 00                17363 	.db #0x00
   41F3 FF                17364 	.db #0xFF
   41F4 FF                17365 	.db #0xFF
   41F5 FF                17366 	.db #0xFF
   41F6 FF                17367 	.db #0xFF
   41F7 FF                17368 	.db #0xFF
   41F8 FF                17369 	.db #0xFF
   41F9 FF                17370 	.db #0xFF
   41FA FF                17371 	.db #0xFF
   41FB 00                17372 	.db #0x00
   41FC 00                17373 	.db #0x00
   41FD 00                17374 	.db #0x00
   41FE 00                17375 	.db #0x00
   41FF 0F                17376 	.db #0x0F
   4200 0F                17377 	.db #0x0F
   4201 FF                17378 	.db #0xFF
   4202 FF                17379 	.db #0xFF
   4203 FF                17380 	.db #0xFF
   4204 FF                17381 	.db #0xFF
   4205 FF                17382 	.db #0xFF
   4206 FF                17383 	.db #0xFF
   4207 FF                17384 	.db #0xFF
   4208 FF                17385 	.db #0xFF
   4209 FF                17386 	.db #0xFF
   420A FF                17387 	.db #0xFF
   420B 00                17388 	.db #0x00
   420C 00                17389 	.db #0x00
   420D 00                17390 	.db #0x00
   420E 00                17391 	.db #0x00
   420F 80                17392 	.db #0x80
   4210 80                17393 	.db #0x80
   4211 E0                17394 	.db #0xE0
   4212 E0                17395 	.db #0xE0
   4213 F0                17396 	.db #0xF0
   4214 F0                17397 	.db #0xF0
   4215 F8                17398 	.db #0xF8
   4216 F8                17399 	.db #0xF8
   4217 FC                17400 	.db #0xFC
   4218 FC                17401 	.db #0xFC
   4219 FE                17402 	.db #0xFE
   421A FE                17403 	.db #0xFE
   421B FF                17404 	.db #0xFF
   421C FF                17405 	.db #0xFF
   421D FF                17406 	.db #0xFF
   421E FF                17407 	.db #0xFF
   421F FF                17408 	.db #0xFF
   4220 FF                17409 	.db #0xFF
   4221 FF                17410 	.db #0xFF
   4222 FF                17411 	.db #0xFF
   4223 FF                17412 	.db #0xFF
   4224 FF                17413 	.db #0xFF
   4225 FF                17414 	.db #0xFF
   4226 FF                17415 	.db #0xFF
   4227 FF                17416 	.db #0xFF
   4228 FF                17417 	.db #0xFF
   4229 FF                17418 	.db #0xFF
   422A FF                17419 	.db #0xFF
   422B FF                17420 	.db #0xFF
   422C F0                17421 	.db #0xF0
   422D FF                17422 	.db #0xFF
   422E F8                17423 	.db #0xF8
   422F FF                17424 	.db #0xFF
   4230 FC                17425 	.db #0xFC
   4231 FF                17426 	.db #0xFF
   4232 FE                17427 	.db #0xFE
   4233 FF                17428 	.db #0xFF
   4234 FF                17429 	.db #0xFF
   4235 FF                17430 	.db #0xFF
   4236 FF                17431 	.db #0xFF
   4237 FF                17432 	.db #0xFF
   4238 FF                17433 	.db #0xFF
   4239 FF                17434 	.db #0xFF
   423A FF                17435 	.db #0xFF
   423B FF                17436 	.db #0xFF
   423C 00                17437 	.db #0x00
   423D 7F                17438 	.db #0x7F
   423E 00                17439 	.db #0x00
   423F FF                17440 	.db #0xFF
   4240 00                17441 	.db #0x00
   4241 FF                17442 	.db #0xFF
   4242 00                17443 	.db #0x00
   4243 FF                17444 	.db #0xFF
   4244 80                17445 	.db #0x80
   4245 FF                17446 	.db #0xFF
   4246 C0                17447 	.db #0xC0
   4247 FF                17448 	.db #0xFF
   4248 F0                17449 	.db #0xF0
   4249 FF                17450 	.db #0xFF
   424A F8                17451 	.db #0xF8
   424B FF                17452 	.db #0xFF
   424C 03                17453 	.db #0x03
   424D F6                17454 	.db #0xF6
   424E 01                17455 	.db #0x01
   424F FF                17456 	.db #0xFF
   4250 01                17457 	.db #0x01
   4251 FF                17458 	.db #0xFF
   4252 01                17459 	.db #0x01
   4253 FF                17460 	.db #0xFF
   4254 01                17461 	.db #0x01
   4255 FF                17462 	.db #0xFF
   4256 01                17463 	.db #0x01
   4257 FD                17464 	.db #0xFD
   4258 01                17465 	.db #0x01
   4259 FE                17466 	.db #0xFE
   425A 01                17467 	.db #0x01
   425B 00                17468 	.db #0x00
   425C 00                17469 	.db #0x00
   425D 80                17470 	.db #0x80
   425E 80                17471 	.db #0x80
   425F 80                17472 	.db #0x80
   4260 80                17473 	.db #0x80
   4261 C0                17474 	.db #0xC0
   4262 C0                17475 	.db #0xC0
   4263 E0                17476 	.db #0xE0
   4264 E0                17477 	.db #0xE0
   4265 E0                17478 	.db #0xE0
   4266 E0                17479 	.db #0xE0
   4267 F0                17480 	.db #0xF0
   4268 F0                17481 	.db #0xF0
   4269 F8                17482 	.db #0xF8
   426A F8                17483 	.db #0xF8
   426B 00                17484 	.db #0x00
   426C 00                17485 	.db #0x00
   426D 01                17486 	.db #0x01
   426E 01                17487 	.db #0x01
   426F 01                17488 	.db #0x01
   4270 01                17489 	.db #0x01
   4271 01                17490 	.db #0x01
   4272 01                17491 	.db #0x01
   4273 01                17492 	.db #0x01
   4274 01                17493 	.db #0x01
   4275 03                17494 	.db #0x03
   4276 03                17495 	.db #0x03
   4277 03                17496 	.db #0x03
   4278 03                17497 	.db #0x03
   4279 03                17498 	.db #0x03
   427A 03                17499 	.db #0x03
   427B FF                17500 	.db #0xFF
   427C FE                17501 	.db #0xFE
   427D FF                17502 	.db #0xFF
   427E FF                17503 	.db #0xFF
   427F FF                17504 	.db #0xFF
   4280 FF                17505 	.db #0xFF
   4281 FF                17506 	.db #0xFF
   4282 FF                17507 	.db #0xFF
   4283 FF                17508 	.db #0xFF
   4284 FF                17509 	.db #0xFF
   4285 FF                17510 	.db #0xFF
   4286 FF                17511 	.db #0xFF
   4287 FF                17512 	.db #0xFF
   4288 FF                17513 	.db #0xFF
   4289 FF                17514 	.db #0xFF
   428A FF                17515 	.db #0xFF
   428B FF                17516 	.db #0xFF
   428C 01                17517 	.db #0x01
   428D FF                17518 	.db #0xFF
   428E 81                17519 	.db #0x81
   428F FF                17520 	.db #0xFF
   4290 C3                17521 	.db #0xC3
   4291 F7                17522 	.db #0xF7
   4292 F3                17523 	.db #0xF3
   4293 FF                17524 	.db #0xFF
   4294 FF                17525 	.db #0xFF
   4295 FF                17526 	.db #0xFF
   4296 FF                17527 	.db #0xFF
   4297 FF                17528 	.db #0xFF
   4298 FF                17529 	.db #0xFF
   4299 FF                17530 	.db #0xFF
   429A FF                17531 	.db #0xFF
   429B FC                17532 	.db #0xFC
   429C FC                17533 	.db #0xFC
   429D FE                17534 	.db #0xFE
   429E FE                17535 	.db #0xFE
   429F FE                17536 	.db #0xFE
   42A0 FE                17537 	.db #0xFE
   42A1 FF                17538 	.db #0xFF
   42A2 FF                17539 	.db #0xFF
   42A3 FF                17540 	.db #0xFF
   42A4 FF                17541 	.db #0xFF
   42A5 FF                17542 	.db #0xFF
   42A6 FF                17543 	.db #0xFF
   42A7 FF                17544 	.db #0xFF
   42A8 FF                17545 	.db #0xFF
   42A9 FF                17546 	.db #0xFF
   42AA FF                17547 	.db #0xFF
   42AB 00                17548 	.db #0x00
   42AC 00                17549 	.db #0x00
   42AD 00                17550 	.db #0x00
   42AE 00                17551 	.db #0x00
   42AF 00                17552 	.db #0x00
   42B0 00                17553 	.db #0x00
   42B1 00                17554 	.db #0x00
   42B2 00                17555 	.db #0x00
   42B3 80                17556 	.db #0x80
   42B4 80                17557 	.db #0x80
   42B5 80                17558 	.db #0x80
   42B6 80                17559 	.db #0x80
   42B7 C0                17560 	.db #0xC0
   42B8 C0                17561 	.db #0xC0
   42B9 C0                17562 	.db #0xC0
   42BA C0                17563 	.db #0xC0
   42BB 03                17564 	.db #0x03
   42BC 03                17565 	.db #0x03
   42BD 03                17566 	.db #0x03
   42BE 03                17567 	.db #0x03
   42BF 03                17568 	.db #0x03
   42C0 03                17569 	.db #0x03
   42C1 03                17570 	.db #0x03
   42C2 03                17571 	.db #0x03
   42C3 03                17572 	.db #0x03
   42C4 03                17573 	.db #0x03
   42C5 03                17574 	.db #0x03
   42C6 03                17575 	.db #0x03
   42C7 03                17576 	.db #0x03
   42C8 03                17577 	.db #0x03
   42C9 03                17578 	.db #0x03
   42CA 03                17579 	.db #0x03
   42CB C0                17580 	.db #0xC0
   42CC C0                17581 	.db #0xC0
   42CD E0                17582 	.db #0xE0
   42CE E0                17583 	.db #0xE0
   42CF E0                17584 	.db #0xE0
   42D0 E0                17585 	.db #0xE0
   42D1 E0                17586 	.db #0xE0
   42D2 E0                17587 	.db #0xE0
   42D3 E0                17588 	.db #0xE0
   42D4 E0                17589 	.db #0xE0
   42D5 F0                17590 	.db #0xF0
   42D6 F0                17591 	.db #0xF0
   42D7 F0                17592 	.db #0xF0
   42D8 F0                17593 	.db #0xF0
   42D9 F0                17594 	.db #0xF0
   42DA F0                17595 	.db #0xF0
   42DB 03                17596 	.db #0x03
   42DC 03                17597 	.db #0x03
   42DD 07                17598 	.db #0x07
   42DE 07                17599 	.db #0x07
   42DF 07                17600 	.db #0x07
   42E0 07                17601 	.db #0x07
   42E1 07                17602 	.db #0x07
   42E2 07                17603 	.db #0x07
   42E3 07                17604 	.db #0x07
   42E4 07                17605 	.db #0x07
   42E5 07                17606 	.db #0x07
   42E6 07                17607 	.db #0x07
   42E7 07                17608 	.db #0x07
   42E8 07                17609 	.db #0x07
   42E9 0F                17610 	.db #0x0F
   42EA 0F                17611 	.db #0x0F
   42EB F0                17612 	.db #0xF0
   42EC F0                17613 	.db #0xF0
   42ED F8                17614 	.db #0xF8
   42EE F8                17615 	.db #0xF8
   42EF F8                17616 	.db #0xF8
   42F0 F8                17617 	.db #0xF8
   42F1 F8                17618 	.db #0xF8
   42F2 F8                17619 	.db #0xF8
   42F3 F8                17620 	.db #0xF8
   42F4 F8                17621 	.db #0xF8
   42F5 F8                17622 	.db #0xF8
   42F6 F8                17623 	.db #0xF8
   42F7 FC                17624 	.db #0xFC
   42F8 FC                17625 	.db #0xFC
   42F9 FC                17626 	.db #0xFC
   42FA FC                17627 	.db #0xFC
   42FB                   17628 _devil_angry_map:
   42FB 00                17629 	.db #0x00
   42FC 00                17630 	.db #0x00
   42FD 00                17631 	.db #0x00
   42FE 00                17632 	.db #0x00
   42FF 00                17633 	.db #0x00
   4300 00                17634 	.db #0x00
   4301 00                17635 	.db #0x00
   4302 00                17636 	.db #0x00
   4303 00                17637 	.db #0x00
   4304 00                17638 	.db #0x00
   4305 00                17639 	.db #0x00
   4306 00                17640 	.db #0x00
   4307 00                17641 	.db #0x00
   4308 00                17642 	.db #0x00
   4309 00                17643 	.db #0x00
   430A 00                17644 	.db #0x00
   430B 00                17645 	.db #0x00
   430C 00                17646 	.db #0x00
   430D 00                17647 	.db #0x00
   430E 00                17648 	.db #0x00
   430F 00                17649 	.db #0x00
   4310 00                17650 	.db #0x00
   4311 00                17651 	.db #0x00
   4312 00                17652 	.db #0x00
   4313 00                17653 	.db #0x00
   4314 00                17654 	.db #0x00
   4315 00                17655 	.db #0x00
   4316 00                17656 	.db #0x00
   4317 00                17657 	.db #0x00
   4318 00                17658 	.db #0x00
   4319 00                17659 	.db #0x00
   431A 00                17660 	.db #0x00
   431B 00                17661 	.db #0x00
   431C 00                17662 	.db #0x00
   431D 00                17663 	.db #0x00
   431E 00                17664 	.db #0x00
   431F 00                17665 	.db #0x00
   4320 00                17666 	.db #0x00
   4321 00                17667 	.db #0x00
   4322 00                17668 	.db #0x00
   4323 00                17669 	.db #0x00
   4324 00                17670 	.db #0x00
   4325 00                17671 	.db #0x00
   4326 00                17672 	.db #0x00
   4327 00                17673 	.db #0x00
   4328 01                17674 	.db #0x01
   4329 02                17675 	.db #0x02
   432A 03                17676 	.db #0x03
   432B 00                17677 	.db #0x00
   432C 04                17678 	.db #0x04
   432D 05                17679 	.db #0x05
   432E 06                17680 	.db #0x06
   432F 07                17681 	.db #0x07
   4330 08                17682 	.db #0x08
   4331 00                17683 	.db #0x00
   4332 09                17684 	.db #0x09
   4333 00                17685 	.db #0x00
   4334 00                17686 	.db #0x00
   4335 00                17687 	.db #0x00
   4336 00                17688 	.db #0x00
   4337 00                17689 	.db #0x00
   4338 00                17690 	.db #0x00
   4339 00                17691 	.db #0x00
   433A 0A                17692 	.db #0x0A
   433B 0B                17693 	.db #0x0B
   433C 0C                17694 	.db #0x0C
   433D 0D                17695 	.db #0x0D
   433E 0E                17696 	.db #0x0E
   433F 0F                17697 	.db #0x0F
   4340 10                17698 	.db #0x10
   4341 11                17699 	.db #0x11
   4342 12                17700 	.db #0x12
   4343 13                17701 	.db #0x13
   4344 14                17702 	.db #0x14
   4345 15                17703 	.db #0x15
   4346 16                17704 	.db #0x16
   4347 00                17705 	.db #0x00
   4348 00                17706 	.db #0x00
   4349 00                17707 	.db #0x00
   434A 00                17708 	.db #0x00
   434B 00                17709 	.db #0x00
   434C 00                17710 	.db #0x00
   434D 00                17711 	.db #0x00
   434E 17                17712 	.db #0x17
   434F 18                17713 	.db #0x18
   4350 19                17714 	.db #0x19
   4351 1A                17715 	.db #0x1A
   4352 1B                17716 	.db #0x1B
   4353 1C                17717 	.db #0x1C
   4354 1D                17718 	.db #0x1D
   4355 1E                17719 	.db #0x1E
   4356 1F                17720 	.db #0x1F
   4357 20                17721 	.db #0x20
   4358 21                17722 	.db #0x21
   4359 22                17723 	.db #0x22
   435A 23                17724 	.db #0x23
   435B 00                17725 	.db #0x00
   435C 00                17726 	.db #0x00
   435D 00                17727 	.db #0x00
   435E 00                17728 	.db #0x00
   435F 00                17729 	.db #0x00
   4360 00                17730 	.db #0x00
   4361 00                17731 	.db #0x00
   4362 00                17732 	.db #0x00
   4363 00                17733 	.db #0x00
   4364 24                17734 	.db #0x24
   4365 25                17735 	.db #0x25
   4366 26                17736 	.db #0x26
   4367 27                17737 	.db #0x27
   4368 28                17738 	.db #0x28
   4369 29                17739 	.db #0x29
   436A 2A                17740 	.db #0x2A
   436B 2B                17741 	.db #0x2B
   436C 2C                17742 	.db #0x2C
   436D 2D                17743 	.db #0x2D
   436E 2E                17744 	.db #0x2E
   436F 00                17745 	.db #0x00
   4370 00                17746 	.db #0x00
   4371 00                17747 	.db #0x00
   4372 00                17748 	.db #0x00
   4373 00                17749 	.db #0x00
   4374 00                17750 	.db #0x00
   4375 00                17751 	.db #0x00
   4376 00                17752 	.db #0x00
   4377 00                17753 	.db #0x00
   4378 2F                17754 	.db #0x2F
   4379 30                17755 	.db #0x30
   437A 31                17756 	.db #0x31
   437B 32                17757 	.db #0x32
   437C 33                17758 	.db #0x33
   437D 34                17759 	.db #0x34
   437E 35                17760 	.db #0x35
   437F 36                17761 	.db #0x36
   4380 37                17762 	.db #0x37
   4381 38                17763 	.db #0x38
   4382 00                17764 	.db #0x00
   4383 00                17765 	.db #0x00
   4384 00                17766 	.db #0x00
   4385 00                17767 	.db #0x00
   4386 00                17768 	.db #0x00
   4387 00                17769 	.db #0x00
   4388 00                17770 	.db #0x00
   4389 00                17771 	.db #0x00
   438A 00                17772 	.db #0x00
   438B 00                17773 	.db #0x00
   438C 39                17774 	.db #0x39
   438D 3A                17775 	.db #0x3A
   438E 3B                17776 	.db #0x3B
   438F 3C                17777 	.db #0x3C
   4390 3D                17778 	.db #0x3D
   4391 3E                17779 	.db #0x3E
   4392 3F                17780 	.db #0x3F
   4393 40                17781 	.db #0x40
   4394 41                17782 	.db #0x41
   4395 42                17783 	.db #0x42
   4396 00                17784 	.db #0x00
   4397 00                17785 	.db #0x00
   4398 00                17786 	.db #0x00
   4399 00                17787 	.db #0x00
   439A 00                17788 	.db #0x00
   439B 00                17789 	.db #0x00
   439C 00                17790 	.db #0x00
   439D 00                17791 	.db #0x00
   439E 00                17792 	.db #0x00
   439F 00                17793 	.db #0x00
   43A0 00                17794 	.db #0x00
   43A1 43                17795 	.db #0x43
   43A2 44                17796 	.db #0x44
   43A3 45                17797 	.db #0x45
   43A4 46                17798 	.db #0x46
   43A5 47                17799 	.db #0x47
   43A6 48                17800 	.db #0x48
   43A7 49                17801 	.db #0x49
   43A8 4A                17802 	.db #0x4A
   43A9 4B                17803 	.db #0x4B
   43AA 00                17804 	.db #0x00
   43AB 00                17805 	.db #0x00
   43AC 00                17806 	.db #0x00
   43AD 00                17807 	.db #0x00
   43AE 00                17808 	.db #0x00
   43AF 00                17809 	.db #0x00
   43B0 00                17810 	.db #0x00
   43B1 00                17811 	.db #0x00
   43B2 00                17812 	.db #0x00
   43B3 00                17813 	.db #0x00
   43B4 00                17814 	.db #0x00
   43B5 4C                17815 	.db #0x4C
   43B6 44                17816 	.db #0x44
   43B7 4D                17817 	.db #0x4D
   43B8 4E                17818 	.db #0x4E
   43B9 4F                17819 	.db #0x4F
   43BA 50                17820 	.db #0x50
   43BB 51                17821 	.db #0x51
   43BC 52                17822 	.db #0x52
   43BD 00                17823 	.db #0x00
   43BE 00                17824 	.db #0x00
   43BF 00                17825 	.db #0x00
   43C0 00                17826 	.db #0x00
   43C1 00                17827 	.db #0x00
   43C2 00                17828 	.db #0x00
   43C3 00                17829 	.db #0x00
   43C4 00                17830 	.db #0x00
   43C5 00                17831 	.db #0x00
   43C6 00                17832 	.db #0x00
   43C7 00                17833 	.db #0x00
   43C8 00                17834 	.db #0x00
   43C9 53                17835 	.db #0x53
   43CA 54                17836 	.db #0x54
   43CB 55                17837 	.db #0x55
   43CC 56                17838 	.db #0x56
   43CD 57                17839 	.db #0x57
   43CE 58                17840 	.db #0x58
   43CF 59                17841 	.db #0x59
   43D0 5A                17842 	.db #0x5A
   43D1 5B                17843 	.db #0x5B
   43D2 00                17844 	.db #0x00
   43D3 00                17845 	.db #0x00
   43D4 00                17846 	.db #0x00
   43D5 00                17847 	.db #0x00
   43D6 00                17848 	.db #0x00
   43D7 00                17849 	.db #0x00
   43D8 00                17850 	.db #0x00
   43D9 00                17851 	.db #0x00
   43DA 00                17852 	.db #0x00
   43DB 00                17853 	.db #0x00
   43DC 5C                17854 	.db #0x5C
   43DD 5D                17855 	.db #0x5D
   43DE 5E                17856 	.db #0x5E
   43DF 5F                17857 	.db #0x5F
   43E0 60                17858 	.db #0x60
   43E1 61                17859 	.db #0x61
   43E2 44                17860 	.db #0x44
   43E3 44                17861 	.db #0x44
   43E4 62                17862 	.db #0x62
   43E5 63                17863 	.db #0x63
   43E6 64                17864 	.db #0x64
   43E7 00                17865 	.db #0x00
   43E8 00                17866 	.db #0x00
   43E9 00                17867 	.db #0x00
   43EA 00                17868 	.db #0x00
   43EB 00                17869 	.db #0x00
   43EC 00                17870 	.db #0x00
   43ED 00                17871 	.db #0x00
   43EE 00                17872 	.db #0x00
   43EF 00                17873 	.db #0x00
   43F0 65                17874 	.db #0x65
   43F1 66                17875 	.db #0x66
   43F2 67                17876 	.db #0x67
   43F3 68                17877 	.db #0x68
   43F4 69                17878 	.db #0x69
   43F5 6A                17879 	.db #0x6A
   43F6 6B                17880 	.db #0x6B
   43F7 6C                17881 	.db #0x6C
   43F8 6D                17882 	.db #0x6D
   43F9 6E                17883 	.db #0x6E
   43FA 6F                17884 	.db #0x6F
   43FB 00                17885 	.db #0x00
   43FC 00                17886 	.db #0x00
   43FD 00                17887 	.db #0x00
   43FE 00                17888 	.db #0x00
   43FF 00                17889 	.db #0x00
   4400 00                17890 	.db #0x00
   4401 00                17891 	.db #0x00
   4402 70                17892 	.db #0x70
   4403 71                17893 	.db #0x71
   4404 72                17894 	.db #0x72
   4405 73                17895 	.db #0x73
   4406 74                17896 	.db #0x74
   4407 75                17897 	.db #0x75
   4408 76                17898 	.db #0x76
   4409 77                17899 	.db #0x77
   440A 78                17900 	.db #0x78
   440B 79                17901 	.db #0x79
   440C 00                17902 	.db #0x00
   440D 00                17903 	.db #0x00
   440E 00                17904 	.db #0x00
   440F 00                17905 	.db #0x00
   4410 00                17906 	.db #0x00
   4411 00                17907 	.db #0x00
   4412 00                17908 	.db #0x00
   4413 00                17909 	.db #0x00
   4414 00                17910 	.db #0x00
   4415 00                17911 	.db #0x00
   4416 7A                17912 	.db #0x7A
   4417 7A                17913 	.db #0x7A
   4418 7A                17914 	.db #0x7A
   4419 7A                17915 	.db #0x7A
   441A 7B                17916 	.db #0x7B
   441B 7C                17917 	.db #0x7C
   441C 7D                17918 	.db #0x7D
   441D 7A                17919 	.db #0x7A
   441E 7A                17920 	.db #0x7A
   441F 7A                17921 	.db #0x7A
   4420 7E                17922 	.db #0x7E
   4421 00                17923 	.db #0x00
   4422 00                17924 	.db #0x00
   4423 00                17925 	.db #0x00
   4424 00                17926 	.db #0x00
   4425 00                17927 	.db #0x00
   4426 00                17928 	.db #0x00
   4427 00                17929 	.db #0x00
   4428 00                17930 	.db #0x00
   4429 7F                17931 	.db #0x7F
   442A 7A                17932 	.db #0x7A
   442B 7A                17933 	.db #0x7A
   442C 7A                17934 	.db #0x7A
   442D 7A                17935 	.db #0x7A
   442E 7A                17936 	.db #0x7A
   442F 80                17937 	.db #0x80
   4430 81                17938 	.db #0x81
   4431 7A                17939 	.db #0x7A
   4432 7A                17940 	.db #0x7A
   4433 7A                17941 	.db #0x7A
   4434 82                17942 	.db #0x82
   4435 83                17943 	.db #0x83
   4436 00                17944 	.db #0x00
   4437 00                17945 	.db #0x00
   4438 00                17946 	.db #0x00
   4439 00                17947 	.db #0x00
   443A 00                17948 	.db #0x00
   443B 00                17949 	.db #0x00
   443C 00                17950 	.db #0x00
   443D 84                17951 	.db #0x84
   443E 7A                17952 	.db #0x7A
   443F 7A                17953 	.db #0x7A
   4440 7A                17954 	.db #0x7A
   4441 7A                17955 	.db #0x7A
   4442 7A                17956 	.db #0x7A
   4443 7A                17957 	.db #0x7A
   4444 7A                17958 	.db #0x7A
   4445 7A                17959 	.db #0x7A
   4446 7A                17960 	.db #0x7A
   4447 7A                17961 	.db #0x7A
   4448 7A                17962 	.db #0x7A
   4449 85                17963 	.db #0x85
   444A 00                17964 	.db #0x00
   444B 00                17965 	.db #0x00
   444C 00                17966 	.db #0x00
   444D 00                17967 	.db #0x00
   444E 00                17968 	.db #0x00
   444F 00                17969 	.db #0x00
   4450 00                17970 	.db #0x00
   4451 86                17971 	.db #0x86
   4452 7A                17972 	.db #0x7A
   4453 7A                17973 	.db #0x7A
   4454 7A                17974 	.db #0x7A
   4455 7A                17975 	.db #0x7A
   4456 7A                17976 	.db #0x7A
   4457 7A                17977 	.db #0x7A
   4458 7A                17978 	.db #0x7A
   4459 7A                17979 	.db #0x7A
   445A 7A                17980 	.db #0x7A
   445B 7A                17981 	.db #0x7A
   445C 7A                17982 	.db #0x7A
   445D 87                17983 	.db #0x87
   445E 00                17984 	.db #0x00
   445F 00                17985 	.db #0x00
   4460 00                17986 	.db #0x00
   4461 00                17987 	.db #0x00
   4462 00                17988 	.db #0x00
   4463                   17989 _devil_normal_data:
   4463 00                17990 	.db #0x00
   4464 00                17991 	.db #0x00
   4465 00                17992 	.db #0x00
   4466 00                17993 	.db #0x00
   4467 00                17994 	.db #0x00
   4468 00                17995 	.db #0x00
   4469 00                17996 	.db #0x00
   446A 00                17997 	.db #0x00
   446B 00                17998 	.db #0x00
   446C 00                17999 	.db #0x00
   446D 00                18000 	.db #0x00
   446E 00                18001 	.db #0x00
   446F 00                18002 	.db #0x00
   4470 00                18003 	.db #0x00
   4471 00                18004 	.db #0x00
   4472 00                18005 	.db #0x00
   4473 00                18006 	.db #0x00
   4474 00                18007 	.db #0x00
   4475 00                18008 	.db #0x00
   4476 00                18009 	.db #0x00
   4477 00                18010 	.db #0x00
   4478 00                18011 	.db #0x00
   4479 00                18012 	.db #0x00
   447A 00                18013 	.db #0x00
   447B 00                18014 	.db #0x00
   447C 00                18015 	.db #0x00
   447D 00                18016 	.db #0x00
   447E 00                18017 	.db #0x00
   447F 00                18018 	.db #0x00
   4480 00                18019 	.db #0x00
   4481 30                18020 	.db #0x30
   4482 30                18021 	.db #0x30
   4483 00                18022 	.db #0x00
   4484 00                18023 	.db #0x00
   4485 00                18024 	.db #0x00
   4486 00                18025 	.db #0x00
   4487 00                18026 	.db #0x00
   4488 00                18027 	.db #0x00
   4489 01                18028 	.db #0x01
   448A 01                18029 	.db #0x01
   448B 03                18030 	.db #0x03
   448C 03                18031 	.db #0x03
   448D 03                18032 	.db #0x03
   448E 03                18033 	.db #0x03
   448F 02                18034 	.db #0x02
   4490 02                18035 	.db #0x02
   4491 06                18036 	.db #0x06
   4492 06                18037 	.db #0x06
   4493 00                18038 	.db #0x00
   4494 00                18039 	.db #0x00
   4495 00                18040 	.db #0x00
   4496 00                18041 	.db #0x00
   4497 C0                18042 	.db #0xC0
   4498 C0                18043 	.db #0xC0
   4499 A0                18044 	.db #0xA0
   449A A0                18045 	.db #0xA0
   449B 10                18046 	.db #0x10
   449C 10                18047 	.db #0x10
   449D 10                18048 	.db #0x10
   449E 10                18049 	.db #0x10
   449F 10                18050 	.db #0x10
   44A0 10                18051 	.db #0x10
   44A1 18                18052 	.db #0x18
   44A2 18                18053 	.db #0x18
   44A3 00                18054 	.db #0x00
   44A4 00                18055 	.db #0x00
   44A5 00                18056 	.db #0x00
   44A6 00                18057 	.db #0x00
   44A7 00                18058 	.db #0x00
   44A8 00                18059 	.db #0x00
   44A9 00                18060 	.db #0x00
   44AA 00                18061 	.db #0x00
   44AB 01                18062 	.db #0x01
   44AC 01                18063 	.db #0x01
   44AD 01                18064 	.db #0x01
   44AE 01                18065 	.db #0x01
   44AF 01                18066 	.db #0x01
   44B0 01                18067 	.db #0x01
   44B1 01                18068 	.db #0x01
   44B2 01                18069 	.db #0x01
   44B3 48                18070 	.db #0x48
   44B4 48                18071 	.db #0x48
   44B5 44                18072 	.db #0x44
   44B6 44                18073 	.db #0x44
   44B7 84                18074 	.db #0x84
   44B8 84                18075 	.db #0x84
   44B9 86                18076 	.db #0x86
   44BA 86                18077 	.db #0x86
   44BB 83                18078 	.db #0x83
   44BC 83                18079 	.db #0x83
   44BD 01                18080 	.db #0x01
   44BE 01                18081 	.db #0x01
   44BF 00                18082 	.db #0x00
   44C0 00                18083 	.db #0x00
   44C1 00                18084 	.db #0x00
   44C2 00                18085 	.db #0x00
   44C3 00                18086 	.db #0x00
   44C4 00                18087 	.db #0x00
   44C5 00                18088 	.db #0x00
   44C6 00                18089 	.db #0x00
   44C7 00                18090 	.db #0x00
   44C8 00                18091 	.db #0x00
   44C9 00                18092 	.db #0x00
   44CA 00                18093 	.db #0x00
   44CB 00                18094 	.db #0x00
   44CC 00                18095 	.db #0x00
   44CD 80                18096 	.db #0x80
   44CE 80                18097 	.db #0x80
   44CF 80                18098 	.db #0x80
   44D0 80                18099 	.db #0x80
   44D1 C0                18100 	.db #0xC0
   44D2 C0                18101 	.db #0xC0
   44D3 00                18102 	.db #0x00
   44D4 00                18103 	.db #0x00
   44D5 00                18104 	.db #0x00
   44D6 00                18105 	.db #0x00
   44D7 00                18106 	.db #0x00
   44D8 00                18107 	.db #0x00
   44D9 00                18108 	.db #0x00
   44DA 00                18109 	.db #0x00
   44DB 00                18110 	.db #0x00
   44DC 00                18111 	.db #0x00
   44DD 00                18112 	.db #0x00
   44DE 00                18113 	.db #0x00
   44DF 00                18114 	.db #0x00
   44E0 00                18115 	.db #0x00
   44E1 FF                18116 	.db #0xFF
   44E2 FF                18117 	.db #0xFF
   44E3 00                18118 	.db #0x00
   44E4 00                18119 	.db #0x00
   44E5 00                18120 	.db #0x00
   44E6 00                18121 	.db #0x00
   44E7 00                18122 	.db #0x00
   44E8 00                18123 	.db #0x00
   44E9 00                18124 	.db #0x00
   44EA 00                18125 	.db #0x00
   44EB 00                18126 	.db #0x00
   44EC 00                18127 	.db #0x00
   44ED 00                18128 	.db #0x00
   44EE 00                18129 	.db #0x00
   44EF 00                18130 	.db #0x00
   44F0 00                18131 	.db #0x00
   44F1 FE                18132 	.db #0xFE
   44F2 FE                18133 	.db #0xFE
   44F3 00                18134 	.db #0x00
   44F4 00                18135 	.db #0x00
   44F5 00                18136 	.db #0x00
   44F6 00                18137 	.db #0x00
   44F7 00                18138 	.db #0x00
   44F8 00                18139 	.db #0x00
   44F9 00                18140 	.db #0x00
   44FA 00                18141 	.db #0x00
   44FB 00                18142 	.db #0x00
   44FC 00                18143 	.db #0x00
   44FD 00                18144 	.db #0x00
   44FE 00                18145 	.db #0x00
   44FF 01                18146 	.db #0x01
   4500 01                18147 	.db #0x01
   4501 03                18148 	.db #0x03
   4502 03                18149 	.db #0x03
   4503 04                18150 	.db #0x04
   4504 04                18151 	.db #0x04
   4505 08                18152 	.db #0x08
   4506 08                18153 	.db #0x08
   4507 18                18154 	.db #0x18
   4508 18                18155 	.db #0x18
   4509 30                18156 	.db #0x30
   450A 30                18157 	.db #0x30
   450B 60                18158 	.db #0x60
   450C 60                18159 	.db #0x60
   450D C0                18160 	.db #0xC0
   450E C0                18161 	.db #0xC0
   450F 80                18162 	.db #0x80
   4510 80                18163 	.db #0x80
   4511 00                18164 	.db #0x00
   4512 00                18165 	.db #0x00
   4513 08                18166 	.db #0x08
   4514 08                18167 	.db #0x08
   4515 08                18168 	.db #0x08
   4516 08                18169 	.db #0x08
   4517 08                18170 	.db #0x08
   4518 08                18171 	.db #0x08
   4519 08                18172 	.db #0x08
   451A 08                18173 	.db #0x08
   451B 08                18174 	.db #0x08
   451C 08                18175 	.db #0x08
   451D 08                18176 	.db #0x08
   451E 08                18177 	.db #0x08
   451F 18                18178 	.db #0x18
   4520 18                18179 	.db #0x18
   4521 10                18180 	.db #0x10
   4522 10                18181 	.db #0x10
   4523 01                18182 	.db #0x01
   4524 01                18183 	.db #0x01
   4525 01                18184 	.db #0x01
   4526 01                18185 	.db #0x01
   4527 01                18186 	.db #0x01
   4528 01                18187 	.db #0x01
   4529 01                18188 	.db #0x01
   452A 01                18189 	.db #0x01
   452B 00                18190 	.db #0x00
   452C 00                18191 	.db #0x00
   452D 00                18192 	.db #0x00
   452E 00                18193 	.db #0x00
   452F 00                18194 	.db #0x00
   4530 00                18195 	.db #0x00
   4531 00                18196 	.db #0x00
   4532 00                18197 	.db #0x00
   4533 00                18198 	.db #0x00
   4534 00                18199 	.db #0x00
   4535 00                18200 	.db #0x00
   4536 00                18201 	.db #0x00
   4537 00                18202 	.db #0x00
   4538 00                18203 	.db #0x00
   4539 80                18204 	.db #0x80
   453A 80                18205 	.db #0x80
   453B 80                18206 	.db #0x80
   453C 80                18207 	.db #0x80
   453D 80                18208 	.db #0x80
   453E 80                18209 	.db #0x80
   453F 80                18210 	.db #0x80
   4540 80                18211 	.db #0x80
   4541 80                18212 	.db #0x80
   4542 80                18213 	.db #0x80
   4543 60                18214 	.db #0x60
   4544 60                18215 	.db #0x60
   4545 31                18216 	.db #0x31
   4546 31                18217 	.db #0x31
   4547 1F                18218 	.db #0x1F
   4548 1F                18219 	.db #0x1F
   4549 07                18220 	.db #0x07
   454A 06                18221 	.db #0x06
   454B 03                18222 	.db #0x03
   454C 03                18223 	.db #0x03
   454D 01                18224 	.db #0x01
   454E 01                18225 	.db #0x01
   454F 01                18226 	.db #0x01
   4550 01                18227 	.db #0x01
   4551 00                18228 	.db #0x00
   4552 00                18229 	.db #0x00
   4553 07                18230 	.db #0x07
   4554 07                18231 	.db #0x07
   4555 FF                18232 	.db #0xFF
   4556 FC                18233 	.db #0xFC
   4557 FF                18234 	.db #0xFF
   4558 00                18235 	.db #0x00
   4559 FF                18236 	.db #0xFF
   455A 00                18237 	.db #0x00
   455B FF                18238 	.db #0xFF
   455C 00                18239 	.db #0x00
   455D FF                18240 	.db #0xFF
   455E 00                18241 	.db #0x00
   455F FF                18242 	.db #0xFF
   4560 80                18243 	.db #0x80
   4561 FF                18244 	.db #0xFF
   4562 80                18245 	.db #0x80
   4563 FF                18246 	.db #0xFF
   4564 80                18247 	.db #0x80
   4565 FF                18248 	.db #0xFF
   4566 00                18249 	.db #0x00
   4567 FF                18250 	.db #0xFF
   4568 00                18251 	.db #0x00
   4569 FF                18252 	.db #0xFF
   456A 00                18253 	.db #0x00
   456B FF                18254 	.db #0xFF
   456C 00                18255 	.db #0x00
   456D FF                18256 	.db #0xFF
   456E 00                18257 	.db #0x00
   456F FF                18258 	.db #0xFF
   4570 00                18259 	.db #0x00
   4571 FF                18260 	.db #0xFF
   4572 00                18261 	.db #0x00
   4573 FF                18262 	.db #0xFF
   4574 01                18263 	.db #0x01
   4575 FF                18264 	.db #0xFF
   4576 00                18265 	.db #0x00
   4577 FF                18266 	.db #0xFF
   4578 00                18267 	.db #0x00
   4579 FF                18268 	.db #0xFF
   457A 00                18269 	.db #0x00
   457B FF                18270 	.db #0xFF
   457C 00                18271 	.db #0x00
   457D FF                18272 	.db #0xFF
   457E 00                18273 	.db #0x00
   457F FF                18274 	.db #0xFF
   4580 00                18275 	.db #0x00
   4581 FF                18276 	.db #0xFF
   4582 00                18277 	.db #0x00
   4583 CE                18278 	.db #0xCE
   4584 CE                18279 	.db #0xCE
   4585 FF                18280 	.db #0xFF
   4586 7F                18281 	.db #0x7F
   4587 FF                18282 	.db #0xFF
   4588 00                18283 	.db #0x00
   4589 FF                18284 	.db #0xFF
   458A 00                18285 	.db #0x00
   458B FF                18286 	.db #0xFF
   458C 00                18287 	.db #0x00
   458D FF                18288 	.db #0xFF
   458E 00                18289 	.db #0x00
   458F FF                18290 	.db #0xFF
   4590 00                18291 	.db #0x00
   4591 FF                18292 	.db #0xFF
   4592 00                18293 	.db #0x00
   4593 00                18294 	.db #0x00
   4594 00                18295 	.db #0x00
   4595 00                18296 	.db #0x00
   4596 00                18297 	.db #0x00
   4597 FF                18298 	.db #0xFF
   4598 FF                18299 	.db #0xFF
   4599 FF                18300 	.db #0xFF
   459A 00                18301 	.db #0x00
   459B FF                18302 	.db #0xFF
   459C 00                18303 	.db #0x00
   459D FF                18304 	.db #0xFF
   459E 00                18305 	.db #0x00
   459F FF                18306 	.db #0xFF
   45A0 00                18307 	.db #0x00
   45A1 FF                18308 	.db #0xFF
   45A2 00                18309 	.db #0x00
   45A3 30                18310 	.db #0x30
   45A4 30                18311 	.db #0x30
   45A5 20                18312 	.db #0x20
   45A6 20                18313 	.db #0x20
   45A7 E0                18314 	.db #0xE0
   45A8 E0                18315 	.db #0xE0
   45A9 F0                18316 	.db #0xF0
   45AA 70                18317 	.db #0x70
   45AB FF                18318 	.db #0xFF
   45AC 0F                18319 	.db #0x0F
   45AD FF                18320 	.db #0xFF
   45AE 00                18321 	.db #0x00
   45AF FF                18322 	.db #0xFF
   45B0 00                18323 	.db #0x00
   45B1 FF                18324 	.db #0xFF
   45B2 00                18325 	.db #0x00
   45B3 00                18326 	.db #0x00
   45B4 00                18327 	.db #0x00
   45B5 00                18328 	.db #0x00
   45B6 00                18329 	.db #0x00
   45B7 00                18330 	.db #0x00
   45B8 00                18331 	.db #0x00
   45B9 00                18332 	.db #0x00
   45BA 00                18333 	.db #0x00
   45BB C0                18334 	.db #0xC0
   45BC C0                18335 	.db #0xC0
   45BD F8                18336 	.db #0xF8
   45BE 38                18337 	.db #0x38
   45BF FC                18338 	.db #0xFC
   45C0 04                18339 	.db #0x04
   45C1 FE                18340 	.db #0xFE
   45C2 06                18341 	.db #0x06
   45C3 00                18342 	.db #0x00
   45C4 00                18343 	.db #0x00
   45C5 00                18344 	.db #0x00
   45C6 00                18345 	.db #0x00
   45C7 00                18346 	.db #0x00
   45C8 00                18347 	.db #0x00
   45C9 00                18348 	.db #0x00
   45CA 00                18349 	.db #0x00
   45CB 00                18350 	.db #0x00
   45CC 00                18351 	.db #0x00
   45CD 60                18352 	.db #0x60
   45CE 60                18353 	.db #0x60
   45CF 70                18354 	.db #0x70
   45D0 70                18355 	.db #0x70
   45D1 78                18356 	.db #0x78
   45D2 58                18357 	.db #0x58
   45D3 C0                18358 	.db #0xC0
   45D4 C0                18359 	.db #0xC0
   45D5 40                18360 	.db #0x40
   45D6 40                18361 	.db #0x40
   45D7 40                18362 	.db #0x40
   45D8 40                18363 	.db #0x40
   45D9 70                18364 	.db #0x70
   45DA 70                18365 	.db #0x70
   45DB 7F                18366 	.db #0x7F
   45DC 5F                18367 	.db #0x5F
   45DD 7F                18368 	.db #0x7F
   45DE 40                18369 	.db #0x40
   45DF 7F                18370 	.db #0x7F
   45E0 40                18371 	.db #0x40
   45E1 7F                18372 	.db #0x7F
   45E2 47                18373 	.db #0x47
   45E3 00                18374 	.db #0x00
   45E4 00                18375 	.db #0x00
   45E5 01                18376 	.db #0x01
   45E6 01                18377 	.db #0x01
   45E7 03                18378 	.db #0x03
   45E8 03                18379 	.db #0x03
   45E9 0F                18380 	.db #0x0F
   45EA 0E                18381 	.db #0x0E
   45EB FF                18382 	.db #0xFF
   45EC FD                18383 	.db #0xFD
   45ED FF                18384 	.db #0xFF
   45EE 03                18385 	.db #0x03
   45EF FF                18386 	.db #0xFF
   45F0 0E                18387 	.db #0x0E
   45F1 FF                18388 	.db #0xFF
   45F2 F8                18389 	.db #0xF8
   45F3 FF                18390 	.db #0xFF
   45F4 80                18391 	.db #0x80
   45F5 FF                18392 	.db #0xFF
   45F6 00                18393 	.db #0x00
   45F7 FF                18394 	.db #0xFF
   45F8 00                18395 	.db #0x00
   45F9 FF                18396 	.db #0xFF
   45FA 80                18397 	.db #0x80
   45FB FF                18398 	.db #0xFF
   45FC 80                18399 	.db #0x80
   45FD FF                18400 	.db #0xFF
   45FE 00                18401 	.db #0x00
   45FF FF                18402 	.db #0xFF
   4600 00                18403 	.db #0x00
   4601 FF                18404 	.db #0xFF
   4602 00                18405 	.db #0x00
   4603 FF                18406 	.db #0xFF
   4604 00                18407 	.db #0x00
   4605 FF                18408 	.db #0xFF
   4606 00                18409 	.db #0x00
   4607 FF                18410 	.db #0xFF
   4608 00                18411 	.db #0x00
   4609 FF                18412 	.db #0xFF
   460A 00                18413 	.db #0x00
   460B FF                18414 	.db #0xFF
   460C 80                18415 	.db #0x80
   460D FF                18416 	.db #0xFF
   460E C0                18417 	.db #0xC0
   460F FF                18418 	.db #0xFF
   4610 C0                18419 	.db #0xC0
   4611 FF                18420 	.db #0xFF
   4612 F8                18421 	.db #0xF8
   4613 FF                18422 	.db #0xFF
   4614 00                18423 	.db #0x00
   4615 FF                18424 	.db #0xFF
   4616 00                18425 	.db #0x00
   4617 FF                18426 	.db #0xFF
   4618 00                18427 	.db #0x00
   4619 FF                18428 	.db #0xFF
   461A 00                18429 	.db #0x00
   461B FF                18430 	.db #0xFF
   461C 00                18431 	.db #0x00
   461D FF                18432 	.db #0xFF
   461E 00                18433 	.db #0x00
   461F FF                18434 	.db #0xFF
   4620 00                18435 	.db #0x00
   4621 FF                18436 	.db #0xFF
   4622 00                18437 	.db #0x00
   4623 FF                18438 	.db #0xFF
   4624 00                18439 	.db #0x00
   4625 FF                18440 	.db #0xFF
   4626 00                18441 	.db #0x00
   4627 FF                18442 	.db #0xFF
   4628 00                18443 	.db #0x00
   4629 FF                18444 	.db #0xFF
   462A 00                18445 	.db #0x00
   462B FF                18446 	.db #0xFF
   462C 00                18447 	.db #0x00
   462D FF                18448 	.db #0xFF
   462E 00                18449 	.db #0x00
   462F FF                18450 	.db #0xFF
   4630 60                18451 	.db #0x60
   4631 FF                18452 	.db #0xFF
   4632 60                18453 	.db #0x60
   4633 FF                18454 	.db #0xFF
   4634 00                18455 	.db #0x00
   4635 FF                18456 	.db #0xFF
   4636 00                18457 	.db #0x00
   4637 FF                18458 	.db #0xFF
   4638 00                18459 	.db #0x00
   4639 FF                18460 	.db #0xFF
   463A 00                18461 	.db #0x00
   463B FF                18462 	.db #0xFF
   463C 00                18463 	.db #0x00
   463D FF                18464 	.db #0xFF
   463E 60                18465 	.db #0x60
   463F FF                18466 	.db #0xFF
   4640 E7                18467 	.db #0xE7
   4641 FF                18468 	.db #0xFF
   4642 EF                18469 	.db #0xEF
   4643 FF                18470 	.db #0xFF
   4644 03                18471 	.db #0x03
   4645 FF                18472 	.db #0xFF
   4646 03                18473 	.db #0x03
   4647 FF                18474 	.db #0xFF
   4648 01                18475 	.db #0x01
   4649 FF                18476 	.db #0xFF
   464A 01                18477 	.db #0x01
   464B FF                18478 	.db #0xFF
   464C 0F                18479 	.db #0x0F
   464D FF                18480 	.db #0xFF
   464E FF                18481 	.db #0xFF
   464F FF                18482 	.db #0xFF
   4650 FD                18483 	.db #0xFD
   4651 FF                18484 	.db #0xFF
   4652 C1                18485 	.db #0xC1
   4653 38                18486 	.db #0x38
   4654 38                18487 	.db #0x38
   4655 9C                18488 	.db #0x9C
   4656 9C                18489 	.db #0x9C
   4657 9C                18490 	.db #0x9C
   4658 9C                18491 	.db #0x9C
   4659 BC                18492 	.db #0xBC
   465A BC                18493 	.db #0xBC
   465B FC                18494 	.db #0xFC
   465C FC                18495 	.db #0xFC
   465D F0                18496 	.db #0xF0
   465E F0                18497 	.db #0xF0
   465F 80                18498 	.db #0x80
   4660 80                18499 	.db #0x80
   4661 80                18500 	.db #0x80
   4662 80                18501 	.db #0x80
   4663 7C                18502 	.db #0x7C
   4664 4C                18503 	.db #0x4C
   4665 7F                18504 	.db #0x7F
   4666 47                18505 	.db #0x47
   4667 7F                18506 	.db #0x7F
   4668 41                18507 	.db #0x41
   4669 7F                18508 	.db #0x7F
   466A 40                18509 	.db #0x40
   466B 7F                18510 	.db #0x7F
   466C 63                18511 	.db #0x63
   466D 7F                18512 	.db #0x7F
   466E 63                18513 	.db #0x63
   466F 3F                18514 	.db #0x3F
   4670 21                18515 	.db #0x21
   4671 3F                18516 	.db #0x3F
   4672 21                18517 	.db #0x21
   4673 7F                18518 	.db #0x7F
   4674 40                18519 	.db #0x40
   4675 7F                18520 	.db #0x7F
   4676 40                18521 	.db #0x40
   4677 FF                18522 	.db #0xFF
   4678 C0                18523 	.db #0xC0
   4679 FF                18524 	.db #0xFF
   467A E0                18525 	.db #0xE0
   467B FF                18526 	.db #0xFF
   467C 30                18527 	.db #0x30
   467D FF                18528 	.db #0xFF
   467E 8C                18529 	.db #0x8C
   467F FF                18530 	.db #0xFF
   4680 C7                18531 	.db #0xC7
   4681 FF                18532 	.db #0xFF
   4682 61                18533 	.db #0x61
   4683 FF                18534 	.db #0xFF
   4684 00                18535 	.db #0x00
   4685 FF                18536 	.db #0xFF
   4686 00                18537 	.db #0x00
   4687 FF                18538 	.db #0xFF
   4688 00                18539 	.db #0x00
   4689 FF                18540 	.db #0xFF
   468A 00                18541 	.db #0x00
   468B FF                18542 	.db #0xFF
   468C 00                18543 	.db #0x00
   468D FF                18544 	.db #0xFF
   468E 00                18545 	.db #0x00
   468F FF                18546 	.db #0xFF
   4690 00                18547 	.db #0x00
   4691 FF                18548 	.db #0xFF
   4692 80                18549 	.db #0x80
   4693 FF                18550 	.db #0xFF
   4694 00                18551 	.db #0x00
   4695 FF                18552 	.db #0xFF
   4696 C0                18553 	.db #0xC0
   4697 FF                18554 	.db #0xFF
   4698 E0                18555 	.db #0xE0
   4699 FF                18556 	.db #0xFF
   469A F0                18557 	.db #0xF0
   469B FF                18558 	.db #0xFF
   469C 7C                18559 	.db #0x7C
   469D FF                18560 	.db #0xFF
   469E 3F                18561 	.db #0x3F
   469F FF                18562 	.db #0xFF
   46A0 0F                18563 	.db #0x0F
   46A1 FF                18564 	.db #0xFF
   46A2 01                18565 	.db #0x01
   46A3 FF                18566 	.db #0xFF
   46A4 7F                18567 	.db #0x7F
   46A5 FF                18568 	.db #0xFF
   46A6 1F                18569 	.db #0x1F
   46A7 FF                18570 	.db #0xFF
   46A8 03                18571 	.db #0x03
   46A9 FF                18572 	.db #0xFF
   46AA 00                18573 	.db #0x00
   46AB FF                18574 	.db #0xFF
   46AC 00                18575 	.db #0x00
   46AD FF                18576 	.db #0xFF
   46AE 80                18577 	.db #0x80
   46AF FF                18578 	.db #0xFF
   46B0 FF                18579 	.db #0xFF
   46B1 FF                18580 	.db #0xFF
   46B2 FF                18581 	.db #0xFF
   46B3 FF                18582 	.db #0xFF
   46B4 00                18583 	.db #0x00
   46B5 FF                18584 	.db #0xFF
   46B6 FF                18585 	.db #0xFF
   46B7 FF                18586 	.db #0xFF
   46B8 FF                18587 	.db #0xFF
   46B9 FF                18588 	.db #0xFF
   46BA 00                18589 	.db #0x00
   46BB FF                18590 	.db #0xFF
   46BC 00                18591 	.db #0x00
   46BD FF                18592 	.db #0xFF
   46BE 00                18593 	.db #0x00
   46BF FF                18594 	.db #0xFF
   46C0 FE                18595 	.db #0xFE
   46C1 FF                18596 	.db #0xFF
   46C2 FF                18597 	.db #0xFF
   46C3 FF                18598 	.db #0xFF
   46C4 00                18599 	.db #0x00
   46C5 FF                18600 	.db #0xFF
   46C6 FE                18601 	.db #0xFE
   46C7 FF                18602 	.db #0xFF
   46C8 FF                18603 	.db #0xFF
   46C9 FF                18604 	.db #0xFF
   46CA 07                18605 	.db #0x07
   46CB FF                18606 	.db #0xFF
   46CC 01                18607 	.db #0x01
   46CD FF                18608 	.db #0xFF
   46CE 00                18609 	.db #0x00
   46CF FF                18610 	.db #0xFF
   46D0 00                18611 	.db #0x00
   46D1 FF                18612 	.db #0xFF
   46D2 F8                18613 	.db #0xF8
   46D3 FF                18614 	.db #0xFF
   46D4 70                18615 	.db #0x70
   46D5 FF                18616 	.db #0xFF
   46D6 30                18617 	.db #0x30
   46D7 FF                18618 	.db #0xFF
   46D8 B8                18619 	.db #0xB8
   46D9 FF                18620 	.db #0xFF
   46DA B8                18621 	.db #0xB8
   46DB FF                18622 	.db #0xFF
   46DC B8                18623 	.db #0xB8
   46DD FF                18624 	.db #0xFF
   46DE 30                18625 	.db #0x30
   46DF FF                18626 	.db #0xFF
   46E0 31                18627 	.db #0x31
   46E1 FF                18628 	.db #0xFF
   46E2 71                18629 	.db #0x71
   46E3 FF                18630 	.db #0xFF
   46E4 DE                18631 	.db #0xDE
   46E5 FF                18632 	.db #0xFF
   46E6 DC                18633 	.db #0xDC
   46E7 FF                18634 	.db #0xFF
   46E8 D8                18635 	.db #0xD8
   46E9 FF                18636 	.db #0xFF
   46EA C0                18637 	.db #0xC0
   46EB FF                18638 	.db #0xFF
   46EC C0                18639 	.db #0xC0
   46ED FF                18640 	.db #0xFF
   46EE C3                18641 	.db #0xC3
   46EF FF                18642 	.db #0xFF
   46F0 FF                18643 	.db #0xFF
   46F1 FF                18644 	.db #0xFF
   46F2 FF                18645 	.db #0xFF
   46F3 FF                18646 	.db #0xFF
   46F4 01                18647 	.db #0x01
   46F5 FF                18648 	.db #0xFF
   46F6 01                18649 	.db #0x01
   46F7 FF                18650 	.db #0xFF
   46F8 03                18651 	.db #0x03
   46F9 FF                18652 	.db #0xFF
   46FA 0F                18653 	.db #0x0F
   46FB FF                18654 	.db #0xFF
   46FC 3F                18655 	.db #0x3F
   46FD FC                18656 	.db #0xFC
   46FE FC                18657 	.db #0xFC
   46FF F0                18658 	.db #0xF0
   4700 F0                18659 	.db #0xF0
   4701 F8                18660 	.db #0xF8
   4702 18                18661 	.db #0x18
   4703 80                18662 	.db #0x80
   4704 80                18663 	.db #0x80
   4705 80                18664 	.db #0x80
   4706 80                18665 	.db #0x80
   4707 80                18666 	.db #0x80
   4708 80                18667 	.db #0x80
   4709 80                18668 	.db #0x80
   470A 80                18669 	.db #0x80
   470B 00                18670 	.db #0x00
   470C 00                18671 	.db #0x00
   470D 00                18672 	.db #0x00
   470E 00                18673 	.db #0x00
   470F 00                18674 	.db #0x00
   4710 00                18675 	.db #0x00
   4711 00                18676 	.db #0x00
   4712 00                18677 	.db #0x00
   4713 3F                18678 	.db #0x3F
   4714 21                18679 	.db #0x21
   4715 3F                18680 	.db #0x3F
   4716 30                18681 	.db #0x30
   4717 1F                18682 	.db #0x1F
   4718 10                18683 	.db #0x10
   4719 1F                18684 	.db #0x1F
   471A 18                18685 	.db #0x18
   471B 0F                18686 	.db #0x0F
   471C 08                18687 	.db #0x08
   471D 0F                18688 	.db #0x0F
   471E 0C                18689 	.db #0x0C
   471F 07                18690 	.db #0x07
   4720 06                18691 	.db #0x06
   4721 03                18692 	.db #0x03
   4722 03                18693 	.db #0x03
   4723 FF                18694 	.db #0xFF
   4724 30                18695 	.db #0x30
   4725 FF                18696 	.db #0xFF
   4726 98                18697 	.db #0x98
   4727 FF                18698 	.db #0xFF
   4728 8C                18699 	.db #0x8C
   4729 FF                18700 	.db #0xFF
   472A C0                18701 	.db #0xC0
   472B FF                18702 	.db #0xFF
   472C 60                18703 	.db #0x60
   472D FF                18704 	.db #0xFF
   472E 60                18705 	.db #0x60
   472F FF                18706 	.db #0xFF
   4730 20                18707 	.db #0x20
   4731 FF                18708 	.db #0xFF
   4732 20                18709 	.db #0x20
   4733 FF                18710 	.db #0xFF
   4734 00                18711 	.db #0x00
   4735 FF                18712 	.db #0xFF
   4736 00                18713 	.db #0x00
   4737 FF                18714 	.db #0xFF
   4738 00                18715 	.db #0x00
   4739 FF                18716 	.db #0xFF
   473A 00                18717 	.db #0x00
   473B FF                18718 	.db #0xFF
   473C 00                18719 	.db #0x00
   473D FF                18720 	.db #0xFF
   473E 00                18721 	.db #0x00
   473F FF                18722 	.db #0xFF
   4740 00                18723 	.db #0x00
   4741 FF                18724 	.db #0xFF
   4742 01                18725 	.db #0x01
   4743 FF                18726 	.db #0xFF
   4744 00                18727 	.db #0x00
   4745 FF                18728 	.db #0xFF
   4746 00                18729 	.db #0x00
   4747 FF                18730 	.db #0xFF
   4748 01                18731 	.db #0x01
   4749 FF                18732 	.db #0xFF
   474A 01                18733 	.db #0x01
   474B FF                18734 	.db #0xFF
   474C 03                18735 	.db #0x03
   474D FE                18736 	.db #0xFE
   474E 02                18737 	.db #0x02
   474F FE                18738 	.db #0xFE
   4750 02                18739 	.db #0x02
   4751 FF                18740 	.db #0xFF
   4752 03                18741 	.db #0x03
   4753 FF                18742 	.db #0xFF
   4754 C0                18743 	.db #0xC0
   4755 80                18744 	.db #0x80
   4756 80                18745 	.db #0x80
   4757 00                18746 	.db #0x00
   4758 00                18747 	.db #0x00
   4759 00                18748 	.db #0x00
   475A 00                18749 	.db #0x00
   475B 00                18750 	.db #0x00
   475C 00                18751 	.db #0x00
   475D 00                18752 	.db #0x00
   475E 00                18753 	.db #0x00
   475F 00                18754 	.db #0x00
   4760 00                18755 	.db #0x00
   4761 00                18756 	.db #0x00
   4762 00                18757 	.db #0x00
   4763 FF                18758 	.db #0xFF
   4764 03                18759 	.db #0x03
   4765 07                18760 	.db #0x07
   4766 00                18761 	.db #0x00
   4767 00                18762 	.db #0x00
   4768 00                18763 	.db #0x00
   4769 00                18764 	.db #0x00
   476A 00                18765 	.db #0x00
   476B 00                18766 	.db #0x00
   476C 00                18767 	.db #0x00
   476D 30                18768 	.db #0x30
   476E 30                18769 	.db #0x30
   476F 30                18770 	.db #0x30
   4770 30                18771 	.db #0x30
   4771 00                18772 	.db #0x00
   4772 00                18773 	.db #0x00
   4773 FF                18774 	.db #0xFF
   4774 FF                18775 	.db #0xFF
   4775 FF                18776 	.db #0xFF
   4776 3F                18777 	.db #0x3F
   4777 7F                18778 	.db #0x7F
   4778 18                18779 	.db #0x18
   4779 3F                18780 	.db #0x3F
   477A 08                18781 	.db #0x08
   477B 3F                18782 	.db #0x3F
   477C 08                18783 	.db #0x08
   477D 1F                18784 	.db #0x1F
   477E 08                18785 	.db #0x08
   477F 1F                18786 	.db #0x1F
   4780 08                18787 	.db #0x08
   4781 3F                18788 	.db #0x3F
   4782 08                18789 	.db #0x08
   4783 FF                18790 	.db #0xFF
   4784 F1                18791 	.db #0xF1
   4785 FF                18792 	.db #0xFF
   4786 E0                18793 	.db #0xE0
   4787 FF                18794 	.db #0xFF
   4788 00                18795 	.db #0x00
   4789 FF                18796 	.db #0xFF
   478A 00                18797 	.db #0x00
   478B FF                18798 	.db #0xFF
   478C 00                18799 	.db #0x00
   478D FF                18800 	.db #0xFF
   478E 00                18801 	.db #0x00
   478F FF                18802 	.db #0xFF
   4790 00                18803 	.db #0x00
   4791 FF                18804 	.db #0xFF
   4792 00                18805 	.db #0x00
   4793 FF                18806 	.db #0xFF
   4794 F0                18807 	.db #0xF0
   4795 F8                18808 	.db #0xF8
   4796 C0                18809 	.db #0xC0
   4797 F0                18810 	.db #0xF0
   4798 C0                18811 	.db #0xC0
   4799 F6                18812 	.db #0xF6
   479A 66                18813 	.db #0x66
   479B F6                18814 	.db #0xF6
   479C 36                18815 	.db #0x36
   479D F8                18816 	.db #0xF8
   479E 18                18817 	.db #0x18
   479F FC                18818 	.db #0xFC
   47A0 0C                18819 	.db #0x0C
   47A1 FF                18820 	.db #0xFF
   47A2 07                18821 	.db #0x07
   47A3 08                18822 	.db #0x08
   47A4 08                18823 	.db #0x08
   47A5 08                18824 	.db #0x08
   47A6 08                18825 	.db #0x08
   47A7 08                18826 	.db #0x08
   47A8 08                18827 	.db #0x08
   47A9 08                18828 	.db #0x08
   47AA 08                18829 	.db #0x08
   47AB 08                18830 	.db #0x08
   47AC 08                18831 	.db #0x08
   47AD 10                18832 	.db #0x10
   47AE 10                18833 	.db #0x10
   47AF 30                18834 	.db #0x30
   47B0 30                18835 	.db #0x30
   47B1 F8                18836 	.db #0xF8
   47B2 E8                18837 	.db #0xE8
   47B3 01                18838 	.db #0x01
   47B4 01                18839 	.db #0x01
   47B5 01                18840 	.db #0x01
   47B6 01                18841 	.db #0x01
   47B7 00                18842 	.db #0x00
   47B8 00                18843 	.db #0x00
   47B9 01                18844 	.db #0x01
   47BA 01                18845 	.db #0x01
   47BB 01                18846 	.db #0x01
   47BC 01                18847 	.db #0x01
   47BD 01                18848 	.db #0x01
   47BE 01                18849 	.db #0x01
   47BF 01                18850 	.db #0x01
   47C0 01                18851 	.db #0x01
   47C1 01                18852 	.db #0x01
   47C2 01                18853 	.db #0x01
   47C3 FF                18854 	.db #0xFF
   47C4 30                18855 	.db #0x30
   47C5 FF                18856 	.db #0xFF
   47C6 90                18857 	.db #0x90
   47C7 FF                18858 	.db #0xFF
   47C8 80                18859 	.db #0x80
   47C9 FF                18860 	.db #0xFF
   47CA 80                18861 	.db #0x80
   47CB FF                18862 	.db #0xFF
   47CC 00                18863 	.db #0x00
   47CD FF                18864 	.db #0xFF
   47CE 00                18865 	.db #0x00
   47CF FF                18866 	.db #0xFF
   47D0 00                18867 	.db #0x00
   47D1 FF                18868 	.db #0xFF
   47D2 80                18869 	.db #0x80
   47D3 FF                18870 	.db #0xFF
   47D4 01                18871 	.db #0x01
   47D5 FF                18872 	.db #0xFF
   47D6 01                18873 	.db #0x01
   47D7 FF                18874 	.db #0xFF
   47D8 01                18875 	.db #0x01
   47D9 FF                18876 	.db #0xFF
   47DA 01                18877 	.db #0x01
   47DB FF                18878 	.db #0xFF
   47DC 01                18879 	.db #0x01
   47DD FF                18880 	.db #0xFF
   47DE 00                18881 	.db #0x00
   47DF FF                18882 	.db #0xFF
   47E0 00                18883 	.db #0x00
   47E1 FF                18884 	.db #0xFF
   47E2 03                18885 	.db #0x03
   47E3 FF                18886 	.db #0xFF
   47E4 00                18887 	.db #0x00
   47E5 FF                18888 	.db #0xFF
   47E6 00                18889 	.db #0x00
   47E7 FF                18890 	.db #0xFF
   47E8 00                18891 	.db #0x00
   47E9 FF                18892 	.db #0xFF
   47EA 00                18893 	.db #0x00
   47EB FF                18894 	.db #0xFF
   47EC 00                18895 	.db #0x00
   47ED FF                18896 	.db #0xFF
   47EE 00                18897 	.db #0x00
   47EF FF                18898 	.db #0xFF
   47F0 00                18899 	.db #0x00
   47F1 FF                18900 	.db #0xFF
   47F2 C0                18901 	.db #0xC0
   47F3 80                18902 	.db #0x80
   47F4 80                18903 	.db #0x80
   47F5 C0                18904 	.db #0xC0
   47F6 C0                18905 	.db #0xC0
   47F7 E0                18906 	.db #0xE0
   47F8 60                18907 	.db #0x60
   47F9 F0                18908 	.db #0xF0
   47FA 30                18909 	.db #0x30
   47FB FC                18910 	.db #0xFC
   47FC 1C                18911 	.db #0x1C
   47FD FF                18912 	.db #0xFF
   47FE 03                18913 	.db #0x03
   47FF FF                18914 	.db #0xFF
   4800 03                18915 	.db #0x03
   4801 FF                18916 	.db #0xFF
   4802 00                18917 	.db #0x00
   4803 00                18918 	.db #0x00
   4804 00                18919 	.db #0x00
   4805 00                18920 	.db #0x00
   4806 00                18921 	.db #0x00
   4807 00                18922 	.db #0x00
   4808 00                18923 	.db #0x00
   4809 00                18924 	.db #0x00
   480A 00                18925 	.db #0x00
   480B 07                18926 	.db #0x07
   480C 07                18927 	.db #0x07
   480D FF                18928 	.db #0xFF
   480E F8                18929 	.db #0xF8
   480F FF                18930 	.db #0xFF
   4810 F0                18931 	.db #0xF0
   4811 FF                18932 	.db #0xFF
   4812 0F                18933 	.db #0x0F
   4813 3F                18934 	.db #0x3F
   4814 18                18935 	.db #0x18
   4815 3F                18936 	.db #0x3F
   4816 30                18937 	.db #0x30
   4817 7F                18938 	.db #0x7F
   4818 60                18939 	.db #0x60
   4819 FF                18940 	.db #0xFF
   481A C0                18941 	.db #0xC0
   481B FF                18942 	.db #0xFF
   481C 80                18943 	.db #0x80
   481D FF                18944 	.db #0xFF
   481E 00                18945 	.db #0x00
   481F FF                18946 	.db #0xFF
   4820 C0                18947 	.db #0xC0
   4821 FF                18948 	.db #0xFF
   4822 80                18949 	.db #0x80
   4823 FF                18950 	.db #0xFF
   4824 00                18951 	.db #0x00
   4825 FF                18952 	.db #0xFF
   4826 06                18953 	.db #0x06
   4827 FF                18954 	.db #0xFF
   4828 1C                18955 	.db #0x1C
   4829 FF                18956 	.db #0xFF
   482A 70                18957 	.db #0x70
   482B FF                18958 	.db #0xFF
   482C C0                18959 	.db #0xC0
   482D FF                18960 	.db #0xFF
   482E 80                18961 	.db #0x80
   482F FF                18962 	.db #0xFF
   4830 80                18963 	.db #0x80
   4831 FF                18964 	.db #0xFF
   4832 80                18965 	.db #0x80
   4833 FF                18966 	.db #0xFF
   4834 04                18967 	.db #0x04
   4835 FF                18968 	.db #0xFF
   4836 0C                18969 	.db #0x0C
   4837 FF                18970 	.db #0xFF
   4838 1C                18971 	.db #0x1C
   4839 FF                18972 	.db #0xFF
   483A 18                18973 	.db #0x18
   483B FF                18974 	.db #0xFF
   483C 30                18975 	.db #0x30
   483D FF                18976 	.db #0xFF
   483E 20                18977 	.db #0x20
   483F FF                18978 	.db #0xFF
   4840 20                18979 	.db #0x20
   4841 FF                18980 	.db #0xFF
   4842 30                18981 	.db #0x30
   4843 FC                18982 	.db #0xFC
   4844 04                18983 	.db #0x04
   4845 FC                18984 	.db #0xFC
   4846 04                18985 	.db #0x04
   4847 FC                18986 	.db #0xFC
   4848 04                18987 	.db #0x04
   4849 FC                18988 	.db #0xFC
   484A 04                18989 	.db #0x04
   484B FC                18990 	.db #0xFC
   484C 7C                18991 	.db #0x7C
   484D FE                18992 	.db #0xFE
   484E 06                18993 	.db #0x06
   484F FF                18994 	.db #0xFF
   4850 01                18995 	.db #0x01
   4851 FF                18996 	.db #0xFF
   4852 01                18997 	.db #0x01
   4853 FF                18998 	.db #0xFF
   4854 90                18999 	.db #0x90
   4855 7F                19000 	.db #0x7F
   4856 70                19001 	.db #0x70
   4857 1F                19002 	.db #0x1F
   4858 10                19003 	.db #0x10
   4859 1F                19004 	.db #0x1F
   485A 10                19005 	.db #0x10
   485B 1F                19006 	.db #0x1F
   485C 10                19007 	.db #0x10
   485D 1F                19008 	.db #0x1F
   485E 10                19009 	.db #0x10
   485F 1F                19010 	.db #0x1F
   4860 10                19011 	.db #0x10
   4861 1F                19012 	.db #0x1F
   4862 10                19013 	.db #0x10
   4863 FF                19014 	.db #0xFF
   4864 06                19015 	.db #0x06
   4865 FF                19016 	.db #0xFF
   4866 0C                19017 	.db #0x0C
   4867 FF                19018 	.db #0xFF
   4868 18                19019 	.db #0x18
   4869 FF                19020 	.db #0xFF
   486A 10                19021 	.db #0x10
   486B FF                19022 	.db #0xFF
   486C 10                19023 	.db #0x10
   486D FF                19024 	.db #0xFF
   486E 10                19025 	.db #0x10
   486F FF                19026 	.db #0xFF
   4870 10                19027 	.db #0x10
   4871 FF                19028 	.db #0xFF
   4872 18                19029 	.db #0x18
   4873 FF                19030 	.db #0xFF
   4874 78                19031 	.db #0x78
   4875 FF                19032 	.db #0xFF
   4876 00                19033 	.db #0x00
   4877 FF                19034 	.db #0xFF
   4878 00                19035 	.db #0x00
   4879 FF                19036 	.db #0xFF
   487A 00                19037 	.db #0x00
   487B FF                19038 	.db #0xFF
   487C 00                19039 	.db #0x00
   487D FF                19040 	.db #0xFF
   487E 00                19041 	.db #0x00
   487F FF                19042 	.db #0xFF
   4880 FC                19043 	.db #0xFC
   4881 FF                19044 	.db #0xFF
   4882 47                19045 	.db #0x47
   4883 FF                19046 	.db #0xFF
   4884 00                19047 	.db #0x00
   4885 FF                19048 	.db #0xFF
   4886 00                19049 	.db #0x00
   4887 FF                19050 	.db #0xFF
   4888 00                19051 	.db #0x00
   4889 FF                19052 	.db #0xFF
   488A 00                19053 	.db #0x00
   488B FF                19054 	.db #0xFF
   488C 00                19055 	.db #0x00
   488D FF                19056 	.db #0xFF
   488E 0C                19057 	.db #0x0C
   488F FF                19058 	.db #0xFF
   4890 07                19059 	.db #0x07
   4891 FF                19060 	.db #0xFF
   4892 00                19061 	.db #0x00
   4893 FF                19062 	.db #0xFF
   4894 00                19063 	.db #0x00
   4895 FF                19064 	.db #0xFF
   4896 00                19065 	.db #0x00
   4897 FF                19066 	.db #0xFF
   4898 00                19067 	.db #0x00
   4899 FF                19068 	.db #0xFF
   489A 00                19069 	.db #0x00
   489B FF                19070 	.db #0xFF
   489C 00                19071 	.db #0x00
   489D FF                19072 	.db #0xFF
   489E 00                19073 	.db #0x00
   489F FF                19074 	.db #0xFF
   48A0 80                19075 	.db #0x80
   48A1 FF                19076 	.db #0xFF
   48A2 F8                19077 	.db #0xF8
   48A3 FF                19078 	.db #0xFF
   48A4 00                19079 	.db #0x00
   48A5 FF                19080 	.db #0xFF
   48A6 00                19081 	.db #0x00
   48A7 FF                19082 	.db #0xFF
   48A8 00                19083 	.db #0x00
   48A9 FF                19084 	.db #0xFF
   48AA 01                19085 	.db #0x01
   48AB FF                19086 	.db #0xFF
   48AC 02                19087 	.db #0x02
   48AD FF                19088 	.db #0xFF
   48AE 01                19089 	.db #0x01
   48AF FF                19090 	.db #0xFF
   48B0 00                19091 	.db #0x00
   48B1 FF                19092 	.db #0xFF
   48B2 00                19093 	.db #0x00
   48B3 FF                19094 	.db #0xFF
   48B4 80                19095 	.db #0x80
   48B5 FF                19096 	.db #0xFF
   48B6 80                19097 	.db #0x80
   48B7 FF                19098 	.db #0xFF
   48B8 80                19099 	.db #0x80
   48B9 FF                19100 	.db #0xFF
   48BA 80                19101 	.db #0x80
   48BB FF                19102 	.db #0xFF
   48BC 00                19103 	.db #0x00
   48BD FF                19104 	.db #0xFF
   48BE F0                19105 	.db #0xF0
   48BF FF                19106 	.db #0xFF
   48C0 0F                19107 	.db #0x0F
   48C1 FF                19108 	.db #0xFF
   48C2 00                19109 	.db #0x00
   48C3 FF                19110 	.db #0xFF
   48C4 1C                19111 	.db #0x1C
   48C5 FF                19112 	.db #0xFF
   48C6 00                19113 	.db #0x00
   48C7 FF                19114 	.db #0xFF
   48C8 00                19115 	.db #0x00
   48C9 FF                19116 	.db #0xFF
   48CA 00                19117 	.db #0x00
   48CB FF                19118 	.db #0xFF
   48CC 00                19119 	.db #0x00
   48CD FF                19120 	.db #0xFF
   48CE 00                19121 	.db #0x00
   48CF FF                19122 	.db #0xFF
   48D0 C0                19123 	.db #0xC0
   48D1 FF                19124 	.db #0xFF
   48D2 7F                19125 	.db #0x7F
   48D3 FF                19126 	.db #0xFF
   48D4 01                19127 	.db #0x01
   48D5 FF                19128 	.db #0xFF
   48D6 03                19129 	.db #0x03
   48D7 FE                19130 	.db #0xFE
   48D8 02                19131 	.db #0x02
   48D9 FE                19132 	.db #0xFE
   48DA 06                19133 	.db #0x06
   48DB FE                19134 	.db #0xFE
   48DC 06                19135 	.db #0x06
   48DD FC                19136 	.db #0xFC
   48DE 04                19137 	.db #0x04
   48DF FC                19138 	.db #0xFC
   48E0 0C                19139 	.db #0x0C
   48E1 F8                19140 	.db #0xF8
   48E2 F8                19141 	.db #0xF8
   48E3 1F                19142 	.db #0x1F
   48E4 10                19143 	.db #0x10
   48E5 1F                19144 	.db #0x1F
   48E6 10                19145 	.db #0x10
   48E7 1F                19146 	.db #0x1F
   48E8 10                19147 	.db #0x10
   48E9 1F                19148 	.db #0x1F
   48EA 10                19149 	.db #0x10
   48EB 1F                19150 	.db #0x1F
   48EC 10                19151 	.db #0x10
   48ED 1F                19152 	.db #0x1F
   48EE 10                19153 	.db #0x10
   48EF 1F                19154 	.db #0x1F
   48F0 10                19155 	.db #0x10
   48F1 1F                19156 	.db #0x1F
   48F2 10                19157 	.db #0x10
   48F3 FF                19158 	.db #0xFF
   48F4 08                19159 	.db #0x08
   48F5 FF                19160 	.db #0xFF
   48F6 0C                19161 	.db #0x0C
   48F7 FF                19162 	.db #0xFF
   48F8 06                19163 	.db #0x06
   48F9 FF                19164 	.db #0xFF
   48FA 03                19165 	.db #0x03
   48FB FF                19166 	.db #0xFF
   48FC 01                19167 	.db #0x01
   48FD FF                19168 	.db #0xFF
   48FE 00                19169 	.db #0x00
   48FF FF                19170 	.db #0xFF
   4900 00                19171 	.db #0x00
   4901 FF                19172 	.db #0xFF
   4902 00                19173 	.db #0x00
   4903 E7                19174 	.db #0xE7
   4904 40                19175 	.db #0x40
   4905 E0                19176 	.db #0xE0
   4906 60                19177 	.db #0x60
   4907 F0                19178 	.db #0xF0
   4908 30                19179 	.db #0x30
   4909 F8                19180 	.db #0xF8
   490A 18                19181 	.db #0x18
   490B FE                19182 	.db #0xFE
   490C 8E                19183 	.db #0x8E
   490D FF                19184 	.db #0xFF
   490E 87                19185 	.db #0x87
   490F FF                19186 	.db #0xFF
   4910 40                19187 	.db #0x40
   4911 FF                19188 	.db #0xFF
   4912 00                19189 	.db #0x00
   4913 FF                19190 	.db #0xFF
   4914 E0                19191 	.db #0xE0
   4915 7F                19192 	.db #0x7F
   4916 38                19193 	.db #0x38
   4917 1F                19194 	.db #0x1F
   4918 0F                19195 	.db #0x0F
   4919 0F                19196 	.db #0x0F
   491A 02                19197 	.db #0x02
   491B 02                19198 	.db #0x02
   491C 02                19199 	.db #0x02
   491D 82                19200 	.db #0x82
   491E 82                19201 	.db #0x82
   491F E2                19202 	.db #0xE2
   4920 E2                19203 	.db #0xE2
   4921 FB                19204 	.db #0xFB
   4922 3B                19205 	.db #0x3B
   4923 FF                19206 	.db #0xFF
   4924 07                19207 	.db #0x07
   4925 FF                19208 	.db #0xFF
   4926 01                19209 	.db #0x01
   4927 FF                19210 	.db #0xFF
   4928 80                19211 	.db #0x80
   4929 FF                19212 	.db #0xFF
   492A F0                19213 	.db #0xF0
   492B FF                19214 	.db #0xFF
   492C 1F                19215 	.db #0x1F
   492D 1F                19216 	.db #0x1F
   492E 00                19217 	.db #0x00
   492F 00                19218 	.db #0x00
   4930 00                19219 	.db #0x00
   4931 00                19220 	.db #0x00
   4932 00                19221 	.db #0x00
   4933 FF                19222 	.db #0xFF
   4934 00                19223 	.db #0x00
   4935 FF                19224 	.db #0xFF
   4936 F0                19225 	.db #0xF0
   4937 FF                19226 	.db #0xFF
   4938 0E                19227 	.db #0x0E
   4939 FF                19228 	.db #0xFF
   493A 00                19229 	.db #0x00
   493B FF                19230 	.db #0xFF
   493C C0                19231 	.db #0xC0
   493D FF                19232 	.db #0xFF
   493E 7F                19233 	.db #0x7F
   493F 7F                19234 	.db #0x7F
   4940 10                19235 	.db #0x10
   4941 10                19236 	.db #0x10
   4942 10                19237 	.db #0x10
   4943 FF                19238 	.db #0xFF
   4944 00                19239 	.db #0x00
   4945 FF                19240 	.db #0xFF
   4946 00                19241 	.db #0x00
   4947 FF                19242 	.db #0xFF
   4948 00                19243 	.db #0x00
   4949 FF                19244 	.db #0xFF
   494A 00                19245 	.db #0x00
   494B FF                19246 	.db #0xFF
   494C 00                19247 	.db #0x00
   494D FF                19248 	.db #0xFF
   494E 80                19249 	.db #0x80
   494F FF                19250 	.db #0xFF
   4950 7F                19251 	.db #0x7F
   4951 7F                19252 	.db #0x7F
   4952 18                19253 	.db #0x18
   4953 FE                19254 	.db #0xFE
   4954 06                19255 	.db #0x06
   4955 FF                19256 	.db #0xFF
   4956 01                19257 	.db #0x01
   4957 FF                19258 	.db #0xFF
   4958 00                19259 	.db #0x00
   4959 FF                19260 	.db #0xFF
   495A 00                19261 	.db #0x00
   495B FF                19262 	.db #0xFF
   495C 00                19263 	.db #0x00
   495D FF                19264 	.db #0xFF
   495E 01                19265 	.db #0x01
   495F FE                19266 	.db #0xFE
   4960 FE                19267 	.db #0xFE
   4961 FE                19268 	.db #0xFE
   4962 02                19269 	.db #0x02
   4963 00                19270 	.db #0x00
   4964 00                19271 	.db #0x00
   4965 00                19272 	.db #0x00
   4966 00                19273 	.db #0x00
   4967 80                19274 	.db #0x80
   4968 80                19275 	.db #0x80
   4969 80                19276 	.db #0x80
   496A 80                19277 	.db #0x80
   496B 80                19278 	.db #0x80
   496C 80                19279 	.db #0x80
   496D 00                19280 	.db #0x00
   496E 00                19281 	.db #0x00
   496F 00                19282 	.db #0x00
   4970 00                19283 	.db #0x00
   4971 00                19284 	.db #0x00
   4972 00                19285 	.db #0x00
   4973 3F                19286 	.db #0x3F
   4974 30                19287 	.db #0x30
   4975 BF                19288 	.db #0xBF
   4976 B0                19289 	.db #0xB0
   4977 7F                19290 	.db #0x7F
   4978 70                19291 	.db #0x70
   4979 3F                19292 	.db #0x3F
   497A 30                19293 	.db #0x30
   497B 3F                19294 	.db #0x3F
   497C 38                19295 	.db #0x38
   497D 2F                19296 	.db #0x2F
   497E 3E                19297 	.db #0x3E
   497F 3F                19298 	.db #0x3F
   4980 23                19299 	.db #0x23
   4981 3F                19300 	.db #0x3F
   4982 20                19301 	.db #0x20
   4983 FF                19302 	.db #0xFF
   4984 00                19303 	.db #0x00
   4985 FF                19304 	.db #0xFF
   4986 00                19305 	.db #0x00
   4987 FF                19306 	.db #0xFF
   4988 00                19307 	.db #0x00
   4989 FF                19308 	.db #0xFF
   498A 00                19309 	.db #0x00
   498B FF                19310 	.db #0xFF
   498C 00                19311 	.db #0x00
   498D FF                19312 	.db #0xFF
   498E 00                19313 	.db #0x00
   498F FF                19314 	.db #0xFF
   4990 80                19315 	.db #0x80
   4991 FF                19316 	.db #0xFF
   4992 C0                19317 	.db #0xC0
   4993 FF                19318 	.db #0xFF
   4994 0F                19319 	.db #0x0F
   4995 FF                19320 	.db #0xFF
   4996 01                19321 	.db #0x01
   4997 FF                19322 	.db #0xFF
   4998 00                19323 	.db #0x00
   4999 FF                19324 	.db #0xFF
   499A 00                19325 	.db #0x00
   499B FF                19326 	.db #0xFF
   499C 00                19327 	.db #0x00
   499D FF                19328 	.db #0xFF
   499E 00                19329 	.db #0x00
   499F FF                19330 	.db #0xFF
   49A0 00                19331 	.db #0x00
   49A1 FF                19332 	.db #0xFF
   49A2 00                19333 	.db #0x00
   49A3 00                19334 	.db #0x00
   49A4 00                19335 	.db #0x00
   49A5 E0                19336 	.db #0xE0
   49A6 E0                19337 	.db #0xE0
   49A7 FE                19338 	.db #0xFE
   49A8 3E                19339 	.db #0x3E
   49A9 FF                19340 	.db #0xFF
   49AA 03                19341 	.db #0x03
   49AB FF                19342 	.db #0xFF
   49AC 00                19343 	.db #0x00
   49AD FF                19344 	.db #0xFF
   49AE 00                19345 	.db #0x00
   49AF FF                19346 	.db #0xFF
   49B0 00                19347 	.db #0x00
   49B1 FF                19348 	.db #0xFF
   49B2 00                19349 	.db #0x00
   49B3 10                19350 	.db #0x10
   49B4 10                19351 	.db #0x10
   49B5 18                19352 	.db #0x18
   49B6 18                19353 	.db #0x18
   49B7 08                19354 	.db #0x08
   49B8 08                19355 	.db #0x08
   49B9 F8                19356 	.db #0xF8
   49BA F8                19357 	.db #0xF8
   49BB FF                19358 	.db #0xFF
   49BC 1F                19359 	.db #0x1F
   49BD FF                19360 	.db #0xFF
   49BE 00                19361 	.db #0x00
   49BF FF                19362 	.db #0xFF
   49C0 00                19363 	.db #0x00
   49C1 FF                19364 	.db #0xFF
   49C2 00                19365 	.db #0x00
   49C3 0C                19366 	.db #0x0C
   49C4 0C                19367 	.db #0x0C
   49C5 04                19368 	.db #0x04
   49C6 04                19369 	.db #0x04
   49C7 06                19370 	.db #0x06
   49C8 06                19371 	.db #0x06
   49C9 03                19372 	.db #0x03
   49CA 03                19373 	.db #0x03
   49CB FF                19374 	.db #0xFF
   49CC FF                19375 	.db #0xFF
   49CD FF                19376 	.db #0xFF
   49CE 00                19377 	.db #0x00
   49CF FF                19378 	.db #0xFF
   49D0 00                19379 	.db #0x00
   49D1 FF                19380 	.db #0xFF
   49D2 00                19381 	.db #0x00
   49D3 02                19382 	.db #0x02
   49D4 02                19383 	.db #0x02
   49D5 03                19384 	.db #0x03
   49D6 03                19385 	.db #0x03
   49D7 0F                19386 	.db #0x0F
   49D8 0E                19387 	.db #0x0E
   49D9 3F                19388 	.db #0x3F
   49DA 38                19389 	.db #0x38
   49DB FF                19390 	.db #0xFF
   49DC E0                19391 	.db #0xE0
   49DD FF                19392 	.db #0xFF
   49DE 00                19393 	.db #0x00
   49DF FF                19394 	.db #0xFF
   49E0 00                19395 	.db #0x00
   49E1 FF                19396 	.db #0xFF
   49E2 08                19397 	.db #0x08
   49E3 00                19398 	.db #0x00
   49E4 00                19399 	.db #0x00
   49E5 80                19400 	.db #0x80
   49E6 80                19401 	.db #0x80
   49E7 C0                19402 	.db #0xC0
   49E8 C0                19403 	.db #0xC0
   49E9 C0                19404 	.db #0xC0
   49EA 40                19405 	.db #0x40
   49EB C0                19406 	.db #0xC0
   49EC 40                19407 	.db #0x40
   49ED C0                19408 	.db #0xC0
   49EE 40                19409 	.db #0x40
   49EF E0                19410 	.db #0xE0
   49F0 60                19411 	.db #0x60
   49F1 F8                19412 	.db #0xF8
   49F2 98                19413 	.db #0x98
   49F3 00                19414 	.db #0x00
   49F4 00                19415 	.db #0x00
   49F5 00                19416 	.db #0x00
   49F6 00                19417 	.db #0x00
   49F7 01                19418 	.db #0x01
   49F8 01                19419 	.db #0x01
   49F9 00                19420 	.db #0x00
   49FA 00                19421 	.db #0x00
   49FB 00                19422 	.db #0x00
   49FC 00                19423 	.db #0x00
   49FD 00                19424 	.db #0x00
   49FE 00                19425 	.db #0x00
   49FF 00                19426 	.db #0x00
   4A00 00                19427 	.db #0x00
   4A01 00                19428 	.db #0x00
   4A02 00                19429 	.db #0x00
   4A03 3F                19430 	.db #0x3F
   4A04 20                19431 	.db #0x20
   4A05 3F                19432 	.db #0x3F
   4A06 20                19433 	.db #0x20
   4A07 FF                19434 	.db #0xFF
   4A08 E0                19435 	.db #0xE0
   4A09 FF                19436 	.db #0xFF
   4A0A E0                19437 	.db #0xE0
   4A0B 7F                19438 	.db #0x7F
   4A0C 70                19439 	.db #0x70
   4A0D 7F                19440 	.db #0x7F
   4A0E 4C                19441 	.db #0x4C
   4A0F 7F                19442 	.db #0x7F
   4A10 47                19443 	.db #0x47
   4A11 7F                19444 	.db #0x7F
   4A12 40                19445 	.db #0x40
   4A13 FF                19446 	.db #0xFF
   4A14 03                19447 	.db #0x03
   4A15 FF                19448 	.db #0xFF
   4A16 00                19449 	.db #0x00
   4A17 FF                19450 	.db #0xFF
   4A18 00                19451 	.db #0x00
   4A19 FF                19452 	.db #0xFF
   4A1A 00                19453 	.db #0x00
   4A1B FF                19454 	.db #0xFF
   4A1C 00                19455 	.db #0x00
   4A1D FF                19456 	.db #0xFF
   4A1E 00                19457 	.db #0x00
   4A1F FF                19458 	.db #0xFF
   4A20 00                19459 	.db #0x00
   4A21 FF                19460 	.db #0xFF
   4A22 00                19461 	.db #0x00
   4A23 FF                19462 	.db #0xFF
   4A24 C0                19463 	.db #0xC0
   4A25 FF                19464 	.db #0xFF
   4A26 7C                19465 	.db #0x7C
   4A27 FF                19466 	.db #0xFF
   4A28 07                19467 	.db #0x07
   4A29 FC                19468 	.db #0xFC
   4A2A 04                19469 	.db #0x04
   4A2B FC                19470 	.db #0xFC
   4A2C 04                19471 	.db #0x04
   4A2D FC                19472 	.db #0xFC
   4A2E 04                19473 	.db #0x04
   4A2F FE                19474 	.db #0xFE
   4A30 06                19475 	.db #0x06
   4A31 FE                19476 	.db #0xFE
   4A32 02                19477 	.db #0x02
   4A33 FF                19478 	.db #0xFF
   4A34 00                19479 	.db #0x00
   4A35 FF                19480 	.db #0xFF
   4A36 00                19481 	.db #0x00
   4A37 FF                19482 	.db #0xFF
   4A38 80                19483 	.db #0x80
   4A39 7F                19484 	.db #0x7F
   4A3A 70                19485 	.db #0x70
   4A3B 1F                19486 	.db #0x1F
   4A3C 1C                19487 	.db #0x1C
   4A3D 07                19488 	.db #0x07
   4A3E 07                19489 	.db #0x07
   4A3F 01                19490 	.db #0x01
   4A40 01                19491 	.db #0x01
   4A41 00                19492 	.db #0x00
   4A42 00                19493 	.db #0x00
   4A43 FF                19494 	.db #0xFF
   4A44 00                19495 	.db #0x00
   4A45 FF                19496 	.db #0xFF
   4A46 00                19497 	.db #0x00
   4A47 FF                19498 	.db #0xFF
   4A48 00                19499 	.db #0x00
   4A49 FF                19500 	.db #0xFF
   4A4A 00                19501 	.db #0x00
   4A4B FF                19502 	.db #0xFF
   4A4C 00                19503 	.db #0x00
   4A4D 7F                19504 	.db #0x7F
   4A4E 80                19505 	.db #0x80
   4A4F FF                19506 	.db #0xFF
   4A50 F0                19507 	.db #0xF0
   4A51 1F                19508 	.db #0x1F
   4A52 1E                19509 	.db #0x1E
   4A53 FF                19510 	.db #0xFF
   4A54 07                19511 	.db #0x07
   4A55 FF                19512 	.db #0xFF
   4A56 00                19513 	.db #0x00
   4A57 FF                19514 	.db #0xFF
   4A58 00                19515 	.db #0x00
   4A59 FF                19516 	.db #0xFF
   4A5A 00                19517 	.db #0x00
   4A5B FF                19518 	.db #0xFF
   4A5C 00                19519 	.db #0x00
   4A5D FF                19520 	.db #0xFF
   4A5E 00                19521 	.db #0x00
   4A5F FF                19522 	.db #0xFF
   4A60 00                19523 	.db #0x00
   4A61 FF                19524 	.db #0xFF
   4A62 00                19525 	.db #0x00
   4A63 FC                19526 	.db #0xFC
   4A64 0C                19527 	.db #0x0C
   4A65 FE                19528 	.db #0xFE
   4A66 06                19529 	.db #0x06
   4A67 FF                19530 	.db #0xFF
   4A68 03                19531 	.db #0x03
   4A69 FF                19532 	.db #0xFF
   4A6A 01                19533 	.db #0x01
   4A6B FF                19534 	.db #0xFF
   4A6C 00                19535 	.db #0x00
   4A6D FF                19536 	.db #0xFF
   4A6E 00                19537 	.db #0x00
   4A6F FF                19538 	.db #0xFF
   4A70 00                19539 	.db #0x00
   4A71 FF                19540 	.db #0xFF
   4A72 00                19541 	.db #0x00
   4A73 00                19542 	.db #0x00
   4A74 00                19543 	.db #0x00
   4A75 00                19544 	.db #0x00
   4A76 00                19545 	.db #0x00
   4A77 00                19546 	.db #0x00
   4A78 00                19547 	.db #0x00
   4A79 80                19548 	.db #0x80
   4A7A 80                19549 	.db #0x80
   4A7B C0                19550 	.db #0xC0
   4A7C C0                19551 	.db #0xC0
   4A7D C0                19552 	.db #0xC0
   4A7E 40                19553 	.db #0x40
   4A7F E0                19554 	.db #0xE0
   4A80 60                19555 	.db #0x60
   4A81 E0                19556 	.db #0xE0
   4A82 20                19557 	.db #0x20
   4A83 00                19558 	.db #0x00
   4A84 00                19559 	.db #0x00
   4A85 01                19560 	.db #0x01
   4A86 01                19561 	.db #0x01
   4A87 00                19562 	.db #0x00
   4A88 00                19563 	.db #0x00
   4A89 00                19564 	.db #0x00
   4A8A 00                19565 	.db #0x00
   4A8B 00                19566 	.db #0x00
   4A8C 00                19567 	.db #0x00
   4A8D 00                19568 	.db #0x00
   4A8E 00                19569 	.db #0x00
   4A8F 00                19570 	.db #0x00
   4A90 00                19571 	.db #0x00
   4A91 00                19572 	.db #0x00
   4A92 00                19573 	.db #0x00
   4A93 7F                19574 	.db #0x7F
   4A94 40                19575 	.db #0x40
   4A95 FF                19576 	.db #0xFF
   4A96 E0                19577 	.db #0xE0
   4A97 7F                19578 	.db #0x7F
   4A98 7E                19579 	.db #0x7E
   4A99 7F                19580 	.db #0x7F
   4A9A 47                19581 	.db #0x47
   4A9B 7F                19582 	.db #0x7F
   4A9C 40                19583 	.db #0x40
   4A9D 7F                19584 	.db #0x7F
   4A9E 40                19585 	.db #0x40
   4A9F 7F                19586 	.db #0x7F
   4AA0 40                19587 	.db #0x40
   4AA1 FF                19588 	.db #0xFF
   4AA2 C0                19589 	.db #0xC0
   4AA3 FF                19590 	.db #0xFF
   4AA4 03                19591 	.db #0x03
   4AA5 FF                19592 	.db #0xFF
   4AA6 01                19593 	.db #0x01
   4AA7 FF                19594 	.db #0xFF
   4AA8 01                19595 	.db #0x01
   4AA9 FF                19596 	.db #0xFF
   4AAA 00                19597 	.db #0x00
   4AAB FF                19598 	.db #0xFF
   4AAC 00                19599 	.db #0x00
   4AAD FF                19600 	.db #0xFF
   4AAE 00                19601 	.db #0x00
   4AAF FF                19602 	.db #0xFF
   4AB0 00                19603 	.db #0x00
   4AB1 FF                19604 	.db #0xFF
   4AB2 00                19605 	.db #0x00
   4AB3 00                19606 	.db #0x00
   4AB4 00                19607 	.db #0x00
   4AB5 00                19608 	.db #0x00
   4AB6 00                19609 	.db #0x00
   4AB7 80                19610 	.db #0x80
   4AB8 80                19611 	.db #0x80
   4AB9 80                19612 	.db #0x80
   4ABA 80                19613 	.db #0x80
   4ABB 80                19614 	.db #0x80
   4ABC 80                19615 	.db #0x80
   4ABD C0                19616 	.db #0xC0
   4ABE C0                19617 	.db #0xC0
   4ABF C0                19618 	.db #0xC0
   4AC0 40                19619 	.db #0x40
   4AC1 E0                19620 	.db #0xE0
   4AC2 60                19621 	.db #0x60
   4AC3 03                19622 	.db #0x03
   4AC4 03                19623 	.db #0x03
   4AC5 00                19624 	.db #0x00
   4AC6 00                19625 	.db #0x00
   4AC7 00                19626 	.db #0x00
   4AC8 00                19627 	.db #0x00
   4AC9 00                19628 	.db #0x00
   4ACA 00                19629 	.db #0x00
   4ACB 00                19630 	.db #0x00
   4ACC 00                19631 	.db #0x00
   4ACD 00                19632 	.db #0x00
   4ACE 00                19633 	.db #0x00
   4ACF 00                19634 	.db #0x00
   4AD0 00                19635 	.db #0x00
   4AD1 00                19636 	.db #0x00
   4AD2 00                19637 	.db #0x00
   4AD3 FF                19638 	.db #0xFF
   4AD4 80                19639 	.db #0x80
   4AD5 7F                19640 	.db #0x7F
   4AD6 70                19641 	.db #0x70
   4AD7 1F                19642 	.db #0x1F
   4AD8 18                19643 	.db #0x18
   4AD9 0F                19644 	.db #0x0F
   4ADA 0E                19645 	.db #0x0E
   4ADB 03                19646 	.db #0x03
   4ADC 03                19647 	.db #0x03
   4ADD 00                19648 	.db #0x00
   4ADE 00                19649 	.db #0x00
   4ADF 00                19650 	.db #0x00
   4AE0 00                19651 	.db #0x00
   4AE1 00                19652 	.db #0x00
   4AE2 00                19653 	.db #0x00
   4AE3 FF                19654 	.db #0xFF
   4AE4 00                19655 	.db #0x00
   4AE5 FF                19656 	.db #0xFF
   4AE6 00                19657 	.db #0x00
   4AE7 FF                19658 	.db #0xFF
   4AE8 00                19659 	.db #0x00
   4AE9 FF                19660 	.db #0xFF
   4AEA 00                19661 	.db #0x00
   4AEB FF                19662 	.db #0xFF
   4AEC C0                19663 	.db #0xC0
   4AED 7F                19664 	.db #0x7F
   4AEE 7F                19665 	.db #0x7F
   4AEF 01                19666 	.db #0x01
   4AF0 01                19667 	.db #0x01
   4AF1 00                19668 	.db #0x00
   4AF2 00                19669 	.db #0x00
   4AF3 FF                19670 	.db #0xFF
   4AF4 00                19671 	.db #0x00
   4AF5 FF                19672 	.db #0xFF
   4AF6 00                19673 	.db #0x00
   4AF7 FF                19674 	.db #0xFF
   4AF8 00                19675 	.db #0x00
   4AF9 FF                19676 	.db #0xFF
   4AFA 00                19677 	.db #0x00
   4AFB FF                19678 	.db #0xFF
   4AFC 00                19679 	.db #0x00
   4AFD FF                19680 	.db #0xFF
   4AFE 00                19681 	.db #0x00
   4AFF FF                19682 	.db #0xFF
   4B00 E1                19683 	.db #0xE1
   4B01 3F                19684 	.db #0x3F
   4B02 3F                19685 	.db #0x3F
   4B03 FF                19686 	.db #0xFF
   4B04 00                19687 	.db #0x00
   4B05 FF                19688 	.db #0xFF
   4B06 00                19689 	.db #0x00
   4B07 FF                19690 	.db #0xFF
   4B08 03                19691 	.db #0x03
   4B09 FE                19692 	.db #0xFE
   4B0A 0E                19693 	.db #0x0E
   4B0B F8                19694 	.db #0xF8
   4B0C 38                19695 	.db #0x38
   4B0D E0                19696 	.db #0xE0
   4B0E E0                19697 	.db #0xE0
   4B0F 80                19698 	.db #0x80
   4B10 80                19699 	.db #0x80
   4B11 00                19700 	.db #0x00
   4B12 00                19701 	.db #0x00
   4B13 E0                19702 	.db #0xE0
   4B14 20                19703 	.db #0x20
   4B15 E0                19704 	.db #0xE0
   4B16 60                19705 	.db #0x60
   4B17 C0                19706 	.db #0xC0
   4B18 C0                19707 	.db #0xC0
   4B19 00                19708 	.db #0x00
   4B1A 00                19709 	.db #0x00
   4B1B 00                19710 	.db #0x00
   4B1C 00                19711 	.db #0x00
   4B1D 00                19712 	.db #0x00
   4B1E 00                19713 	.db #0x00
   4B1F 00                19714 	.db #0x00
   4B20 00                19715 	.db #0x00
   4B21 00                19716 	.db #0x00
   4B22 00                19717 	.db #0x00
   4B23 1F                19718 	.db #0x1F
   4B24 1F                19719 	.db #0x1F
   4B25 3F                19720 	.db #0x3F
   4B26 3F                19721 	.db #0x3F
   4B27 3F                19722 	.db #0x3F
   4B28 3F                19723 	.db #0x3F
   4B29 7F                19724 	.db #0x7F
   4B2A 7F                19725 	.db #0x7F
   4B2B 7F                19726 	.db #0x7F
   4B2C 7F                19727 	.db #0x7F
   4B2D 7F                19728 	.db #0x7F
   4B2E 7F                19729 	.db #0x7F
   4B2F 7F                19730 	.db #0x7F
   4B30 7F                19731 	.db #0x7F
   4B31 7F                19732 	.db #0x7F
   4B32 7F                19733 	.db #0x7F
   4B33 FE                19734 	.db #0xFE
   4B34 FE                19735 	.db #0xFE
   4B35 FF                19736 	.db #0xFF
   4B36 FF                19737 	.db #0xFF
   4B37 FF                19738 	.db #0xFF
   4B38 FF                19739 	.db #0xFF
   4B39 FF                19740 	.db #0xFF
   4B3A FF                19741 	.db #0xFF
   4B3B FF                19742 	.db #0xFF
   4B3C FF                19743 	.db #0xFF
   4B3D FF                19744 	.db #0xFF
   4B3E FF                19745 	.db #0xFF
   4B3F FF                19746 	.db #0xFF
   4B40 FF                19747 	.db #0xFF
   4B41 FF                19748 	.db #0xFF
   4B42 FF                19749 	.db #0xFF
   4B43 07                19750 	.db #0x07
   4B44 07                19751 	.db #0x07
   4B45 FF                19752 	.db #0xFF
   4B46 FF                19753 	.db #0xFF
   4B47 FF                19754 	.db #0xFF
   4B48 FF                19755 	.db #0xFF
   4B49 FF                19756 	.db #0xFF
   4B4A FF                19757 	.db #0xFF
   4B4B FF                19758 	.db #0xFF
   4B4C FF                19759 	.db #0xFF
   4B4D FF                19760 	.db #0xFF
   4B4E FF                19761 	.db #0xFF
   4B4F FF                19762 	.db #0xFF
   4B50 FF                19763 	.db #0xFF
   4B51 FF                19764 	.db #0xFF
   4B52 FF                19765 	.db #0xFF
   4B53 FF                19766 	.db #0xFF
   4B54 F0                19767 	.db #0xF0
   4B55 FF                19768 	.db #0xFF
   4B56 F8                19769 	.db #0xF8
   4B57 FF                19770 	.db #0xFF
   4B58 F8                19771 	.db #0xF8
   4B59 FF                19772 	.db #0xFF
   4B5A FC                19773 	.db #0xFC
   4B5B FF                19774 	.db #0xFF
   4B5C FE                19775 	.db #0xFE
   4B5D FF                19776 	.db #0xFF
   4B5E FF                19777 	.db #0xFF
   4B5F FF                19778 	.db #0xFF
   4B60 FF                19779 	.db #0xFF
   4B61 FF                19780 	.db #0xFF
   4B62 FF                19781 	.db #0xFF
   4B63 E0                19782 	.db #0xE0
   4B64 60                19783 	.db #0x60
   4B65 F0                19784 	.db #0xF0
   4B66 70                19785 	.db #0x70
   4B67 F0                19786 	.db #0xF0
   4B68 30                19787 	.db #0x30
   4B69 F0                19788 	.db #0xF0
   4B6A 30                19789 	.db #0x30
   4B6B F8                19790 	.db #0xF8
   4B6C 38                19791 	.db #0x38
   4B6D FF                19792 	.db #0xFF
   4B6E 1F                19793 	.db #0x1F
   4B6F FF                19794 	.db #0xFF
   4B70 07                19795 	.db #0x07
   4B71 FF                19796 	.db #0xFF
   4B72 03                19797 	.db #0x03
   4B73 00                19798 	.db #0x00
   4B74 00                19799 	.db #0x00
   4B75 00                19800 	.db #0x00
   4B76 00                19801 	.db #0x00
   4B77 00                19802 	.db #0x00
   4B78 00                19803 	.db #0x00
   4B79 00                19804 	.db #0x00
   4B7A 00                19805 	.db #0x00
   4B7B FF                19806 	.db #0xFF
   4B7C FF                19807 	.db #0xFF
   4B7D FF                19808 	.db #0xFF
   4B7E FF                19809 	.db #0xFF
   4B7F FF                19810 	.db #0xFF
   4B80 FF                19811 	.db #0xFF
   4B81 FF                19812 	.db #0xFF
   4B82 FF                19813 	.db #0xFF
   4B83 00                19814 	.db #0x00
   4B84 00                19815 	.db #0x00
   4B85 00                19816 	.db #0x00
   4B86 00                19817 	.db #0x00
   4B87 0F                19818 	.db #0x0F
   4B88 0F                19819 	.db #0x0F
   4B89 FF                19820 	.db #0xFF
   4B8A FF                19821 	.db #0xFF
   4B8B FF                19822 	.db #0xFF
   4B8C FF                19823 	.db #0xFF
   4B8D FF                19824 	.db #0xFF
   4B8E FF                19825 	.db #0xFF
   4B8F FF                19826 	.db #0xFF
   4B90 FF                19827 	.db #0xFF
   4B91 FF                19828 	.db #0xFF
   4B92 FF                19829 	.db #0xFF
   4B93 00                19830 	.db #0x00
   4B94 00                19831 	.db #0x00
   4B95 00                19832 	.db #0x00
   4B96 00                19833 	.db #0x00
   4B97 80                19834 	.db #0x80
   4B98 80                19835 	.db #0x80
   4B99 E0                19836 	.db #0xE0
   4B9A E0                19837 	.db #0xE0
   4B9B F0                19838 	.db #0xF0
   4B9C F0                19839 	.db #0xF0
   4B9D F8                19840 	.db #0xF8
   4B9E F8                19841 	.db #0xF8
   4B9F FC                19842 	.db #0xFC
   4BA0 FC                19843 	.db #0xFC
   4BA1 FE                19844 	.db #0xFE
   4BA2 FE                19845 	.db #0xFE
   4BA3 FF                19846 	.db #0xFF
   4BA4 FF                19847 	.db #0xFF
   4BA5 FF                19848 	.db #0xFF
   4BA6 FF                19849 	.db #0xFF
   4BA7 FF                19850 	.db #0xFF
   4BA8 FF                19851 	.db #0xFF
   4BA9 FF                19852 	.db #0xFF
   4BAA FF                19853 	.db #0xFF
   4BAB FF                19854 	.db #0xFF
   4BAC FF                19855 	.db #0xFF
   4BAD FF                19856 	.db #0xFF
   4BAE FF                19857 	.db #0xFF
   4BAF FF                19858 	.db #0xFF
   4BB0 FF                19859 	.db #0xFF
   4BB1 FF                19860 	.db #0xFF
   4BB2 FF                19861 	.db #0xFF
   4BB3 FF                19862 	.db #0xFF
   4BB4 F0                19863 	.db #0xF0
   4BB5 FF                19864 	.db #0xFF
   4BB6 F8                19865 	.db #0xF8
   4BB7 FF                19866 	.db #0xFF
   4BB8 FC                19867 	.db #0xFC
   4BB9 FF                19868 	.db #0xFF
   4BBA FE                19869 	.db #0xFE
   4BBB FF                19870 	.db #0xFF
   4BBC FF                19871 	.db #0xFF
   4BBD FF                19872 	.db #0xFF
   4BBE FF                19873 	.db #0xFF
   4BBF FF                19874 	.db #0xFF
   4BC0 FF                19875 	.db #0xFF
   4BC1 FF                19876 	.db #0xFF
   4BC2 FF                19877 	.db #0xFF
   4BC3 FF                19878 	.db #0xFF
   4BC4 00                19879 	.db #0x00
   4BC5 FF                19880 	.db #0xFF
   4BC6 00                19881 	.db #0x00
   4BC7 FF                19882 	.db #0xFF
   4BC8 00                19883 	.db #0x00
   4BC9 FF                19884 	.db #0xFF
   4BCA 00                19885 	.db #0x00
   4BCB FF                19886 	.db #0xFF
   4BCC 80                19887 	.db #0x80
   4BCD FF                19888 	.db #0xFF
   4BCE C0                19889 	.db #0xC0
   4BCF FF                19890 	.db #0xFF
   4BD0 F0                19891 	.db #0xF0
   4BD1 FF                19892 	.db #0xFF
   4BD2 F8                19893 	.db #0xF8
   4BD3 FF                19894 	.db #0xFF
   4BD4 03                19895 	.db #0x03
   4BD5 FE                19896 	.db #0xFE
   4BD6 01                19897 	.db #0x01
   4BD7 FF                19898 	.db #0xFF
   4BD8 01                19899 	.db #0x01
   4BD9 FF                19900 	.db #0xFF
   4BDA 01                19901 	.db #0x01
   4BDB FF                19902 	.db #0xFF
   4BDC 01                19903 	.db #0x01
   4BDD FF                19904 	.db #0xFF
   4BDE 01                19905 	.db #0x01
   4BDF FF                19906 	.db #0xFF
   4BE0 01                19907 	.db #0x01
   4BE1 FE                19908 	.db #0xFE
   4BE2 01                19909 	.db #0x01
   4BE3 00                19910 	.db #0x00
   4BE4 00                19911 	.db #0x00
   4BE5 80                19912 	.db #0x80
   4BE6 80                19913 	.db #0x80
   4BE7 80                19914 	.db #0x80
   4BE8 80                19915 	.db #0x80
   4BE9 C0                19916 	.db #0xC0
   4BEA C0                19917 	.db #0xC0
   4BEB E0                19918 	.db #0xE0
   4BEC E0                19919 	.db #0xE0
   4BED E0                19920 	.db #0xE0
   4BEE E0                19921 	.db #0xE0
   4BEF F0                19922 	.db #0xF0
   4BF0 F0                19923 	.db #0xF0
   4BF1 F8                19924 	.db #0xF8
   4BF2 F8                19925 	.db #0xF8
   4BF3 00                19926 	.db #0x00
   4BF4 00                19927 	.db #0x00
   4BF5 01                19928 	.db #0x01
   4BF6 01                19929 	.db #0x01
   4BF7 01                19930 	.db #0x01
   4BF8 01                19931 	.db #0x01
   4BF9 01                19932 	.db #0x01
   4BFA 01                19933 	.db #0x01
   4BFB 01                19934 	.db #0x01
   4BFC 01                19935 	.db #0x01
   4BFD 03                19936 	.db #0x03
   4BFE 03                19937 	.db #0x03
   4BFF 03                19938 	.db #0x03
   4C00 03                19939 	.db #0x03
   4C01 03                19940 	.db #0x03
   4C02 03                19941 	.db #0x03
   4C03 FF                19942 	.db #0xFF
   4C04 FE                19943 	.db #0xFE
   4C05 FF                19944 	.db #0xFF
   4C06 FF                19945 	.db #0xFF
   4C07 FF                19946 	.db #0xFF
   4C08 FF                19947 	.db #0xFF
   4C09 FF                19948 	.db #0xFF
   4C0A FF                19949 	.db #0xFF
   4C0B FF                19950 	.db #0xFF
   4C0C FF                19951 	.db #0xFF
   4C0D FF                19952 	.db #0xFF
   4C0E FF                19953 	.db #0xFF
   4C0F FF                19954 	.db #0xFF
   4C10 FF                19955 	.db #0xFF
   4C11 FF                19956 	.db #0xFF
   4C12 FF                19957 	.db #0xFF
   4C13 FF                19958 	.db #0xFF
   4C14 01                19959 	.db #0x01
   4C15 FF                19960 	.db #0xFF
   4C16 81                19961 	.db #0x81
   4C17 FF                19962 	.db #0xFF
   4C18 C3                19963 	.db #0xC3
   4C19 FF                19964 	.db #0xFF
   4C1A F3                19965 	.db #0xF3
   4C1B FF                19966 	.db #0xFF
   4C1C FF                19967 	.db #0xFF
   4C1D FF                19968 	.db #0xFF
   4C1E FF                19969 	.db #0xFF
   4C1F FF                19970 	.db #0xFF
   4C20 FF                19971 	.db #0xFF
   4C21 FF                19972 	.db #0xFF
   4C22 FF                19973 	.db #0xFF
   4C23 FC                19974 	.db #0xFC
   4C24 FC                19975 	.db #0xFC
   4C25 FE                19976 	.db #0xFE
   4C26 FE                19977 	.db #0xFE
   4C27 FE                19978 	.db #0xFE
   4C28 FE                19979 	.db #0xFE
   4C29 FF                19980 	.db #0xFF
   4C2A FF                19981 	.db #0xFF
   4C2B FF                19982 	.db #0xFF
   4C2C FF                19983 	.db #0xFF
   4C2D FF                19984 	.db #0xFF
   4C2E FF                19985 	.db #0xFF
   4C2F FF                19986 	.db #0xFF
   4C30 FF                19987 	.db #0xFF
   4C31 FF                19988 	.db #0xFF
   4C32 FF                19989 	.db #0xFF
   4C33 00                19990 	.db #0x00
   4C34 00                19991 	.db #0x00
   4C35 00                19992 	.db #0x00
   4C36 00                19993 	.db #0x00
   4C37 00                19994 	.db #0x00
   4C38 00                19995 	.db #0x00
   4C39 00                19996 	.db #0x00
   4C3A 00                19997 	.db #0x00
   4C3B 80                19998 	.db #0x80
   4C3C 80                19999 	.db #0x80
   4C3D 80                20000 	.db #0x80
   4C3E 80                20001 	.db #0x80
   4C3F C0                20002 	.db #0xC0
   4C40 C0                20003 	.db #0xC0
   4C41 C0                20004 	.db #0xC0
   4C42 C0                20005 	.db #0xC0
   4C43 03                20006 	.db #0x03
   4C44 03                20007 	.db #0x03
   4C45 03                20008 	.db #0x03
   4C46 03                20009 	.db #0x03
   4C47 03                20010 	.db #0x03
   4C48 03                20011 	.db #0x03
   4C49 03                20012 	.db #0x03
   4C4A 03                20013 	.db #0x03
   4C4B 03                20014 	.db #0x03
   4C4C 03                20015 	.db #0x03
   4C4D 03                20016 	.db #0x03
   4C4E 03                20017 	.db #0x03
   4C4F 03                20018 	.db #0x03
   4C50 03                20019 	.db #0x03
   4C51 03                20020 	.db #0x03
   4C52 03                20021 	.db #0x03
   4C53 C0                20022 	.db #0xC0
   4C54 C0                20023 	.db #0xC0
   4C55 E0                20024 	.db #0xE0
   4C56 E0                20025 	.db #0xE0
   4C57 E0                20026 	.db #0xE0
   4C58 E0                20027 	.db #0xE0
   4C59 E0                20028 	.db #0xE0
   4C5A E0                20029 	.db #0xE0
   4C5B E0                20030 	.db #0xE0
   4C5C E0                20031 	.db #0xE0
   4C5D F0                20032 	.db #0xF0
   4C5E F0                20033 	.db #0xF0
   4C5F F0                20034 	.db #0xF0
   4C60 F0                20035 	.db #0xF0
   4C61 F0                20036 	.db #0xF0
   4C62 F0                20037 	.db #0xF0
   4C63 03                20038 	.db #0x03
   4C64 03                20039 	.db #0x03
   4C65 07                20040 	.db #0x07
   4C66 07                20041 	.db #0x07
   4C67 07                20042 	.db #0x07
   4C68 07                20043 	.db #0x07
   4C69 07                20044 	.db #0x07
   4C6A 07                20045 	.db #0x07
   4C6B 07                20046 	.db #0x07
   4C6C 07                20047 	.db #0x07
   4C6D 07                20048 	.db #0x07
   4C6E 07                20049 	.db #0x07
   4C6F 07                20050 	.db #0x07
   4C70 07                20051 	.db #0x07
   4C71 0F                20052 	.db #0x0F
   4C72 0F                20053 	.db #0x0F
   4C73 F0                20054 	.db #0xF0
   4C74 F0                20055 	.db #0xF0
   4C75 F8                20056 	.db #0xF8
   4C76 F8                20057 	.db #0xF8
   4C77 F8                20058 	.db #0xF8
   4C78 F8                20059 	.db #0xF8
   4C79 F8                20060 	.db #0xF8
   4C7A F8                20061 	.db #0xF8
   4C7B F8                20062 	.db #0xF8
   4C7C F8                20063 	.db #0xF8
   4C7D F8                20064 	.db #0xF8
   4C7E F8                20065 	.db #0xF8
   4C7F FC                20066 	.db #0xFC
   4C80 FC                20067 	.db #0xFC
   4C81 FC                20068 	.db #0xFC
   4C82 FC                20069 	.db #0xFC
   4C83                   20070 _devil_normal_map:
   4C83 00                20071 	.db #0x00
   4C84 00                20072 	.db #0x00
   4C85 00                20073 	.db #0x00
   4C86 00                20074 	.db #0x00
   4C87 00                20075 	.db #0x00
   4C88 00                20076 	.db #0x00
   4C89 00                20077 	.db #0x00
   4C8A 00                20078 	.db #0x00
   4C8B 00                20079 	.db #0x00
   4C8C 00                20080 	.db #0x00
   4C8D 00                20081 	.db #0x00
   4C8E 00                20082 	.db #0x00
   4C8F 00                20083 	.db #0x00
   4C90 00                20084 	.db #0x00
   4C91 00                20085 	.db #0x00
   4C92 00                20086 	.db #0x00
   4C93 00                20087 	.db #0x00
   4C94 00                20088 	.db #0x00
   4C95 00                20089 	.db #0x00
   4C96 00                20090 	.db #0x00
   4C97 00                20091 	.db #0x00
   4C98 00                20092 	.db #0x00
   4C99 00                20093 	.db #0x00
   4C9A 00                20094 	.db #0x00
   4C9B 00                20095 	.db #0x00
   4C9C 00                20096 	.db #0x00
   4C9D 01                20097 	.db #0x01
   4C9E 00                20098 	.db #0x00
   4C9F 00                20099 	.db #0x00
   4CA0 00                20100 	.db #0x00
   4CA1 00                20101 	.db #0x00
   4CA2 00                20102 	.db #0x00
   4CA3 02                20103 	.db #0x02
   4CA4 03                20104 	.db #0x03
   4CA5 00                20105 	.db #0x00
   4CA6 00                20106 	.db #0x00
   4CA7 00                20107 	.db #0x00
   4CA8 00                20108 	.db #0x00
   4CA9 00                20109 	.db #0x00
   4CAA 00                20110 	.db #0x00
   4CAB 00                20111 	.db #0x00
   4CAC 00                20112 	.db #0x00
   4CAD 00                20113 	.db #0x00
   4CAE 00                20114 	.db #0x00
   4CAF 00                20115 	.db #0x00
   4CB0 04                20116 	.db #0x04
   4CB1 05                20117 	.db #0x05
   4CB2 06                20118 	.db #0x06
   4CB3 00                20119 	.db #0x00
   4CB4 07                20120 	.db #0x07
   4CB5 08                20121 	.db #0x08
   4CB6 09                20122 	.db #0x09
   4CB7 0A                20123 	.db #0x0A
   4CB8 0B                20124 	.db #0x0B
   4CB9 00                20125 	.db #0x00
   4CBA 00                20126 	.db #0x00
   4CBB 00                20127 	.db #0x00
   4CBC 00                20128 	.db #0x00
   4CBD 00                20129 	.db #0x00
   4CBE 00                20130 	.db #0x00
   4CBF 00                20131 	.db #0x00
   4CC0 00                20132 	.db #0x00
   4CC1 00                20133 	.db #0x00
   4CC2 00                20134 	.db #0x00
   4CC3 00                20135 	.db #0x00
   4CC4 0C                20136 	.db #0x0C
   4CC5 0D                20137 	.db #0x0D
   4CC6 0E                20138 	.db #0x0E
   4CC7 0F                20139 	.db #0x0F
   4CC8 10                20140 	.db #0x10
   4CC9 11                20141 	.db #0x11
   4CCA 12                20142 	.db #0x12
   4CCB 13                20143 	.db #0x13
   4CCC 14                20144 	.db #0x14
   4CCD 15                20145 	.db #0x15
   4CCE 00                20146 	.db #0x00
   4CCF 00                20147 	.db #0x00
   4CD0 00                20148 	.db #0x00
   4CD1 00                20149 	.db #0x00
   4CD2 00                20150 	.db #0x00
   4CD3 00                20151 	.db #0x00
   4CD4 00                20152 	.db #0x00
   4CD5 00                20153 	.db #0x00
   4CD6 00                20154 	.db #0x00
   4CD7 00                20155 	.db #0x00
   4CD8 16                20156 	.db #0x16
   4CD9 17                20157 	.db #0x17
   4CDA 18                20158 	.db #0x18
   4CDB 19                20159 	.db #0x19
   4CDC 1A                20160 	.db #0x1A
   4CDD 1B                20161 	.db #0x1B
   4CDE 1B                20162 	.db #0x1B
   4CDF 1C                20163 	.db #0x1C
   4CE0 1D                20164 	.db #0x1D
   4CE1 1E                20165 	.db #0x1E
   4CE2 1F                20166 	.db #0x1F
   4CE3 00                20167 	.db #0x00
   4CE4 00                20168 	.db #0x00
   4CE5 00                20169 	.db #0x00
   4CE6 00                20170 	.db #0x00
   4CE7 00                20171 	.db #0x00
   4CE8 00                20172 	.db #0x00
   4CE9 00                20173 	.db #0x00
   4CEA 00                20174 	.db #0x00
   4CEB 00                20175 	.db #0x00
   4CEC 20                20176 	.db #0x20
   4CED 21                20177 	.db #0x21
   4CEE 22                20178 	.db #0x22
   4CEF 23                20179 	.db #0x23
   4CF0 24                20180 	.db #0x24
   4CF1 25                20181 	.db #0x25
   4CF2 26                20182 	.db #0x26
   4CF3 27                20183 	.db #0x27
   4CF4 28                20184 	.db #0x28
   4CF5 29                20185 	.db #0x29
   4CF6 2A                20186 	.db #0x2A
   4CF7 00                20187 	.db #0x00
   4CF8 00                20188 	.db #0x00
   4CF9 00                20189 	.db #0x00
   4CFA 00                20190 	.db #0x00
   4CFB 00                20191 	.db #0x00
   4CFC 00                20192 	.db #0x00
   4CFD 00                20193 	.db #0x00
   4CFE 00                20194 	.db #0x00
   4CFF 00                20195 	.db #0x00
   4D00 2B                20196 	.db #0x2B
   4D01 2C                20197 	.db #0x2C
   4D02 2D                20198 	.db #0x2D
   4D03 2E                20199 	.db #0x2E
   4D04 2F                20200 	.db #0x2F
   4D05 30                20201 	.db #0x30
   4D06 31                20202 	.db #0x31
   4D07 32                20203 	.db #0x32
   4D08 33                20204 	.db #0x33
   4D09 34                20205 	.db #0x34
   4D0A 00                20206 	.db #0x00
   4D0B 00                20207 	.db #0x00
   4D0C 00                20208 	.db #0x00
   4D0D 00                20209 	.db #0x00
   4D0E 00                20210 	.db #0x00
   4D0F 00                20211 	.db #0x00
   4D10 00                20212 	.db #0x00
   4D11 00                20213 	.db #0x00
   4D12 00                20214 	.db #0x00
   4D13 00                20215 	.db #0x00
   4D14 35                20216 	.db #0x35
   4D15 36                20217 	.db #0x36
   4D16 37                20218 	.db #0x37
   4D17 38                20219 	.db #0x38
   4D18 39                20220 	.db #0x39
   4D19 3A                20221 	.db #0x3A
   4D1A 3B                20222 	.db #0x3B
   4D1B 3C                20223 	.db #0x3C
   4D1C 3D                20224 	.db #0x3D
   4D1D 3E                20225 	.db #0x3E
   4D1E 00                20226 	.db #0x00
   4D1F 00                20227 	.db #0x00
   4D20 00                20228 	.db #0x00
   4D21 00                20229 	.db #0x00
   4D22 00                20230 	.db #0x00
   4D23 00                20231 	.db #0x00
   4D24 00                20232 	.db #0x00
   4D25 00                20233 	.db #0x00
   4D26 00                20234 	.db #0x00
   4D27 00                20235 	.db #0x00
   4D28 00                20236 	.db #0x00
   4D29 3F                20237 	.db #0x3F
   4D2A 40                20238 	.db #0x40
   4D2B 41                20239 	.db #0x41
   4D2C 42                20240 	.db #0x42
   4D2D 43                20241 	.db #0x43
   4D2E 44                20242 	.db #0x44
   4D2F 45                20243 	.db #0x45
   4D30 46                20244 	.db #0x46
   4D31 47                20245 	.db #0x47
   4D32 00                20246 	.db #0x00
   4D33 00                20247 	.db #0x00
   4D34 00                20248 	.db #0x00
   4D35 00                20249 	.db #0x00
   4D36 00                20250 	.db #0x00
   4D37 00                20251 	.db #0x00
   4D38 00                20252 	.db #0x00
   4D39 00                20253 	.db #0x00
   4D3A 00                20254 	.db #0x00
   4D3B 00                20255 	.db #0x00
   4D3C 00                20256 	.db #0x00
   4D3D 48                20257 	.db #0x48
   4D3E 49                20258 	.db #0x49
   4D3F 4A                20259 	.db #0x4A
   4D40 4B                20260 	.db #0x4B
   4D41 4C                20261 	.db #0x4C
   4D42 4D                20262 	.db #0x4D
   4D43 4E                20263 	.db #0x4E
   4D44 4F                20264 	.db #0x4F
   4D45 50                20265 	.db #0x50
   4D46 00                20266 	.db #0x00
   4D47 00                20267 	.db #0x00
   4D48 00                20268 	.db #0x00
   4D49 00                20269 	.db #0x00
   4D4A 00                20270 	.db #0x00
   4D4B 00                20271 	.db #0x00
   4D4C 00                20272 	.db #0x00
   4D4D 00                20273 	.db #0x00
   4D4E 00                20274 	.db #0x00
   4D4F 00                20275 	.db #0x00
   4D50 00                20276 	.db #0x00
   4D51 51                20277 	.db #0x51
   4D52 52                20278 	.db #0x52
   4D53 1B                20279 	.db #0x1B
   4D54 53                20280 	.db #0x53
   4D55 54                20281 	.db #0x54
   4D56 55                20282 	.db #0x55
   4D57 56                20283 	.db #0x56
   4D58 57                20284 	.db #0x57
   4D59 58                20285 	.db #0x58
   4D5A 00                20286 	.db #0x00
   4D5B 00                20287 	.db #0x00
   4D5C 00                20288 	.db #0x00
   4D5D 00                20289 	.db #0x00
   4D5E 00                20290 	.db #0x00
   4D5F 00                20291 	.db #0x00
   4D60 00                20292 	.db #0x00
   4D61 00                20293 	.db #0x00
   4D62 00                20294 	.db #0x00
   4D63 00                20295 	.db #0x00
   4D64 59                20296 	.db #0x59
   4D65 5A                20297 	.db #0x5A
   4D66 5B                20298 	.db #0x5B
   4D67 5C                20299 	.db #0x5C
   4D68 5D                20300 	.db #0x5D
   4D69 5E                20301 	.db #0x5E
   4D6A 1B                20302 	.db #0x1B
   4D6B 1B                20303 	.db #0x1B
   4D6C 5F                20304 	.db #0x5F
   4D6D 60                20305 	.db #0x60
   4D6E 61                20306 	.db #0x61
   4D6F 00                20307 	.db #0x00
   4D70 00                20308 	.db #0x00
   4D71 00                20309 	.db #0x00
   4D72 00                20310 	.db #0x00
   4D73 00                20311 	.db #0x00
   4D74 00                20312 	.db #0x00
   4D75 00                20313 	.db #0x00
   4D76 00                20314 	.db #0x00
   4D77 00                20315 	.db #0x00
   4D78 62                20316 	.db #0x62
   4D79 63                20317 	.db #0x63
   4D7A 1B                20318 	.db #0x1B
   4D7B 64                20319 	.db #0x64
   4D7C 65                20320 	.db #0x65
   4D7D 66                20321 	.db #0x66
   4D7E 67                20322 	.db #0x67
   4D7F 68                20323 	.db #0x68
   4D80 69                20324 	.db #0x69
   4D81 6A                20325 	.db #0x6A
   4D82 6B                20326 	.db #0x6B
   4D83 00                20327 	.db #0x00
   4D84 00                20328 	.db #0x00
   4D85 00                20329 	.db #0x00
   4D86 00                20330 	.db #0x00
   4D87 00                20331 	.db #0x00
   4D88 00                20332 	.db #0x00
   4D89 00                20333 	.db #0x00
   4D8A 6C                20334 	.db #0x6C
   4D8B 6D                20335 	.db #0x6D
   4D8C 6E                20336 	.db #0x6E
   4D8D 6F                20337 	.db #0x6F
   4D8E 52                20338 	.db #0x52
   4D8F 1B                20339 	.db #0x1B
   4D90 70                20340 	.db #0x70
   4D91 71                20341 	.db #0x71
   4D92 72                20342 	.db #0x72
   4D93 73                20343 	.db #0x73
   4D94 00                20344 	.db #0x00
   4D95 00                20345 	.db #0x00
   4D96 00                20346 	.db #0x00
   4D97 00                20347 	.db #0x00
   4D98 00                20348 	.db #0x00
   4D99 00                20349 	.db #0x00
   4D9A 00                20350 	.db #0x00
   4D9B 00                20351 	.db #0x00
   4D9C 00                20352 	.db #0x00
   4D9D 00                20353 	.db #0x00
   4D9E 74                20354 	.db #0x74
   4D9F 74                20355 	.db #0x74
   4DA0 74                20356 	.db #0x74
   4DA1 74                20357 	.db #0x74
   4DA2 75                20358 	.db #0x75
   4DA3 76                20359 	.db #0x76
   4DA4 77                20360 	.db #0x77
   4DA5 74                20361 	.db #0x74
   4DA6 74                20362 	.db #0x74
   4DA7 74                20363 	.db #0x74
   4DA8 78                20364 	.db #0x78
   4DA9 00                20365 	.db #0x00
   4DAA 00                20366 	.db #0x00
   4DAB 00                20367 	.db #0x00
   4DAC 00                20368 	.db #0x00
   4DAD 00                20369 	.db #0x00
   4DAE 00                20370 	.db #0x00
   4DAF 00                20371 	.db #0x00
   4DB0 00                20372 	.db #0x00
   4DB1 79                20373 	.db #0x79
   4DB2 74                20374 	.db #0x74
   4DB3 74                20375 	.db #0x74
   4DB4 74                20376 	.db #0x74
   4DB5 74                20377 	.db #0x74
   4DB6 74                20378 	.db #0x74
   4DB7 7A                20379 	.db #0x7A
   4DB8 7B                20380 	.db #0x7B
   4DB9 74                20381 	.db #0x74
   4DBA 74                20382 	.db #0x74
   4DBB 74                20383 	.db #0x74
   4DBC 7C                20384 	.db #0x7C
   4DBD 7D                20385 	.db #0x7D
   4DBE 00                20386 	.db #0x00
   4DBF 00                20387 	.db #0x00
   4DC0 00                20388 	.db #0x00
   4DC1 00                20389 	.db #0x00
   4DC2 00                20390 	.db #0x00
   4DC3 00                20391 	.db #0x00
   4DC4 00                20392 	.db #0x00
   4DC5 7E                20393 	.db #0x7E
   4DC6 74                20394 	.db #0x74
   4DC7 74                20395 	.db #0x74
   4DC8 74                20396 	.db #0x74
   4DC9 74                20397 	.db #0x74
   4DCA 74                20398 	.db #0x74
   4DCB 74                20399 	.db #0x74
   4DCC 74                20400 	.db #0x74
   4DCD 74                20401 	.db #0x74
   4DCE 74                20402 	.db #0x74
   4DCF 74                20403 	.db #0x74
   4DD0 74                20404 	.db #0x74
   4DD1 7F                20405 	.db #0x7F
   4DD2 00                20406 	.db #0x00
   4DD3 00                20407 	.db #0x00
   4DD4 00                20408 	.db #0x00
   4DD5 00                20409 	.db #0x00
   4DD6 00                20410 	.db #0x00
   4DD7 00                20411 	.db #0x00
   4DD8 00                20412 	.db #0x00
   4DD9 80                20413 	.db #0x80
   4DDA 74                20414 	.db #0x74
   4DDB 74                20415 	.db #0x74
   4DDC 74                20416 	.db #0x74
   4DDD 74                20417 	.db #0x74
   4DDE 74                20418 	.db #0x74
   4DDF 74                20419 	.db #0x74
   4DE0 74                20420 	.db #0x74
   4DE1 74                20421 	.db #0x74
   4DE2 74                20422 	.db #0x74
   4DE3 74                20423 	.db #0x74
   4DE4 74                20424 	.db #0x74
   4DE5 81                20425 	.db #0x81
   4DE6 00                20426 	.db #0x00
   4DE7 00                20427 	.db #0x00
   4DE8 00                20428 	.db #0x00
   4DE9 00                20429 	.db #0x00
   4DEA 00                20430 	.db #0x00
   4DEB                   20431 _SpriteKeys:
   4DEB 3C                20432 	.db #0x3C
   4DEC 3C                20433 	.db #0x3C
   4DED 42                20434 	.db #0x42
   4DEE 42                20435 	.db #0x42
   4DEF 81                20436 	.db #0x81
   4DF0 81                20437 	.db #0x81
   4DF1 81                20438 	.db #0x81
   4DF2 81                20439 	.db #0x81
   4DF3 81                20440 	.db #0x81
   4DF4 81                20441 	.db #0x81
   4DF5 81                20442 	.db #0x81
   4DF6 81                20443 	.db #0x81
   4DF7 42                20444 	.db #0x42
   4DF8 42                20445 	.db #0x42
   4DF9 3C                20446 	.db #0x3C
   4DFA 3C                20447 	.db #0x3C
   4DFB 30                20448 	.db #0x30
   4DFC 30                20449 	.db #0x30
   4DFD 50                20450 	.db #0x50
   4DFE 50                20451 	.db #0x50
   4DFF 10                20452 	.db #0x10
   4E00 10                20453 	.db #0x10
   4E01 10                20454 	.db #0x10
   4E02 10                20455 	.db #0x10
   4E03 10                20456 	.db #0x10
   4E04 10                20457 	.db #0x10
   4E05 10                20458 	.db #0x10
   4E06 10                20459 	.db #0x10
   4E07 10                20460 	.db #0x10
   4E08 10                20461 	.db #0x10
   4E09 FF                20462 	.db #0xFF
   4E0A FF                20463 	.db #0xFF
   4E0B 7E                20464 	.db #0x7E
   4E0C 7E                20465 	.db #0x7E
   4E0D 81                20466 	.db #0x81
   4E0E 81                20467 	.db #0x81
   4E0F 01                20468 	.db #0x01
   4E10 01                20469 	.db #0x01
   4E11 06                20470 	.db #0x06
   4E12 06                20471 	.db #0x06
   4E13 18                20472 	.db #0x18
   4E14 18                20473 	.db #0x18
   4E15 61                20474 	.db #0x61
   4E16 61                20475 	.db #0x61
   4E17 81                20476 	.db #0x81
   4E18 81                20477 	.db #0x81
   4E19 FF                20478 	.db #0xFF
   4E1A FF                20479 	.db #0xFF
   4E1B 7E                20480 	.db #0x7E
   4E1C 7E                20481 	.db #0x7E
   4E1D 81                20482 	.db #0x81
   4E1E 81                20483 	.db #0x81
   4E1F 81                20484 	.db #0x81
   4E20 81                20485 	.db #0x81
   4E21 0E                20486 	.db #0x0E
   4E22 0E                20487 	.db #0x0E
   4E23 01                20488 	.db #0x01
   4E24 01                20489 	.db #0x01
   4E25 01                20490 	.db #0x01
   4E26 01                20491 	.db #0x01
   4E27 81                20492 	.db #0x81
   4E28 81                20493 	.db #0x81
   4E29 7E                20494 	.db #0x7E
   4E2A 7E                20495 	.db #0x7E
   4E2B 06                20496 	.db #0x06
   4E2C 06                20497 	.db #0x06
   4E2D 0A                20498 	.db #0x0A
   4E2E 0A                20499 	.db #0x0A
   4E2F 12                20500 	.db #0x12
   4E30 12                20501 	.db #0x12
   4E31 22                20502 	.db #0x22
   4E32 22                20503 	.db #0x22
   4E33 42                20504 	.db #0x42
   4E34 42                20505 	.db #0x42
   4E35 FF                20506 	.db #0xFF
   4E36 FF                20507 	.db #0xFF
   4E37 02                20508 	.db #0x02
   4E38 02                20509 	.db #0x02
   4E39 07                20510 	.db #0x07
   4E3A 07                20511 	.db #0x07
   4E3B FF                20512 	.db #0xFF
   4E3C FF                20513 	.db #0xFF
   4E3D 81                20514 	.db #0x81
   4E3E 81                20515 	.db #0x81
   4E3F 80                20516 	.db #0x80
   4E40 80                20517 	.db #0x80
   4E41 FE                20518 	.db #0xFE
   4E42 FE                20519 	.db #0xFE
   4E43 01                20520 	.db #0x01
   4E44 01                20521 	.db #0x01
   4E45 81                20522 	.db #0x81
   4E46 81                20523 	.db #0x81
   4E47 81                20524 	.db #0x81
   4E48 81                20525 	.db #0x81
   4E49 7E                20526 	.db #0x7E
   4E4A 7E                20527 	.db #0x7E
   4E4B 7E                20528 	.db #0x7E
   4E4C 7E                20529 	.db #0x7E
   4E4D 81                20530 	.db #0x81
   4E4E 81                20531 	.db #0x81
   4E4F 80                20532 	.db #0x80
   4E50 80                20533 	.db #0x80
   4E51 FE                20534 	.db #0xFE
   4E52 FE                20535 	.db #0xFE
   4E53 81                20536 	.db #0x81
   4E54 81                20537 	.db #0x81
   4E55 81                20538 	.db #0x81
   4E56 81                20539 	.db #0x81
   4E57 81                20540 	.db #0x81
   4E58 81                20541 	.db #0x81
   4E59 7E                20542 	.db #0x7E
   4E5A 7E                20543 	.db #0x7E
   4E5B FF                20544 	.db #0xFF
   4E5C FF                20545 	.db #0xFF
   4E5D 81                20546 	.db #0x81
   4E5E 81                20547 	.db #0x81
   4E5F 02                20548 	.db #0x02
   4E60 02                20549 	.db #0x02
   4E61 04                20550 	.db #0x04
   4E62 04                20551 	.db #0x04
   4E63 08                20552 	.db #0x08
   4E64 08                20553 	.db #0x08
   4E65 10                20554 	.db #0x10
   4E66 10                20555 	.db #0x10
   4E67 10                20556 	.db #0x10
   4E68 10                20557 	.db #0x10
   4E69 38                20558 	.db #0x38
   4E6A 38                20559 	.db #0x38
   4E6B 7E                20560 	.db #0x7E
   4E6C 7E                20561 	.db #0x7E
   4E6D 81                20562 	.db #0x81
   4E6E 81                20563 	.db #0x81
   4E6F 81                20564 	.db #0x81
   4E70 81                20565 	.db #0x81
   4E71 7E                20566 	.db #0x7E
   4E72 7E                20567 	.db #0x7E
   4E73 81                20568 	.db #0x81
   4E74 81                20569 	.db #0x81
   4E75 81                20570 	.db #0x81
   4E76 81                20571 	.db #0x81
   4E77 81                20572 	.db #0x81
   4E78 81                20573 	.db #0x81
   4E79 7E                20574 	.db #0x7E
   4E7A 7E                20575 	.db #0x7E
   4E7B 7E                20576 	.db #0x7E
   4E7C 7E                20577 	.db #0x7E
   4E7D 81                20578 	.db #0x81
   4E7E 81                20579 	.db #0x81
   4E7F 81                20580 	.db #0x81
   4E80 81                20581 	.db #0x81
   4E81 81                20582 	.db #0x81
   4E82 81                20583 	.db #0x81
   4E83 7F                20584 	.db #0x7F
   4E84 7F                20585 	.db #0x7F
   4E85 01                20586 	.db #0x01
   4E86 01                20587 	.db #0x01
   4E87 81                20588 	.db #0x81
   4E88 81                20589 	.db #0x81
   4E89 7E                20590 	.db #0x7E
   4E8A 7E                20591 	.db #0x7E
   4E8B 00                20592 	.db #0x00
   4E8C FF                20593 	.db #0xFF
   4E8D 7E                20594 	.db #0x7E
   4E8E C3                20595 	.db #0xC3
   4E8F 7E                20596 	.db #0x7E
   4E90 C3                20597 	.db #0xC3
   4E91 7E                20598 	.db #0x7E
   4E92 FF                20599 	.db #0xFF
   4E93 7E                20600 	.db #0x7E
   4E94 C3                20601 	.db #0xC3
   4E95 7E                20602 	.db #0x7E
   4E96 C3                20603 	.db #0xC3
   4E97 7E                20604 	.db #0x7E
   4E98 C3                20605 	.db #0xC3
   4E99 00                20606 	.db #0x00
   4E9A FF                20607 	.db #0xFF
   4E9B 00                20608 	.db #0x00
   4E9C 3C                20609 	.db #0x3C
   4E9D 3C                20610 	.db #0x3C
   4E9E 42                20611 	.db #0x42
   4E9F 7E                20612 	.db #0x7E
   4EA0 A5                20613 	.db #0xA5
   4EA1 7E                20614 	.db #0x7E
   4EA2 81                20615 	.db #0x81
   4EA3 66                20616 	.db #0x66
   4EA4 99                20617 	.db #0x99
   4EA5 7E                20618 	.db #0x7E
   4EA6 81                20619 	.db #0x81
   4EA7 66                20620 	.db #0x66
   4EA8 99                20621 	.db #0x99
   4EA9 00                20622 	.db #0x00
   4EAA 66                20623 	.db #0x66
   4EAB 00                20624 	.db #0x00
   4EAC FF                20625 	.db #0xFF
   4EAD 7F                20626 	.db #0x7F
   4EAE F0                20627 	.db #0xF0
   4EAF 7F                20628 	.db #0x7F
   4EB0 D0                20629 	.db #0xD0
   4EB1 7F                20630 	.db #0x7F
   4EB2 F0                20631 	.db #0xF0
   4EB3 7F                20632 	.db #0x7F
   4EB4 D0                20633 	.db #0xD0
   4EB5 7F                20634 	.db #0x7F
   4EB6 D0                20635 	.db #0xD0
   4EB7 7F                20636 	.db #0x7F
   4EB8 80                20637 	.db #0x80
   4EB9 7F                20638 	.db #0x7F
   4EBA 80                20639 	.db #0x80
   4EBB 07                20640 	.db #0x07
   4EBC FE                20641 	.db #0xFE
   4EBD F7                20642 	.db #0xF7
   4EBE 0B                20643 	.db #0x0B
   4EBF F7                20644 	.db #0xF7
   4EC0 0F                20645 	.db #0x0F
   4EC1 F7                20646 	.db #0xF7
   4EC2 0E                20647 	.db #0x0E
   4EC3 F7                20648 	.db #0xF7
   4EC4 0B                20649 	.db #0x0B
   4EC5 F0                20650 	.db #0xF0
   4EC6 0F                20651 	.db #0x0F
   4EC7 FE                20652 	.db #0xFE
   4EC8 01                20653 	.db #0x01
   4EC9 FE                20654 	.db #0xFE
   4ECA 01                20655 	.db #0x01
   4ECB 7F                20656 	.db #0x7F
   4ECC 80                20657 	.db #0x80
   4ECD 7F                20658 	.db #0x7F
   4ECE 80                20659 	.db #0x80
   4ECF 7F                20660 	.db #0x7F
   4ED0 81                20661 	.db #0x81
   4ED1 7F                20662 	.db #0x7F
   4ED2 83                20663 	.db #0x83
   4ED3 7F                20664 	.db #0x7F
   4ED4 87                20665 	.db #0x87
   4ED5 7F                20666 	.db #0x7F
   4ED6 8F                20667 	.db #0x8F
   4ED7 7F                20668 	.db #0x7F
   4ED8 8F                20669 	.db #0x8F
   4ED9 7F                20670 	.db #0x7F
   4EDA 9F                20671 	.db #0x9F
   4EDB FE                20672 	.db #0xFE
   4EDC 01                20673 	.db #0x01
   4EDD FE                20674 	.db #0xFE
   4EDE 01                20675 	.db #0x01
   4EDF FE                20676 	.db #0xFE
   4EE0 81                20677 	.db #0x81
   4EE1 FE                20678 	.db #0xFE
   4EE2 C1                20679 	.db #0xC1
   4EE3 FE                20680 	.db #0xFE
   4EE4 E1                20681 	.db #0xE1
   4EE5 FE                20682 	.db #0xFE
   4EE6 F1                20683 	.db #0xF1
   4EE7 FE                20684 	.db #0xFE
   4EE8 F1                20685 	.db #0xF1
   4EE9 FE                20686 	.db #0xFE
   4EEA F9                20687 	.db #0xF9
   4EEB 7F                20688 	.db #0x7F
   4EEC 9F                20689 	.db #0x9F
   4EED 7F                20690 	.db #0x7F
   4EEE BF                20691 	.db #0xBF
   4EEF 7F                20692 	.db #0x7F
   4EF0 BF                20693 	.db #0xBF
   4EF1 7F                20694 	.db #0x7F
   4EF2 BF                20695 	.db #0xBF
   4EF3 7F                20696 	.db #0x7F
   4EF4 BF                20697 	.db #0xBF
   4EF5 7F                20698 	.db #0x7F
   4EF6 9D                20699 	.db #0x9D
   4EF7 7F                20700 	.db #0x7F
   4EF8 83                20701 	.db #0x83
   4EF9 7F                20702 	.db #0x7F
   4EFA 81                20703 	.db #0x81
   4EFB FE                20704 	.db #0xFE
   4EFC F9                20705 	.db #0xF9
   4EFD FE                20706 	.db #0xFE
   4EFE FD                20707 	.db #0xFD
   4EFF FE                20708 	.db #0xFE
   4F00 FD                20709 	.db #0xFD
   4F01 FE                20710 	.db #0xFE
   4F02 FD                20711 	.db #0xFD
   4F03 FE                20712 	.db #0xFE
   4F04 FD                20713 	.db #0xFD
   4F05 FE                20714 	.db #0xFE
   4F06 B9                20715 	.db #0xB9
   4F07 FE                20716 	.db #0xFE
   4F08 C1                20717 	.db #0xC1
   4F09 FE                20718 	.db #0xFE
   4F0A 81                20719 	.db #0x81
   4F0B 7F                20720 	.db #0x7F
   4F0C 80                20721 	.db #0x80
   4F0D 7F                20722 	.db #0x7F
   4F0E 80                20723 	.db #0x80
   4F0F 0F                20724 	.db #0x0F
   4F10 F0                20725 	.db #0xF0
   4F11 EF                20726 	.db #0xEF
   4F12 D0                20727 	.db #0xD0
   4F13 EF                20728 	.db #0xEF
   4F14 70                20729 	.db #0x70
   4F15 EF                20730 	.db #0xEF
   4F16 F0                20731 	.db #0xF0
   4F17 EF                20732 	.db #0xEF
   4F18 D0                20733 	.db #0xD0
   4F19 E0                20734 	.db #0xE0
   4F1A 7F                20735 	.db #0x7F
   4F1B FE                20736 	.db #0xFE
   4F1C 01                20737 	.db #0x01
   4F1D FE                20738 	.db #0xFE
   4F1E 01                20739 	.db #0x01
   4F1F FE                20740 	.db #0xFE
   4F20 0F                20741 	.db #0x0F
   4F21 FE                20742 	.db #0xFE
   4F22 0B                20743 	.db #0x0B
   4F23 FE                20744 	.db #0xFE
   4F24 0F                20745 	.db #0x0F
   4F25 FE                20746 	.db #0xFE
   4F26 0B                20747 	.db #0x0B
   4F27 FE                20748 	.db #0xFE
   4F28 0B                20749 	.db #0x0B
   4F29 00                20750 	.db #0x00
   4F2A FF                20751 	.db #0xFF
   4F2B 00                20752 	.db #0x00
   4F2C FF                20753 	.db #0xFF
   4F2D 7F                20754 	.db #0x7F
   4F2E F0                20755 	.db #0xF0
   4F2F 7F                20756 	.db #0x7F
   4F30 90                20757 	.db #0x90
   4F31 7F                20758 	.db #0x7F
   4F32 B0                20759 	.db #0xB0
   4F33 7F                20760 	.db #0x7F
   4F34 C0                20761 	.db #0xC0
   4F35 7F                20762 	.db #0x7F
   4F36 F0                20763 	.db #0xF0
   4F37 7F                20764 	.db #0x7F
   4F38 80                20765 	.db #0x80
   4F39 7F                20766 	.db #0x7F
   4F3A 80                20767 	.db #0x80
   4F3B 7F                20768 	.db #0x7F
   4F3C 98                20769 	.db #0x98
   4F3D 7F                20770 	.db #0x7F
   4F3E 8C                20771 	.db #0x8C
   4F3F 7F                20772 	.db #0x7F
   4F40 9C                20773 	.db #0x9C
   4F41 7F                20774 	.db #0x7F
   4F42 98                20775 	.db #0x98
   4F43 7F                20776 	.db #0x7F
   4F44 8C                20777 	.db #0x8C
   4F45 7F                20778 	.db #0x7F
   4F46 80                20779 	.db #0x80
   4F47 7F                20780 	.db #0x7F
   4F48 80                20781 	.db #0x80
   4F49 7F                20782 	.db #0x7F
   4F4A 80                20783 	.db #0x80
   4F4B FE                20784 	.db #0xFE
   4F4C 01                20785 	.db #0x01
   4F4D FE                20786 	.db #0xFE
   4F4E 01                20787 	.db #0x01
   4F4F FE                20788 	.db #0xFE
   4F50 01                20789 	.db #0x01
   4F51 FE                20790 	.db #0xFE
   4F52 01                20791 	.db #0x01
   4F53 FE                20792 	.db #0xFE
   4F54 01                20793 	.db #0x01
   4F55 FE                20794 	.db #0xFE
   4F56 01                20795 	.db #0x01
   4F57 FE                20796 	.db #0xFE
   4F58 01                20797 	.db #0x01
   4F59 FE                20798 	.db #0xFE
   4F5A 01                20799 	.db #0x01
   4F5B 7F                20800 	.db #0x7F
   4F5C 80                20801 	.db #0x80
   4F5D 7F                20802 	.db #0x7F
   4F5E 80                20803 	.db #0x80
   4F5F 7F                20804 	.db #0x7F
   4F60 80                20805 	.db #0x80
   4F61 7F                20806 	.db #0x7F
   4F62 80                20807 	.db #0x80
   4F63 7F                20808 	.db #0x7F
   4F64 80                20809 	.db #0x80
   4F65 7F                20810 	.db #0x7F
   4F66 80                20811 	.db #0x80
   4F67 7F                20812 	.db #0x7F
   4F68 80                20813 	.db #0x80
   4F69 7F                20814 	.db #0x7F
   4F6A 80                20815 	.db #0x80
   4F6B FE                20816 	.db #0xFE
   4F6C 01                20817 	.db #0x01
   4F6D FE                20818 	.db #0xFE
   4F6E 31                20819 	.db #0x31
   4F6F FE                20820 	.db #0xFE
   4F70 19                20821 	.db #0x19
   4F71 FE                20822 	.db #0xFE
   4F72 39                20823 	.db #0x39
   4F73 FE                20824 	.db #0xFE
   4F74 31                20825 	.db #0x31
   4F75 FE                20826 	.db #0xFE
   4F76 19                20827 	.db #0x19
   4F77 FE                20828 	.db #0xFE
   4F78 01                20829 	.db #0x01
   4F79 FE                20830 	.db #0xFE
   4F7A 01                20831 	.db #0x01
   4F7B FE                20832 	.db #0xFE
   4F7C 01                20833 	.db #0x01
   4F7D FE                20834 	.db #0xFE
   4F7E 01                20835 	.db #0x01
   4F7F FE                20836 	.db #0xFE
   4F80 0F                20837 	.db #0x0F
   4F81 FE                20838 	.db #0xFE
   4F82 03                20839 	.db #0x03
   4F83 FE                20840 	.db #0xFE
   4F84 07                20841 	.db #0x07
   4F85 FE                20842 	.db #0xFE
   4F86 09                20843 	.db #0x09
   4F87 FE                20844 	.db #0xFE
   4F88 0F                20845 	.db #0x0F
   4F89 00                20846 	.db #0x00
   4F8A FF                20847 	.db #0xFF
   4F8B 00                20848 	.db #0x00
   4F8C FF                20849 	.db #0xFF
   4F8D 7F                20850 	.db #0x7F
   4F8E F0                20851 	.db #0xF0
   4F8F 7F                20852 	.db #0x7F
   4F90 90                20853 	.db #0x90
   4F91 7F                20854 	.db #0x7F
   4F92 B0                20855 	.db #0xB0
   4F93 7F                20856 	.db #0x7F
   4F94 90                20857 	.db #0x90
   4F95 7F                20858 	.db #0x7F
   4F96 F0                20859 	.db #0xF0
   4F97 7F                20860 	.db #0x7F
   4F98 80                20861 	.db #0x80
   4F99 7F                20862 	.db #0x7F
   4F9A 80                20863 	.db #0x80
   4F9B 7F                20864 	.db #0x7F
   4F9C 80                20865 	.db #0x80
   4F9D 7F                20866 	.db #0x7F
   4F9E 81                20867 	.db #0x81
   4F9F 7F                20868 	.db #0x7F
   4FA0 80                20869 	.db #0x80
   4FA1 7F                20870 	.db #0x7F
   4FA2 81                20871 	.db #0x81
   4FA3 7F                20872 	.db #0x7F
   4FA4 81                20873 	.db #0x81
   4FA5 7F                20874 	.db #0x7F
   4FA6 80                20875 	.db #0x80
   4FA7 7F                20876 	.db #0x7F
   4FA8 80                20877 	.db #0x80
   4FA9 7F                20878 	.db #0x7F
   4FAA 80                20879 	.db #0x80
   4FAB FE                20880 	.db #0xFE
   4FAC 01                20881 	.db #0x01
   4FAD FE                20882 	.db #0xFE
   4FAE 81                20883 	.db #0x81
   4FAF FE                20884 	.db #0xFE
   4FB0 C1                20885 	.db #0xC1
   4FB1 FE                20886 	.db #0xFE
   4FB2 C1                20887 	.db #0xC1
   4FB3 FE                20888 	.db #0xFE
   4FB4 81                20889 	.db #0x81
   4FB5 FE                20890 	.db #0xFE
   4FB6 C1                20891 	.db #0xC1
   4FB7 FE                20892 	.db #0xFE
   4FB8 01                20893 	.db #0x01
   4FB9 FE                20894 	.db #0xFE
   4FBA 01                20895 	.db #0x01
   4FBB 7F                20896 	.db #0x7F
   4FBC 80                20897 	.db #0x80
   4FBD 7F                20898 	.db #0x7F
   4FBE 98                20899 	.db #0x98
   4FBF 7F                20900 	.db #0x7F
   4FC0 8C                20901 	.db #0x8C
   4FC1 7F                20902 	.db #0x7F
   4FC2 9C                20903 	.db #0x9C
   4FC3 7F                20904 	.db #0x7F
   4FC4 98                20905 	.db #0x98
   4FC5 7F                20906 	.db #0x7F
   4FC6 8C                20907 	.db #0x8C
   4FC7 7F                20908 	.db #0x7F
   4FC8 80                20909 	.db #0x80
   4FC9 7F                20910 	.db #0x7F
   4FCA 80                20911 	.db #0x80
   4FCB FE                20912 	.db #0xFE
   4FCC 01                20913 	.db #0x01
   4FCD FE                20914 	.db #0xFE
   4FCE 31                20915 	.db #0x31
   4FCF FE                20916 	.db #0xFE
   4FD0 19                20917 	.db #0x19
   4FD1 FE                20918 	.db #0xFE
   4FD2 39                20919 	.db #0x39
   4FD3 FE                20920 	.db #0xFE
   4FD4 31                20921 	.db #0x31
   4FD5 FE                20922 	.db #0xFE
   4FD6 19                20923 	.db #0x19
   4FD7 FE                20924 	.db #0xFE
   4FD8 01                20925 	.db #0x01
   4FD9 FE                20926 	.db #0xFE
   4FDA 01                20927 	.db #0x01
   4FDB FE                20928 	.db #0xFE
   4FDC 01                20929 	.db #0x01
   4FDD FE                20930 	.db #0xFE
   4FDE 01                20931 	.db #0x01
   4FDF FE                20932 	.db #0xFE
   4FE0 0F                20933 	.db #0x0F
   4FE1 FE                20934 	.db #0xFE
   4FE2 03                20935 	.db #0x03
   4FE3 FE                20936 	.db #0xFE
   4FE4 07                20937 	.db #0x07
   4FE5 FE                20938 	.db #0xFE
   4FE6 03                20939 	.db #0x03
   4FE7 FE                20940 	.db #0xFE
   4FE8 0F                20941 	.db #0x0F
   4FE9 00                20942 	.db #0x00
   4FEA FF                20943 	.db #0xFF
   4FEB 00                20944 	.db #0x00
   4FEC FF                20945 	.db #0xFF
   4FED 7F                20946 	.db #0x7F
   4FEE D0                20947 	.db #0xD0
   4FEF 7F                20948 	.db #0x7F
   4FF0 D0                20949 	.db #0xD0
   4FF1 7F                20950 	.db #0x7F
   4FF2 F0                20951 	.db #0xF0
   4FF3 7F                20952 	.db #0x7F
   4FF4 90                20953 	.db #0x90
   4FF5 7F                20954 	.db #0x7F
   4FF6 90                20955 	.db #0x90
   4FF7 7F                20956 	.db #0x7F
   4FF8 80                20957 	.db #0x80
   4FF9 7F                20958 	.db #0x7F
   4FFA 80                20959 	.db #0x80
   4FFB 7F                20960 	.db #0x7F
   4FFC 80                20961 	.db #0x80
   4FFD 7F                20962 	.db #0x7F
   4FFE 98                20963 	.db #0x98
   4FFF 7F                20964 	.db #0x7F
   5000 8C                20965 	.db #0x8C
   5001 7F                20966 	.db #0x7F
   5002 9C                20967 	.db #0x9C
   5003 7F                20968 	.db #0x7F
   5004 98                20969 	.db #0x98
   5005 7F                20970 	.db #0x7F
   5006 8C                20971 	.db #0x8C
   5007 7F                20972 	.db #0x7F
   5008 80                20973 	.db #0x80
   5009 7F                20974 	.db #0x7F
   500A 80                20975 	.db #0x80
   500B FE                20976 	.db #0xFE
   500C 01                20977 	.db #0x01
   500D FE                20978 	.db #0xFE
   500E 31                20979 	.db #0x31
   500F FE                20980 	.db #0xFE
   5010 19                20981 	.db #0x19
   5011 FE                20982 	.db #0xFE
   5012 39                20983 	.db #0x39
   5013 FE                20984 	.db #0xFE
   5014 31                20985 	.db #0x31
   5015 FE                20986 	.db #0xFE
   5016 19                20987 	.db #0x19
   5017 FE                20988 	.db #0xFE
   5018 01                20989 	.db #0x01
   5019 FE                20990 	.db #0xFE
   501A 01                20991 	.db #0x01
   501B FE                20992 	.db #0xFE
   501C 01                20993 	.db #0x01
   501D FE                20994 	.db #0xFE
   501E 01                20995 	.db #0x01
   501F FE                20996 	.db #0xFE
   5020 0B                20997 	.db #0x0B
   5021 FE                20998 	.db #0xFE
   5022 0B                20999 	.db #0x0B
   5023 FE                21000 	.db #0xFE
   5024 0F                21001 	.db #0x0F
   5025 FE                21002 	.db #0xFE
   5026 03                21003 	.db #0x03
   5027 FE                21004 	.db #0xFE
   5028 03                21005 	.db #0x03
   5029 00                21006 	.db #0x00
   502A FF                21007 	.db #0xFF
   502B 00                21008 	.db #0x00
   502C FF                21009 	.db #0xFF
   502D 7F                21010 	.db #0x7F
   502E F0                21011 	.db #0xF0
   502F 7F                21012 	.db #0x7F
   5030 C0                21013 	.db #0xC0
   5031 7F                21014 	.db #0x7F
   5032 F0                21015 	.db #0xF0
   5033 7F                21016 	.db #0x7F
   5034 90                21017 	.db #0x90
   5035 7F                21018 	.db #0x7F
   5036 F0                21019 	.db #0xF0
   5037 7F                21020 	.db #0x7F
   5038 80                21021 	.db #0x80
   5039 7F                21022 	.db #0x7F
   503A 80                21023 	.db #0x80
   503B 07                21024 	.db #0x07
   503C FD                21025 	.db #0xFD
   503D F7                21026 	.db #0xF7
   503E 0D                21027 	.db #0x0D
   503F F7                21028 	.db #0xF7
   5040 0F                21029 	.db #0x0F
   5041 F7                21030 	.db #0xF7
   5042 0A                21031 	.db #0x0A
   5043 F7                21032 	.db #0xF7
   5044 0F                21033 	.db #0x0F
   5045 F0                21034 	.db #0xF0
   5046 0F                21035 	.db #0x0F
   5047 FF                21036 	.db #0xFF
   5048 00                21037 	.db #0x00
   5049 FF                21038 	.db #0xFF
   504A 00                21039 	.db #0x00
   504B 7F                21040 	.db #0x7F
   504C 80                21041 	.db #0x80
   504D 7F                21042 	.db #0x7F
   504E 8A                21043 	.db #0x8A
   504F 7F                21044 	.db #0x7F
   5050 8A                21045 	.db #0x8A
   5051 7F                21046 	.db #0x7F
   5052 8E                21047 	.db #0x8E
   5053 7F                21048 	.db #0x7F
   5054 84                21049 	.db #0x84
   5055 7F                21050 	.db #0x7F
   5056 8E                21051 	.db #0x8E
   5057 7F                21052 	.db #0x7F
   5058 80                21053 	.db #0x80
   5059 7F                21054 	.db #0x7F
   505A 80                21055 	.db #0x80
   505B FE                21056 	.db #0xFE
   505C 01                21057 	.db #0x01
   505D FE                21058 	.db #0xFE
   505E A1                21059 	.db #0xA1
   505F FE                21060 	.db #0xFE
   5060 A1                21061 	.db #0xA1
   5061 FE                21062 	.db #0xFE
   5062 E1                21063 	.db #0xE1
   5063 FE                21064 	.db #0xFE
   5064 41                21065 	.db #0x41
   5065 FE                21066 	.db #0xFE
   5066 E1                21067 	.db #0xE1
   5067 FE                21068 	.db #0xFE
   5068 01                21069 	.db #0x01
   5069 FE                21070 	.db #0xFE
   506A 01                21071 	.db #0x01
   506B 7F                21072 	.db #0x7F
   506C 80                21073 	.db #0x80
   506D 7F                21074 	.db #0x7F
   506E AA                21075 	.db #0xAA
   506F 7F                21076 	.db #0x7F
   5070 AA                21077 	.db #0xAA
   5071 7F                21078 	.db #0x7F
   5072 BB                21079 	.db #0xBB
   5073 7F                21080 	.db #0x7F
   5074 91                21081 	.db #0x91
   5075 7F                21082 	.db #0x7F
   5076 BB                21083 	.db #0xBB
   5077 7F                21084 	.db #0x7F
   5078 80                21085 	.db #0x80
   5079 7F                21086 	.db #0x7F
   507A 80                21087 	.db #0x80
   507B FE                21088 	.db #0xFE
   507C 01                21089 	.db #0x01
   507D FE                21090 	.db #0xFE
   507E A9                21091 	.db #0xA9
   507F FE                21092 	.db #0xFE
   5080 A9                21093 	.db #0xA9
   5081 FE                21094 	.db #0xFE
   5082 B9                21095 	.db #0xB9
   5083 FE                21096 	.db #0xFE
   5084 11                21097 	.db #0x11
   5085 FE                21098 	.db #0xFE
   5086 B9                21099 	.db #0xB9
   5087 FE                21100 	.db #0xFE
   5088 01                21101 	.db #0x01
   5089 FE                21102 	.db #0xFE
   508A 01                21103 	.db #0x01
   508B 7F                21104 	.db #0x7F
   508C 80                21105 	.db #0x80
   508D 7F                21106 	.db #0x7F
   508E 80                21107 	.db #0x80
   508F 0F                21108 	.db #0x0F
   5090 F0                21109 	.db #0xF0
   5091 EF                21110 	.db #0xEF
   5092 B0                21111 	.db #0xB0
   5093 EF                21112 	.db #0xEF
   5094 B0                21113 	.db #0xB0
   5095 EF                21114 	.db #0xEF
   5096 F0                21115 	.db #0xF0
   5097 EF                21116 	.db #0xEF
   5098 50                21117 	.db #0x50
   5099 E0                21118 	.db #0xE0
   509A FF                21119 	.db #0xFF
   509B FE                21120 	.db #0xFE
   509C 01                21121 	.db #0x01
   509D FE                21122 	.db #0xFE
   509E 01                21123 	.db #0x01
   509F FE                21124 	.db #0xFE
   50A0 0F                21125 	.db #0x0F
   50A1 FE                21126 	.db #0xFE
   50A2 09                21127 	.db #0x09
   50A3 FE                21128 	.db #0xFE
   50A4 0F                21129 	.db #0x0F
   50A5 FE                21130 	.db #0xFE
   50A6 03                21131 	.db #0x03
   50A7 FE                21132 	.db #0xFE
   50A8 0F                21133 	.db #0x0F
   50A9 00                21134 	.db #0x00
   50AA FF                21135 	.db #0xFF
   50AB 00                21136 	.db #0x00
   50AC FF                21137 	.db #0xFF
   50AD 7F                21138 	.db #0x7F
   50AE F0                21139 	.db #0xF0
   50AF 7F                21140 	.db #0x7F
   50B0 C0                21141 	.db #0xC0
   50B1 7F                21142 	.db #0x7F
   50B2 F0                21143 	.db #0xF0
   50B3 7F                21144 	.db #0x7F
   50B4 D0                21145 	.db #0xD0
   50B5 7F                21146 	.db #0x7F
   50B6 F0                21147 	.db #0xF0
   50B7 7F                21148 	.db #0x7F
   50B8 80                21149 	.db #0x80
   50B9 7F                21150 	.db #0x7F
   50BA 80                21151 	.db #0x80
   50BB 7F                21152 	.db #0x7F
   50BC 80                21153 	.db #0x80
   50BD 7F                21154 	.db #0x7F
   50BE AA                21155 	.db #0xAA
   50BF 7F                21156 	.db #0x7F
   50C0 AA                21157 	.db #0xAA
   50C1 7F                21158 	.db #0x7F
   50C2 BB                21159 	.db #0xBB
   50C3 7F                21160 	.db #0x7F
   50C4 91                21161 	.db #0x91
   50C5 7F                21162 	.db #0x7F
   50C6 BB                21163 	.db #0xBB
   50C7 7F                21164 	.db #0x7F
   50C8 80                21165 	.db #0x80
   50C9 7F                21166 	.db #0x7F
   50CA AA                21167 	.db #0xAA
   50CB FE                21168 	.db #0xFE
   50CC 01                21169 	.db #0x01
   50CD FE                21170 	.db #0xFE
   50CE A9                21171 	.db #0xA9
   50CF FE                21172 	.db #0xFE
   50D0 A9                21173 	.db #0xA9
   50D1 FE                21174 	.db #0xFE
   50D2 B9                21175 	.db #0xB9
   50D3 FE                21176 	.db #0xFE
   50D4 11                21177 	.db #0x11
   50D5 FE                21178 	.db #0xFE
   50D6 B9                21179 	.db #0xB9
   50D7 FE                21180 	.db #0xFE
   50D8 01                21181 	.db #0x01
   50D9 FE                21182 	.db #0xFE
   50DA A9                21183 	.db #0xA9
   50DB 7F                21184 	.db #0x7F
   50DC AA                21185 	.db #0xAA
   50DD 7F                21186 	.db #0x7F
   50DE BB                21187 	.db #0xBB
   50DF 7F                21188 	.db #0x7F
   50E0 91                21189 	.db #0x91
   50E1 7F                21190 	.db #0x7F
   50E2 BB                21191 	.db #0xBB
   50E3 7F                21192 	.db #0x7F
   50E4 80                21193 	.db #0x80
   50E5 7F                21194 	.db #0x7F
   50E6 80                21195 	.db #0x80
   50E7 7F                21196 	.db #0x7F
   50E8 80                21197 	.db #0x80
   50E9 7F                21198 	.db #0x7F
   50EA 80                21199 	.db #0x80
   50EB FE                21200 	.db #0xFE
   50EC A9                21201 	.db #0xA9
   50ED FE                21202 	.db #0xFE
   50EE B9                21203 	.db #0xB9
   50EF FE                21204 	.db #0xFE
   50F0 11                21205 	.db #0x11
   50F1 FE                21206 	.db #0xFE
   50F2 B9                21207 	.db #0xB9
   50F3 FE                21208 	.db #0xFE
   50F4 01                21209 	.db #0x01
   50F5 FE                21210 	.db #0xFE
   50F6 01                21211 	.db #0x01
   50F7 FE                21212 	.db #0xFE
   50F8 01                21213 	.db #0x01
   50F9 FE                21214 	.db #0xFE
   50FA 01                21215 	.db #0x01
   50FB FE                21216 	.db #0xFE
   50FC 01                21217 	.db #0x01
   50FD FE                21218 	.db #0xFE
   50FE 01                21219 	.db #0x01
   50FF FE                21220 	.db #0xFE
   5100 0F                21221 	.db #0x0F
   5101 FE                21222 	.db #0xFE
   5102 09                21223 	.db #0x09
   5103 FE                21224 	.db #0xFE
   5104 0F                21225 	.db #0x0F
   5105 FE                21226 	.db #0xFE
   5106 0B                21227 	.db #0x0B
   5107 FE                21228 	.db #0xFE
   5108 0F                21229 	.db #0x0F
   5109 00                21230 	.db #0x00
   510A FF                21231 	.db #0xFF
   510B 00                21232 	.db #0x00
   510C FF                21233 	.db #0xFF
   510D 7F                21234 	.db #0x7F
   510E F0                21235 	.db #0xF0
   510F 7F                21236 	.db #0x7F
   5110 90                21237 	.db #0x90
   5111 7F                21238 	.db #0x7F
   5112 B8                21239 	.db #0xB8
   5113 7F                21240 	.db #0x7F
   5114 90                21241 	.db #0x90
   5115 7F                21242 	.db #0x7F
   5116 90                21243 	.db #0x90
   5117 7F                21244 	.db #0x7F
   5118 80                21245 	.db #0x80
   5119 7F                21246 	.db #0x7F
   511A 82                21247 	.db #0x82
   511B 07                21248 	.db #0x07
   511C FD                21249 	.db #0xFD
   511D F7                21250 	.db #0xF7
   511E 0D                21251 	.db #0x0D
   511F F7                21252 	.db #0xF7
   5120 0F                21253 	.db #0x0F
   5121 F7                21254 	.db #0xF7
   5122 0A                21255 	.db #0x0A
   5123 F7                21256 	.db #0xF7
   5124 0F                21257 	.db #0x0F
   5125 F0                21258 	.db #0xF0
   5126 0F                21259 	.db #0x0F
   5127 FE                21260 	.db #0xFE
   5128 01                21261 	.db #0x01
   5129 FE                21262 	.db #0xFE
   512A 81                21263 	.db #0x81
   512B 7F                21264 	.db #0x7F
   512C 82                21265 	.db #0x82
   512D 7F                21266 	.db #0x7F
   512E 83                21267 	.db #0x83
   512F 7F                21268 	.db #0x7F
   5130 81                21269 	.db #0x81
   5131 7F                21270 	.db #0x7F
   5132 83                21271 	.db #0x83
   5133 7F                21272 	.db #0x7F
   5134 80                21273 	.db #0x80
   5135 7F                21274 	.db #0x7F
   5136 AA                21275 	.db #0xAA
   5137 7F                21276 	.db #0x7F
   5138 AA                21277 	.db #0xAA
   5139 7F                21278 	.db #0x7F
   513A BB                21279 	.db #0xBB
   513B FE                21280 	.db #0xFE
   513C 81                21281 	.db #0x81
   513D FE                21282 	.db #0xFE
   513E 81                21283 	.db #0x81
   513F FE                21284 	.db #0xFE
   5140 01                21285 	.db #0x01
   5141 FE                21286 	.db #0xFE
   5142 81                21287 	.db #0x81
   5143 FE                21288 	.db #0xFE
   5144 01                21289 	.db #0x01
   5145 FE                21290 	.db #0xFE
   5146 A9                21291 	.db #0xA9
   5147 FE                21292 	.db #0xFE
   5148 A9                21293 	.db #0xA9
   5149 FE                21294 	.db #0xFE
   514A B9                21295 	.db #0xB9
   514B 7F                21296 	.db #0x7F
   514C 91                21297 	.db #0x91
   514D 7F                21298 	.db #0x7F
   514E BB                21299 	.db #0xBB
   514F 7F                21300 	.db #0x7F
   5150 80                21301 	.db #0x80
   5151 7F                21302 	.db #0x7F
   5152 AA                21303 	.db #0xAA
   5153 7F                21304 	.db #0x7F
   5154 AA                21305 	.db #0xAA
   5155 7F                21306 	.db #0x7F
   5156 BB                21307 	.db #0xBB
   5157 7F                21308 	.db #0x7F
   5158 91                21309 	.db #0x91
   5159 7F                21310 	.db #0x7F
   515A BB                21311 	.db #0xBB
   515B FE                21312 	.db #0xFE
   515C 11                21313 	.db #0x11
   515D FE                21314 	.db #0xFE
   515E B9                21315 	.db #0xB9
   515F FE                21316 	.db #0xFE
   5160 01                21317 	.db #0x01
   5161 FE                21318 	.db #0xFE
   5162 A9                21319 	.db #0xA9
   5163 FE                21320 	.db #0xFE
   5164 A9                21321 	.db #0xA9
   5165 FE                21322 	.db #0xFE
   5166 B9                21323 	.db #0xB9
   5167 FE                21324 	.db #0xFE
   5168 11                21325 	.db #0x11
   5169 FE                21326 	.db #0xFE
   516A B9                21327 	.db #0xB9
   516B FE                21328 	.db #0xFE
   516C 01                21329 	.db #0x01
   516D FE                21330 	.db #0xFE
   516E 01                21331 	.db #0x01
   516F FE                21332 	.db #0xFE
   5170 1D                21333 	.db #0x1D
   5171 FE                21334 	.db #0xFE
   5172 05                21335 	.db #0x05
   5173 FE                21336 	.db #0xFE
   5174 0F                21337 	.db #0x0F
   5175 FE                21338 	.db #0xFE
   5176 05                21339 	.db #0x05
   5177 FE                21340 	.db #0xFE
   5178 05                21341 	.db #0x05
   5179 00                21342 	.db #0x00
   517A FF                21343 	.db #0xFF
   517B 00                21344 	.db #0x00
   517C FF                21345 	.db #0xFF
   517D 7F                21346 	.db #0x7F
   517E F0                21347 	.db #0xF0
   517F 7F                21348 	.db #0x7F
   5180 D0                21349 	.db #0xD0
   5181 7F                21350 	.db #0x7F
   5182 F0                21351 	.db #0xF0
   5183 7F                21352 	.db #0x7F
   5184 D0                21353 	.db #0xD0
   5185 7F                21354 	.db #0x7F
   5186 F0                21355 	.db #0xF0
   5187 7F                21356 	.db #0x7F
   5188 80                21357 	.db #0x80
   5189 7F                21358 	.db #0x7F
   518A 8A                21359 	.db #0x8A
   518B 07                21360 	.db #0x07
   518C FD                21361 	.db #0xFD
   518D F7                21362 	.db #0xF7
   518E 0D                21363 	.db #0x0D
   518F F7                21364 	.db #0xF7
   5190 0F                21365 	.db #0x0F
   5191 F7                21366 	.db #0xF7
   5192 0A                21367 	.db #0x0A
   5193 F7                21368 	.db #0xF7
   5194 0F                21369 	.db #0x0F
   5195 F0                21370 	.db #0xF0
   5196 0F                21371 	.db #0x0F
   5197 FE                21372 	.db #0xFE
   5198 01                21373 	.db #0x01
   5199 FE                21374 	.db #0xFE
   519A A1                21375 	.db #0xA1
   519B 7F                21376 	.db #0x7F
   519C 8A                21377 	.db #0x8A
   519D 7F                21378 	.db #0x7F
   519E 8E                21379 	.db #0x8E
   519F 7F                21380 	.db #0x7F
   51A0 84                21381 	.db #0x84
   51A1 7F                21382 	.db #0x7F
   51A2 8E                21383 	.db #0x8E
   51A3 7F                21384 	.db #0x7F
   51A4 80                21385 	.db #0x80
   51A5 7F                21386 	.db #0x7F
   51A6 AA                21387 	.db #0xAA
   51A7 7F                21388 	.db #0x7F
   51A8 AA                21389 	.db #0xAA
   51A9 7F                21390 	.db #0x7F
   51AA BB                21391 	.db #0xBB
   51AB FE                21392 	.db #0xFE
   51AC A1                21393 	.db #0xA1
   51AD FE                21394 	.db #0xFE
   51AE E1                21395 	.db #0xE1
   51AF FE                21396 	.db #0xFE
   51B0 41                21397 	.db #0x41
   51B1 FE                21398 	.db #0xFE
   51B2 E1                21399 	.db #0xE1
   51B3 FE                21400 	.db #0xFE
   51B4 01                21401 	.db #0x01
   51B5 FE                21402 	.db #0xFE
   51B6 A9                21403 	.db #0xA9
   51B7 FE                21404 	.db #0xFE
   51B8 A9                21405 	.db #0xA9
   51B9 FE                21406 	.db #0xFE
   51BA B9                21407 	.db #0xB9
   51BB 7F                21408 	.db #0x7F
   51BC 91                21409 	.db #0x91
   51BD 7F                21410 	.db #0x7F
   51BE BB                21411 	.db #0xBB
   51BF 7F                21412 	.db #0x7F
   51C0 80                21413 	.db #0x80
   51C1 7F                21414 	.db #0x7F
   51C2 AA                21415 	.db #0xAA
   51C3 7F                21416 	.db #0x7F
   51C4 AA                21417 	.db #0xAA
   51C5 7F                21418 	.db #0x7F
   51C6 BB                21419 	.db #0xBB
   51C7 7F                21420 	.db #0x7F
   51C8 91                21421 	.db #0x91
   51C9 7F                21422 	.db #0x7F
   51CA BB                21423 	.db #0xBB
   51CB FE                21424 	.db #0xFE
   51CC 11                21425 	.db #0x11
   51CD FE                21426 	.db #0xFE
   51CE B9                21427 	.db #0xB9
   51CF FE                21428 	.db #0xFE
   51D0 01                21429 	.db #0x01
   51D1 FE                21430 	.db #0xFE
   51D2 A9                21431 	.db #0xA9
   51D3 FE                21432 	.db #0xFE
   51D4 A9                21433 	.db #0xA9
   51D5 FE                21434 	.db #0xFE
   51D6 B9                21435 	.db #0xB9
   51D7 FE                21436 	.db #0xFE
   51D8 11                21437 	.db #0x11
   51D9 FE                21438 	.db #0xFE
   51DA 39                21439 	.db #0x39
   51DB FE                21440 	.db #0xFE
   51DC 01                21441 	.db #0x01
   51DD FE                21442 	.db #0xFE
   51DE 01                21443 	.db #0x01
   51DF FE                21444 	.db #0xFE
   51E0 0F                21445 	.db #0x0F
   51E1 FE                21446 	.db #0xFE
   51E2 0B                21447 	.db #0x0B
   51E3 FE                21448 	.db #0xFE
   51E4 0F                21449 	.db #0x0F
   51E5 FE                21450 	.db #0xFE
   51E6 0B                21451 	.db #0x0B
   51E7 FE                21452 	.db #0xFE
   51E8 0F                21453 	.db #0x0F
   51E9 00                21454 	.db #0x00
   51EA FF                21455 	.db #0xFF
   51EB 00                21456 	.db #0x00
   51EC FF                21457 	.db #0xFF
   51ED 7F                21458 	.db #0x7F
   51EE F0                21459 	.db #0xF0
   51EF 7F                21460 	.db #0x7F
   51F0 D0                21461 	.db #0xD0
   51F1 7F                21462 	.db #0x7F
   51F2 F0                21463 	.db #0xF0
   51F3 7F                21464 	.db #0x7F
   51F4 90                21465 	.db #0x90
   51F5 7F                21466 	.db #0x7F
   51F6 F0                21467 	.db #0xF0
   51F7 7F                21468 	.db #0x7F
   51F8 80                21469 	.db #0x80
   51F9 7F                21470 	.db #0x7F
   51FA 91                21471 	.db #0x91
   51FB 07                21472 	.db #0x07
   51FC FA                21473 	.db #0xFA
   51FD F7                21474 	.db #0xF7
   51FE 0A                21475 	.db #0x0A
   51FF F7                21476 	.db #0xF7
   5200 0A                21477 	.db #0x0A
   5201 F7                21478 	.db #0xF7
   5202 0F                21479 	.db #0x0F
   5203 F7                21480 	.db #0xF7
   5204 0A                21481 	.db #0x0A
   5205 F0                21482 	.db #0xF0
   5206 0F                21483 	.db #0x0F
   5207 FE                21484 	.db #0xFE
   5208 01                21485 	.db #0x01
   5209 FE                21486 	.db #0xFE
   520A 11                21487 	.db #0x11
   520B 7F                21488 	.db #0x7F
   520C 91                21489 	.db #0x91
   520D 7F                21490 	.db #0x7F
   520E 91                21491 	.db #0x91
   520F 7F                21492 	.db #0x7F
   5210 BB                21493 	.db #0xBB
   5211 7F                21494 	.db #0x7F
   5212 91                21495 	.db #0x91
   5213 7F                21496 	.db #0x7F
   5214 80                21497 	.db #0x80
   5215 7F                21498 	.db #0x7F
   5216 91                21499 	.db #0x91
   5217 7F                21500 	.db #0x7F
   5218 91                21501 	.db #0x91
   5219 7F                21502 	.db #0x7F
   521A 91                21503 	.db #0x91
   521B FE                21504 	.db #0xFE
   521C 11                21505 	.db #0x11
   521D FE                21506 	.db #0xFE
   521E 11                21507 	.db #0x11
   521F FE                21508 	.db #0xFE
   5220 B9                21509 	.db #0xB9
   5221 FE                21510 	.db #0xFE
   5222 11                21511 	.db #0x11
   5223 FE                21512 	.db #0xFE
   5224 01                21513 	.db #0x01
   5225 FE                21514 	.db #0xFE
   5226 11                21515 	.db #0x11
   5227 FE                21516 	.db #0xFE
   5228 11                21517 	.db #0x11
   5229 FE                21518 	.db #0xFE
   522A 11                21519 	.db #0x11
   522B 7F                21520 	.db #0x7F
   522C BB                21521 	.db #0xBB
   522D 7F                21522 	.db #0x7F
   522E 91                21523 	.db #0x91
   522F 7F                21524 	.db #0x7F
   5230 80                21525 	.db #0x80
   5231 7F                21526 	.db #0x7F
   5232 91                21527 	.db #0x91
   5233 7F                21528 	.db #0x7F
   5234 91                21529 	.db #0x91
   5235 7F                21530 	.db #0x7F
   5236 91                21531 	.db #0x91
   5237 7F                21532 	.db #0x7F
   5238 BB                21533 	.db #0xBB
   5239 7F                21534 	.db #0x7F
   523A 91                21535 	.db #0x91
   523B FE                21536 	.db #0xFE
   523C B9                21537 	.db #0xB9
   523D FE                21538 	.db #0xFE
   523E 11                21539 	.db #0x11
   523F FE                21540 	.db #0xFE
   5240 01                21541 	.db #0x01
   5241 FE                21542 	.db #0xFE
   5242 11                21543 	.db #0x11
   5243 FE                21544 	.db #0xFE
   5244 11                21545 	.db #0x11
   5245 FE                21546 	.db #0xFE
   5246 11                21547 	.db #0x11
   5247 FE                21548 	.db #0xFE
   5248 B9                21549 	.db #0xB9
   5249 FE                21550 	.db #0xFE
   524A 11                21551 	.db #0x11
   524B 7F                21552 	.db #0x7F
   524C 80                21553 	.db #0x80
   524D 7F                21554 	.db #0x7F
   524E 80                21555 	.db #0x80
   524F 0F                21556 	.db #0x0F
   5250 F0                21557 	.db #0xF0
   5251 EF                21558 	.db #0xEF
   5252 50                21559 	.db #0x50
   5253 EF                21560 	.db #0xEF
   5254 50                21561 	.db #0x50
   5255 EF                21562 	.db #0xEF
   5256 50                21563 	.db #0x50
   5257 EF                21564 	.db #0xEF
   5258 F0                21565 	.db #0xF0
   5259 E0                21566 	.db #0xE0
   525A 5F                21567 	.db #0x5F
   525B FE                21568 	.db #0xFE
   525C 01                21569 	.db #0x01
   525D FE                21570 	.db #0xFE
   525E 01                21571 	.db #0x01
   525F FE                21572 	.db #0xFE
   5260 0F                21573 	.db #0x0F
   5261 FE                21574 	.db #0xFE
   5262 0B                21575 	.db #0x0B
   5263 FE                21576 	.db #0xFE
   5264 0F                21577 	.db #0x0F
   5265 FE                21578 	.db #0xFE
   5266 03                21579 	.db #0x03
   5267 FE                21580 	.db #0xFE
   5268 0F                21581 	.db #0x0F
   5269 00                21582 	.db #0x00
   526A FF                21583 	.db #0xFF
   526B 00                21584 	.db #0x00
   526C FF                21585 	.db #0xFF
   526D 7F                21586 	.db #0x7F
   526E F8                21587 	.db #0xF8
   526F 7F                21588 	.db #0x7F
   5270 90                21589 	.db #0x90
   5271 7F                21590 	.db #0x7F
   5272 90                21591 	.db #0x90
   5273 7F                21592 	.db #0x7F
   5274 D0                21593 	.db #0xD0
   5275 7F                21594 	.db #0x7F
   5276 F0                21595 	.db #0xF0
   5277 7F                21596 	.db #0x7F
   5278 80                21597 	.db #0x80
   5279 7F                21598 	.db #0x7F
   527A FF                21599 	.db #0xFF
   527B 07                21600 	.db #0x07
   527C FA                21601 	.db #0xFA
   527D F7                21602 	.db #0xF7
   527E 0A                21603 	.db #0x0A
   527F F7                21604 	.db #0xF7
   5280 0A                21605 	.db #0x0A
   5281 F7                21606 	.db #0xF7
   5282 0F                21607 	.db #0x0F
   5283 F7                21608 	.db #0xF7
   5284 0A                21609 	.db #0x0A
   5285 F0                21610 	.db #0xF0
   5286 0F                21611 	.db #0x0F
   5287 FE                21612 	.db #0xFE
   5288 01                21613 	.db #0x01
   5289 FE                21614 	.db #0xFE
   528A FF                21615 	.db #0xFF
   528B 7F                21616 	.db #0x7F
   528C C0                21617 	.db #0xC0
   528D 7F                21618 	.db #0x7F
   528E CF                21619 	.db #0xCF
   528F 7C                21620 	.db #0x7C
   5290 C7                21621 	.db #0xC7
   5291 7D                21622 	.db #0x7D
   5292 C7                21623 	.db #0xC7
   5293 7F                21624 	.db #0x7F
   5294 C8                21625 	.db #0xC8
   5295 7F                21626 	.db #0x7F
   5296 CD                21627 	.db #0xCD
   5297 7F                21628 	.db #0x7F
   5298 C8                21629 	.db #0xC8
   5299 7F                21630 	.db #0x7F
   529A C7                21631 	.db #0xC7
   529B FE                21632 	.db #0xFE
   529C 03                21633 	.db #0x03
   529D FE                21634 	.db #0xFE
   529E C3                21635 	.db #0xC3
   529F FE                21636 	.db #0xFE
   52A0 83                21637 	.db #0x83
   52A1 FE                21638 	.db #0xFE
   52A2 83                21639 	.db #0x83
   52A3 FE                21640 	.db #0xFE
   52A4 43                21641 	.db #0x43
   52A5 FE                21642 	.db #0xFE
   52A6 43                21643 	.db #0x43
   52A7 BE                21644 	.db #0xBE
   52A8 E3                21645 	.db #0xE3
   52A9 1E                21646 	.db #0x1E
   52AA F3                21647 	.db #0xF3
   52AB 7F                21648 	.db #0x7F
   52AC C2                21649 	.db #0xC2
   52AD 7E                21650 	.db #0x7E
   52AE E7                21651 	.db #0xE7
   52AF 7F                21652 	.db #0x7F
   52B0 DA                21653 	.db #0xDA
   52B1 7C                21654 	.db #0x7C
   52B2 D7                21655 	.db #0xD7
   52B3 7D                21656 	.db #0x7D
   52B4 D6                21657 	.db #0xD6
   52B5 7C                21658 	.db #0x7C
   52B6 D7                21659 	.db #0xD7
   52B7 7D                21660 	.db #0x7D
   52B8 D6                21661 	.db #0xD6
   52B9 7C                21662 	.db #0x7C
   52BA D7                21663 	.db #0xD7
   52BB 1E                21664 	.db #0x1E
   52BC F3                21665 	.db #0xF3
   52BD DE                21666 	.db #0xDE
   52BE 73                21667 	.db #0x73
   52BF 5E                21668 	.db #0x5E
   52C0 FB                21669 	.db #0xFB
   52C1 CE                21670 	.db #0xCE
   52C2 7B                21671 	.db #0x7B
   52C3 0E                21672 	.db #0x0E
   52C4 FB                21673 	.db #0xFB
   52C5 8E                21674 	.db #0x8E
   52C6 7B                21675 	.db #0x7B
   52C7 0E                21676 	.db #0x0E
   52C8 FB                21677 	.db #0xFB
   52C9 8E                21678 	.db #0x8E
   52CA 7B                21679 	.db #0x7B
   52CB 7F                21680 	.db #0x7F
   52CC FF                21681 	.db #0xFF
   52CD 7F                21682 	.db #0x7F
   52CE 80                21683 	.db #0x80
   52CF 0F                21684 	.db #0x0F
   52D0 F0                21685 	.db #0xF0
   52D1 EF                21686 	.db #0xEF
   52D2 50                21687 	.db #0x50
   52D3 EF                21688 	.db #0xEF
   52D4 50                21689 	.db #0x50
   52D5 EF                21690 	.db #0xEF
   52D6 50                21691 	.db #0x50
   52D7 EF                21692 	.db #0xEF
   52D8 F0                21693 	.db #0xF0
   52D9 E0                21694 	.db #0xE0
   52DA 5F                21695 	.db #0x5F
   52DB FE                21696 	.db #0xFE
   52DC FF                21697 	.db #0xFF
   52DD FE                21698 	.db #0xFE
   52DE 01                21699 	.db #0x01
   52DF FE                21700 	.db #0xFE
   52E0 1F                21701 	.db #0x1F
   52E1 FE                21702 	.db #0xFE
   52E2 05                21703 	.db #0x05
   52E3 FE                21704 	.db #0xFE
   52E4 05                21705 	.db #0x05
   52E5 FE                21706 	.db #0xFE
   52E6 15                21707 	.db #0x15
   52E7 FE                21708 	.db #0xFE
   52E8 1D                21709 	.db #0x1D
   52E9 00                21710 	.db #0x00
   52EA FF                21711 	.db #0xFF
   52EB 00                21712 	.db #0x00
   52EC FF                21713 	.db #0xFF
   52ED 7F                21714 	.db #0x7F
   52EE C8                21715 	.db #0xC8
   52EF 7F                21716 	.db #0x7F
   52F0 D0                21717 	.db #0xD0
   52F1 7F                21718 	.db #0x7F
   52F2 E0                21719 	.db #0xE0
   52F3 7F                21720 	.db #0x7F
   52F4 D0                21721 	.db #0xD0
   52F5 7F                21722 	.db #0x7F
   52F6 C8                21723 	.db #0xC8
   52F7 7F                21724 	.db #0x7F
   52F8 80                21725 	.db #0x80
   52F9 7F                21726 	.db #0x7F
   52FA FF                21727 	.db #0xFF
   52FB 07                21728 	.db #0x07
   52FC FA                21729 	.db #0xFA
   52FD F7                21730 	.db #0xF7
   52FE 0A                21731 	.db #0x0A
   52FF F7                21732 	.db #0xF7
   5300 0A                21733 	.db #0x0A
   5301 F7                21734 	.db #0xF7
   5302 0F                21735 	.db #0x0F
   5303 F7                21736 	.db #0xF7
   5304 0A                21737 	.db #0x0A
   5305 F0                21738 	.db #0xF0
   5306 0F                21739 	.db #0x0F
   5307 FE                21740 	.db #0xFE
   5308 01                21741 	.db #0x01
   5309 FE                21742 	.db #0xFE
   530A FF                21743 	.db #0xFF
   530B 7F                21744 	.db #0x7F
   530C C0                21745 	.db #0xC0
   530D 7F                21746 	.db #0x7F
   530E C1                21747 	.db #0xC1
   530F 7F                21748 	.db #0x7F
   5310 C5                21749 	.db #0xC5
   5311 7F                21750 	.db #0x7F
   5312 C7                21751 	.db #0xC7
   5313 7F                21752 	.db #0x7F
   5314 C7                21753 	.db #0xC7
   5315 7F                21754 	.db #0x7F
   5316 C8                21755 	.db #0xC8
   5317 7F                21756 	.db #0x7F
   5318 CE                21757 	.db #0xCE
   5319 7F                21758 	.db #0x7F
   531A C9                21759 	.db #0xC9
   531B FE                21760 	.db #0xFE
   531C 03                21761 	.db #0x03
   531D FE                21762 	.db #0xFE
   531E 53                21763 	.db #0x53
   531F FE                21764 	.db #0xFE
   5320 D3                21765 	.db #0xD3
   5321 FE                21766 	.db #0xFE
   5322 DB                21767 	.db #0xDB
   5323 FE                21768 	.db #0xFE
   5324 CB                21769 	.db #0xCB
   5325 FE                21770 	.db #0xFE
   5326 2B                21771 	.db #0x2B
   5327 FE                21772 	.db #0xFE
   5328 EB                21773 	.db #0xEB
   5329 FE                21774 	.db #0xFE
   532A 2B                21775 	.db #0x2B
   532B 7F                21776 	.db #0x7F
   532C C8                21777 	.db #0xC8
   532D 7F                21778 	.db #0x7F
   532E C5                21779 	.db #0xC5
   532F 7F                21780 	.db #0x7F
   5330 C7                21781 	.db #0xC7
   5331 79                21782 	.db #0x79
   5332 CE                21783 	.db #0xCE
   5333 72                21784 	.db #0x72
   5334 DD                21785 	.db #0xDD
   5335 73                21786 	.db #0x73
   5336 DC                21787 	.db #0xDC
   5337 72                21788 	.db #0x72
   5338 DD                21789 	.db #0xDD
   5339 73                21790 	.db #0x73
   533A DD                21791 	.db #0xDD
   533B FE                21792 	.db #0xFE
   533C 2B                21793 	.db #0x2B
   533D FE                21794 	.db #0xFE
   533E 4B                21795 	.db #0x4B
   533F FE                21796 	.db #0xFE
   5340 CB                21797 	.db #0xCB
   5341 3E                21798 	.db #0x3E
   5342 EB                21799 	.db #0xEB
   5343 9E                21800 	.db #0x9E
   5344 7B                21801 	.db #0x7B
   5345 9E                21802 	.db #0x9E
   5346 7B                21803 	.db #0x7B
   5347 9E                21804 	.db #0x9E
   5348 7B                21805 	.db #0x7B
   5349 9E                21806 	.db #0x9E
   534A 7B                21807 	.db #0x7B
   534B 7F                21808 	.db #0x7F
   534C FF                21809 	.db #0xFF
   534D 7F                21810 	.db #0x7F
   534E 80                21811 	.db #0x80
   534F 0F                21812 	.db #0x0F
   5350 F0                21813 	.db #0xF0
   5351 EF                21814 	.db #0xEF
   5352 50                21815 	.db #0x50
   5353 EF                21816 	.db #0xEF
   5354 50                21817 	.db #0x50
   5355 EF                21818 	.db #0xEF
   5356 50                21819 	.db #0x50
   5357 EF                21820 	.db #0xEF
   5358 F0                21821 	.db #0xF0
   5359 E0                21822 	.db #0xE0
   535A 5F                21823 	.db #0x5F
   535B FE                21824 	.db #0xFE
   535C FF                21825 	.db #0xFF
   535D FE                21826 	.db #0xFE
   535E 01                21827 	.db #0x01
   535F FE                21828 	.db #0xFE
   5360 13                21829 	.db #0x13
   5361 FE                21830 	.db #0xFE
   5362 15                21831 	.db #0x15
   5363 FE                21832 	.db #0xFE
   5364 19                21833 	.db #0x19
   5365 FE                21834 	.db #0xFE
   5366 15                21835 	.db #0x15
   5367 FE                21836 	.db #0xFE
   5368 13                21837 	.db #0x13
   5369 00                21838 	.db #0x00
   536A FF                21839 	.db #0xFF
   536B 00                21840 	.db #0x00
   536C FF                21841 	.db #0xFF
   536D 7E                21842 	.db #0x7E
   536E C1                21843 	.db #0xC1
   536F 7E                21844 	.db #0x7E
   5370 C1                21845 	.db #0xC1
   5371 7E                21846 	.db #0x7E
   5372 C1                21847 	.db #0xC1
   5373 7E                21848 	.db #0x7E
   5374 C1                21849 	.db #0xC1
   5375 7E                21850 	.db #0x7E
   5376 C1                21851 	.db #0xC1
   5377 7E                21852 	.db #0x7E
   5378 FF                21853 	.db #0xFF
   5379 00                21854 	.db #0x00
   537A FF                21855 	.db #0xFF
   537B                   21856 __str_0:
   537B 59 6F 75 20 57 69 21857 	.ascii "You Win!"
        6E 21
   5383 00                21858 	.db 0
   5384                   21859 __str_1:
   5384 59 6F 75 20 4C 6F 21860 	.ascii "You Lose!"
        73 65 21
   538D 00                21861 	.db 0
ASxxxx Assembler V01.75  (GameBoy Z80-like CPU), page 1.

Symbol Table

    _BCPD_REG                          **** GX
    _BCPS_REG                          **** GX
    _BGP_REG                           **** GX
    _DIV_REG                           **** GX
    _DMA_REG                           **** GX
    _HDMA1_REG                         **** GX
    _HDMA2_REG                         **** GX
    _HDMA3_REG                         **** GX
    _HDMA4_REG                         **** GX
    _HDMA5_REG                         **** GX
    _IE_REG                            **** GX
    _IF_REG                            **** GX
    _KEY1_REG                          **** GX
    _LCDC_REG                          **** GX
    _LYC_REG                           **** GX
    _LY_REG                            **** GX
    _NR10_REG                          **** GX
    _NR11_REG                          **** GX
    _NR12_REG                          **** GX
    _NR13_REG                          **** GX
    _NR14_REG                          **** GX
    _NR21_REG                          **** GX
    _NR22_REG                          **** GX
    _NR23_REG                          **** GX
    _NR24_REG                          **** GX
    _NR30_REG                          **** GX
    _NR31_REG                          **** GX
    _NR32_REG                          **** GX
    _NR33_REG                          **** GX
    _NR34_REG                          **** GX
    _NR41_REG                          **** GX
    _NR42_REG                          **** GX
    _NR43_REG                          **** GX
    _NR44_REG                          **** GX
    _NR50_REG                          **** GX
    _NR51_REG                          **** GX
    _NR52_REG                          **** GX
    _OBP0_REG                          **** GX
    _OBP1_REG                          **** GX
    _OCPD_REG                          **** GX
    _OCPS_REG                          **** GX
    _P1_REG                            **** GX
    _RP_REG                            **** GX
    _SB_REG                            **** GX
    _SCX_REG                           **** GX
    _SCY_REG                           **** GX
    _SC_REG                            **** GX
    _STAT_REG                          **** GX
    _SVBK_REG                          **** GX
  0 _SpriteKeys                        4DEB GR
    _TAC_REG                           **** GX
    _TIMA_REG                          **** GX
    _TMA_REG                           **** GX
    _VBK_REG                           **** GX
    _WX_REG                            **** GX
    _WY_REG                            **** GX
  0 ___init_numbers_end                01CB R
  0 ___init_numbers_start              0150 R
  0 ___main_end                        0F5B R
  0 ___main_start                      0877 R
  0 ___performant_delay_end            0014 R
  0 ___performant_delay_start          0000 R
  0 ___random_number_end               0042 R
  0 ___random_number_start             0014 R
  0 ___setSlot1_end                    05D5 R
  0 ___setSlot1_start                  0484 R
  0 ___setSlot2_end                    0726 R
  0 ___setSlot2_start                  05D5 R
  0 ___setSlot3_end                    0877 R
  0 ___setSlot3_start                  0726 R
  0 ___set_background_credits_end      009C R
  0 ___set_background_credits_start    006F R
  0 ___set_background_devil_angry_en   0123 R
  0 ___set_background_devil_angry_st   00F6 R
  0 ___set_background_devil_laugh_en   0150 R
  0 ___set_background_devil_laugh_st   0123 R
  0 ___set_background_devil_normal_e   00F6 R
  0 ___set_background_devil_normal_s   00C9 R
  0 ___set_background_howto_end        00C9 R
  0 ___set_background_howto_start      009C R
  0 ___set_background_splash_end       006F R
  0 ___set_background_splash_start     0042 R
  0 ___set_souls_end                   0253 R
  0 ___set_souls_start                 01CB R
  0 ___setupAce_end                    0286 R
  0 ___setupAce_start                  0253 R
  0 ___setupEight_end                  03EB R
  0 ___setupEight_start                03B8 R
  0 ___setupFive_end                   0352 R
  0 ___setupFive_start                 031F R
  0 ___setupFour_end                   031F R
  0 ___setupFour_start                 02EC R
  0 ___setupJack_end                   0451 R
  0 ___setupJack_start                 041E R
  0 ___setupKing_end                   0484 R
  0 ___setupKing_start                 0451 R
  0 ___setupNine_end                   041E R
  0 ___setupNine_start                 03EB R
  0 ___setupSeven_end                  03B8 R
  0 ___setupSeven_start                0385 R
  0 ___setupSix_end                    0385 R
  0 ___setupSix_start                  0352 R
  0 ___setupThree_end                  02EC R
  0 ___setupThree_start                02B9 R
  0 ___setupTwo_end                    02B9 R
  0 ___setupTwo_start                  0286 R
    __cpu                              **** GX
    __divsint                          **** GX
    __io_in                            **** GX
    __io_out                           **** GX
    __io_status                        **** GX
    __modsint                          **** GX
    __mulsint                          **** GX
  0 __str_0                            537B R
  0 __str_1                            5384 R
  1 _ace                               0000 GR
    _add_LCD                           **** GX
    _add_TIM                           **** GX
    _add_VBL                           **** GX
    _arand                             **** GX
    _cgb_compatibility                 **** GX
    _cpu_fast                          **** GX
    _cpu_slow                          **** GX
  0 _credits_data                      1E13 GR
  0 _credits_map                       2733 GR
    _delay                             **** GX
  0 _devil_angry_data                  3A7B GR
  0 _devil_angry_map                   42FB GR
  0 _devil_laugh_data                  2F13 GR
  0 _devil_laugh_map                   3913 GR
  0 _devil_normal_data                 4463 GR
  0 _devil_normal_map                  4C83 GR
    _disable_interrupts                **** GX
    _display_off                       **** GX
  1 _eight                             0046 GR
    _enable_interrupts                 **** GX
  1 _five                              0028 GR
  1 _four                              001E GR
    _get_bkg_tiles                     **** GX
    _get_data                          **** GX
    _get_mode                          **** GX
    _get_sprite_data                   **** GX
    _get_sprite_prop                   **** GX
    _get_sprite_tile                   **** GX
    _get_tiles                         **** GX
    _get_win_tiles                     **** GX
    _gets                              **** GX
    _hiramcpy                          **** GX
  0 _how_to_data                       289B GR
  0 _how_to_map                        2DAB GR
  0 _init_numbers                      0150 GR
    _initarand                         **** GX
    _initrand                          **** GX
  1 _jack                              005A GR
    _joypad                            **** GX
  1 _king                              0064 GR
  0 _main                              0877 GR
    _memcpy                            **** GX
    _mode                              **** GX
    _move_bkg                          **** GX
    _move_sprite                       **** GX
    _move_win                          **** GX
  1 _nine                              0050 GR
  0 _performant_delay                  0000 GR
    _printf                            **** GX
    _putchar                           **** GX
    _puts                              **** GX
    _rand                              **** GX
  0 _random_number                     0014 GR
    _randw                             **** GX
    _receive_byte                      **** GX
    _remove_JOY                        **** GX
    _remove_LCD                        **** GX
    _remove_SIO                        **** GX
    _remove_TIM                        **** GX
    _remove_VBL                        **** GX
    _reset                             **** GX
    _reverse                           **** GX
    _scroll_bkg                        **** GX
    _scroll_sprite                     **** GX
    _scroll_win                        **** GX
    _send_byte                         **** GX
  0 _setSlot1                          0484 GR
  0 _setSlot2                          05D5 GR
  0 _setSlot3                          0726 GR
  0 _set_background_credits            006F GR
  0 _set_background_devil_angry        00F6 GR
  0 _set_background_devil_laugh        0123 GR
  0 _set_background_devil_normal       00C9 GR
  0 _set_background_howto              009C GR
  0 _set_background_splash             0042 GR
    _set_bkg_data                      **** GX
    _set_bkg_palette                   **** GX
    _set_bkg_palette_entry             **** GX
    _set_bkg_tiles                     **** GX
    _set_data                          **** GX
    _set_interrupts                    **** GX
  0 _set_souls                         01CB GR
    _set_sprite_data                   **** GX
    _set_sprite_palette                **** GX
    _set_sprite_palette_entry          **** GX
    _set_sprite_prop                   **** GX
    _set_sprite_tile                   **** GX
    _set_tiles                         **** GX
    _set_win_data                      **** GX
    _set_win_tiles                     **** GX
  0 _setupAce                          0253 GR
  0 _setupEight                        03B8 GR
  0 _setupFive                         031F GR
  0 _setupFour                         02EC GR
  0 _setupJack                         041E GR
  0 _setupKing                         0451 GR
  0 _setupNine                         03EB GR
  0 _setupSeven                        0385 GR
  0 _setupSix                          0352 GR
  0 _setupThree                        02B9 GR
  0 _setupTwo                          0286 GR
  1 _seven                             003C GR
    _sgb_check                         **** GX
  1 _six                               0032 GR
  0 _splash_data                       0F5B GR
  0 _splash_map                        1CAB GR
    _sprintf                           **** GX
    _strcat                            **** GX
    _strcmp                            **** GX
    _strcpy                            **** GX
    _strlen                            **** GX
    _strncat                           **** GX
    _strncmp                           **** GX
    _strncpy                           **** GX
    _sys_time                          **** GX
  1 _three                             0014 GR
  1 _two                               000A GR
    _wait_vbl_done                     **** GX
    _waitpad                           **** GX
    _waitpadup                         **** GX

ASxxxx Assembler V01.75  (GameBoy Z80-like CPU), page 2.

Area Table

   0 _CODE                              size 538E   flags 0
   1 _DATA                              size   6E   flags 0
   2 _OVERLAY                           size    0   flags 0
   3 _ISEG                              size    0   flags 0
   4 _BSEG                              size    0   flags 0
   5 _XSEG                              size    0   flags 0
   6 _GSINIT                            size    0   flags 0
   7 _GSFINAL                           size    0   flags 0
