                              1 ;--------------------------------------------------------
                              2 ; File Created by SDCC : FreeWare ANSI-C Compiler
                              3 ; Version 2.2.1 Sun Oct 06 19:41:39 2019
                              4 
                              5 ;--------------------------------------------------------
                              6 	.module lcc124840
                              7 	
                              8 ;--------------------------------------------------------
                              9 ; Public variables in this module
                             10 ;--------------------------------------------------------
                             11 	.globl _how_to_map
                             12 	.globl _how_to_data
                             13 	.globl _credits_map
                             14 	.globl _credits_data
                             15 	.globl _temp_splash_map
                             16 	.globl _temp_splash_data
                             17 	.globl _main
                             18 	.globl _set_anger
                             19 	.globl _set_souls
                             20 	.globl _init_numbers
                             21 	.globl _random_number
                             22 	.globl _performant_delay
                             23 	.globl _arand
                             24 	.globl _initarand
                             25 	.globl _randw
                             26 	.globl _rand
                             27 	.globl _initrand
                             28 	.globl _strncpy
                             29 	.globl _strncmp
                             30 	.globl _strncat
                             31 	.globl _strlen
                             32 	.globl _strcat
                             33 	.globl _reverse
                             34 	.globl _memcpy
                             35 	.globl _strcmp
                             36 	.globl _strcpy
                             37 	.globl _gets
                             38 	.globl _puts
                             39 	.globl _sprintf
                             40 	.globl _printf
                             41 	.globl _putchar
                             42 	.globl _get_tiles
                             43 	.globl _set_tiles
                             44 	.globl _get_data
                             45 	.globl _set_data
                             46 	.globl _scroll_sprite
                             47 	.globl _move_sprite
                             48 	.globl _get_sprite_prop
                             49 	.globl _set_sprite_prop
                             50 	.globl _get_sprite_tile
                             51 	.globl _set_sprite_tile
                             52 	.globl _get_sprite_data
                             53 	.globl _set_sprite_data
                             54 	.globl _scroll_win
                             55 	.globl _move_win
                             56 	.globl _get_win_tiles
                             57 	.globl _set_win_tiles
                             58 	.globl _set_win_data
                             59 	.globl _scroll_bkg
                             60 	.globl _move_bkg
                             61 	.globl _get_bkg_tiles
                             62 	.globl _set_bkg_tiles
                             63 	.globl _set_bkg_data
                             64 	.globl _hiramcpy
                             65 	.globl _display_off
                             66 	.globl _wait_vbl_done
                             67 	.globl _reset
                             68 	.globl _set_interrupts
                             69 	.globl _disable_interrupts
                             70 	.globl _enable_interrupts
                             71 	.globl _waitpadup
                             72 	.globl _waitpad
                             73 	.globl _joypad
                             74 	.globl _delay
                             75 	.globl _receive_byte
                             76 	.globl _send_byte
                             77 	.globl _get_mode
                             78 	.globl _mode
                             79 	.globl _add_TIM
                             80 	.globl _add_LCD
                             81 	.globl _add_VBL
                             82 	.globl _remove_JOY
                             83 	.globl _remove_SIO
                             84 	.globl _remove_TIM
                             85 	.globl _remove_LCD
                             86 	.globl _remove_VBL
                             87 	.globl _cgb_compatibility
                             88 	.globl _cpu_fast
                             89 	.globl _cpu_slow
                             90 	.globl _set_sprite_palette_entry
                             91 	.globl _set_bkg_palette_entry
                             92 	.globl _set_sprite_palette
                             93 	.globl _set_bkg_palette
                             94 	.globl _sgb_check
                             95 	.globl _SpriteKeys
                             96 ;--------------------------------------------------------
                             97 ; Externals used
                             98 ;--------------------------------------------------------
                             99 	.globl _IE_REG
                            100 	.globl _SVBK_REG
                            101 	.globl _OCPD_REG
                            102 	.globl _OCPS_REG
                            103 	.globl _BCPD_REG
                            104 	.globl _BCPS_REG
                            105 	.globl _RP_REG
                            106 	.globl _HDMA5_REG
                            107 	.globl _HDMA4_REG
                            108 	.globl _HDMA3_REG
                            109 	.globl _HDMA2_REG
                            110 	.globl _HDMA1_REG
                            111 	.globl _VBK_REG
                            112 	.globl _KEY1_REG
                            113 	.globl _WX_REG
                            114 	.globl _WY_REG
                            115 	.globl _OBP1_REG
                            116 	.globl _OBP0_REG
                            117 	.globl _BGP_REG
                            118 	.globl _DMA_REG
                            119 	.globl _LYC_REG
                            120 	.globl _LY_REG
                            121 	.globl _SCX_REG
                            122 	.globl _SCY_REG
                            123 	.globl _STAT_REG
                            124 	.globl _LCDC_REG
                            125 	.globl _NR52_REG
                            126 	.globl _NR51_REG
                            127 	.globl _NR50_REG
                            128 	.globl _NR44_REG
                            129 	.globl _NR43_REG
                            130 	.globl _NR42_REG
                            131 	.globl _NR41_REG
                            132 	.globl _NR34_REG
                            133 	.globl _NR33_REG
                            134 	.globl _NR32_REG
                            135 	.globl _NR31_REG
                            136 	.globl _NR30_REG
                            137 	.globl _NR24_REG
                            138 	.globl _NR23_REG
                            139 	.globl _NR22_REG
                            140 	.globl _NR21_REG
                            141 	.globl _NR14_REG
                            142 	.globl _NR13_REG
                            143 	.globl _NR12_REG
                            144 	.globl _NR11_REG
                            145 	.globl _NR10_REG
                            146 	.globl _IF_REG
                            147 	.globl _TAC_REG
                            148 	.globl _TMA_REG
                            149 	.globl _TIMA_REG
                            150 	.globl _DIV_REG
                            151 	.globl _SC_REG
                            152 	.globl _SB_REG
                            153 	.globl _P1_REG
                            154 	.globl __io_out
                            155 	.globl __io_in
                            156 	.globl __io_status
                            157 	.globl _sys_time
                            158 	.globl __cpu
                            159 ;--------------------------------------------------------
                            160 ; special function registers
                            161 ;--------------------------------------------------------
                            162 ;--------------------------------------------------------
                            163 ; special function bits 
                            164 ;--------------------------------------------------------
                            165 ;--------------------------------------------------------
                            166 ; internal ram data
                            167 ;--------------------------------------------------------
                            168 	.area _DATA
   0000                     169 _SpriteKeys::
   0000                     170 	.ds 192
                            171 ;--------------------------------------------------------
                            172 ; overlayable items in internal ram 
                            173 ;--------------------------------------------------------
                            174 	.area _OVERLAY
                            175 ;--------------------------------------------------------
                            176 ; indirectly addressable internal ram data
                            177 ;--------------------------------------------------------
                            178 	.area _ISEG
                            179 ;--------------------------------------------------------
                            180 ; bit data
                            181 ;--------------------------------------------------------
                            182 	.area _BSEG
                            183 ;--------------------------------------------------------
                            184 ; external ram data
                            185 ;--------------------------------------------------------
                            186 	.area _XSEG
                            187 ;--------------------------------------------------------
                            188 ; global & static initialisations
                            189 ;--------------------------------------------------------
                            190 	.area _GSINIT
                            191 	.area _GSFINAL
                            192 	.area _GSINIT
                            193 ;	main.c 110
                            194 ; genAssign (pointer)
   0000 11 00 00            195 	ld	de,#_SpriteKeys + 0
   0003 3E 3C               196 	ld	a,#0x3C
   0005 12                  197 	ld	(de),a
                            198 ; genPlus
                            199 ; genPlusIncr
   0006 11 01 00            200 	ld	de,#_SpriteKeys + 1
                            201 ; genAssign (pointer)
   0009 3E 3C               202 	ld	a,#0x3C
   000B 12                  203 	ld	(de),a
                            204 ; genPlus
                            205 ; genPlusIncr
   000C 11 02 00            206 	ld	de,#_SpriteKeys + 2
                            207 ; genAssign (pointer)
   000F 3E 42               208 	ld	a,#0x42
   0011 12                  209 	ld	(de),a
                            210 ; genPlus
                            211 ; genPlusIncr
   0012 11 03 00            212 	ld	de,#_SpriteKeys + 3
                            213 ; genAssign (pointer)
   0015 3E 42               214 	ld	a,#0x42
   0017 12                  215 	ld	(de),a
                            216 ; genPlus
                            217 ; genPlusIncr
   0018 11 04 00            218 	ld	de,#_SpriteKeys + 4
                            219 ; genAssign (pointer)
   001B 3E 81               220 	ld	a,#0x81
   001D 12                  221 	ld	(de),a
                            222 ; genPlus
                            223 ; genPlusIncr
   001E 11 05 00            224 	ld	de,#_SpriteKeys + 5
                            225 ; genAssign (pointer)
   0021 3E 81               226 	ld	a,#0x81
   0023 12                  227 	ld	(de),a
                            228 ; genPlus
                            229 ; genPlusIncr
   0024 11 06 00            230 	ld	de,#_SpriteKeys + 6
                            231 ; genAssign (pointer)
   0027 3E 81               232 	ld	a,#0x81
   0029 12                  233 	ld	(de),a
                            234 ; genPlus
                            235 ; genPlusIncr
   002A 11 07 00            236 	ld	de,#_SpriteKeys + 7
                            237 ; genAssign (pointer)
   002D 3E 81               238 	ld	a,#0x81
   002F 12                  239 	ld	(de),a
                            240 ; genPlus
                            241 ; genPlusIncr
   0030 11 08 00            242 	ld	de,#_SpriteKeys + 8
                            243 ; genAssign (pointer)
   0033 3E 81               244 	ld	a,#0x81
   0035 12                  245 	ld	(de),a
                            246 ; genPlus
                            247 ; genPlusIncr
   0036 11 09 00            248 	ld	de,#_SpriteKeys + 9
                            249 ; genAssign (pointer)
   0039 3E 81               250 	ld	a,#0x81
   003B 12                  251 	ld	(de),a
                            252 ; genPlus
                            253 ; genPlusIncr
   003C 11 0A 00            254 	ld	de,#_SpriteKeys + 10
                            255 ; genAssign (pointer)
   003F 3E 81               256 	ld	a,#0x81
   0041 12                  257 	ld	(de),a
                            258 ; genPlus
                            259 ; genPlusIncr
   0042 11 0B 00            260 	ld	de,#_SpriteKeys + 11
                            261 ; genAssign (pointer)
   0045 3E 81               262 	ld	a,#0x81
   0047 12                  263 	ld	(de),a
                            264 ; genPlus
                            265 ; genPlusIncr
   0048 11 0C 00            266 	ld	de,#_SpriteKeys + 12
                            267 ; genAssign (pointer)
   004B 3E 42               268 	ld	a,#0x42
   004D 12                  269 	ld	(de),a
                            270 ; genPlus
                            271 ; genPlusIncr
   004E 11 0D 00            272 	ld	de,#_SpriteKeys + 13
                            273 ; genAssign (pointer)
   0051 3E 42               274 	ld	a,#0x42
   0053 12                  275 	ld	(de),a
                            276 ; genPlus
                            277 ; genPlusIncr
   0054 11 0E 00            278 	ld	de,#_SpriteKeys + 14
                            279 ; genAssign (pointer)
   0057 3E 3C               280 	ld	a,#0x3C
   0059 12                  281 	ld	(de),a
                            282 ; genPlus
                            283 ; genPlusIncr
   005A 11 0F 00            284 	ld	de,#_SpriteKeys + 15
                            285 ; genAssign (pointer)
   005D 3E 3C               286 	ld	a,#0x3C
   005F 12                  287 	ld	(de),a
                            288 ; genPlus
                            289 ; genPlusIncr
   0060 11 10 00            290 	ld	de,#_SpriteKeys + 16
                            291 ; genAssign (pointer)
   0063 3E 30               292 	ld	a,#0x30
   0065 12                  293 	ld	(de),a
                            294 ; genPlus
                            295 ; genPlusIncr
   0066 11 11 00            296 	ld	de,#_SpriteKeys + 17
                            297 ; genAssign (pointer)
   0069 3E 30               298 	ld	a,#0x30
   006B 12                  299 	ld	(de),a
                            300 ; genPlus
                            301 ; genPlusIncr
   006C 11 12 00            302 	ld	de,#_SpriteKeys + 18
                            303 ; genAssign (pointer)
   006F 3E 50               304 	ld	a,#0x50
   0071 12                  305 	ld	(de),a
                            306 ; genPlus
                            307 ; genPlusIncr
   0072 11 13 00            308 	ld	de,#_SpriteKeys + 19
                            309 ; genAssign (pointer)
   0075 3E 50               310 	ld	a,#0x50
   0077 12                  311 	ld	(de),a
                            312 ; genPlus
                            313 ; genPlusIncr
   0078 11 14 00            314 	ld	de,#_SpriteKeys + 20
                            315 ; genAssign (pointer)
   007B 3E 10               316 	ld	a,#0x10
   007D 12                  317 	ld	(de),a
                            318 ; genPlus
                            319 ; genPlusIncr
   007E 11 15 00            320 	ld	de,#_SpriteKeys + 21
                            321 ; genAssign (pointer)
   0081 3E 10               322 	ld	a,#0x10
   0083 12                  323 	ld	(de),a
                            324 ; genPlus
                            325 ; genPlusIncr
   0084 11 16 00            326 	ld	de,#_SpriteKeys + 22
                            327 ; genAssign (pointer)
   0087 3E 10               328 	ld	a,#0x10
   0089 12                  329 	ld	(de),a
                            330 ; genPlus
                            331 ; genPlusIncr
   008A 11 17 00            332 	ld	de,#_SpriteKeys + 23
                            333 ; genAssign (pointer)
   008D 3E 10               334 	ld	a,#0x10
   008F 12                  335 	ld	(de),a
                            336 ; genPlus
                            337 ; genPlusIncr
   0090 11 18 00            338 	ld	de,#_SpriteKeys + 24
                            339 ; genAssign (pointer)
   0093 3E 10               340 	ld	a,#0x10
   0095 12                  341 	ld	(de),a
                            342 ; genPlus
                            343 ; genPlusIncr
   0096 11 19 00            344 	ld	de,#_SpriteKeys + 25
                            345 ; genAssign (pointer)
   0099 3E 10               346 	ld	a,#0x10
   009B 12                  347 	ld	(de),a
                            348 ; genPlus
                            349 ; genPlusIncr
   009C 11 1A 00            350 	ld	de,#_SpriteKeys + 26
                            351 ; genAssign (pointer)
   009F 3E 10               352 	ld	a,#0x10
   00A1 12                  353 	ld	(de),a
                            354 ; genPlus
                            355 ; genPlusIncr
   00A2 11 1B 00            356 	ld	de,#_SpriteKeys + 27
                            357 ; genAssign (pointer)
   00A5 3E 10               358 	ld	a,#0x10
   00A7 12                  359 	ld	(de),a
                            360 ; genPlus
                            361 ; genPlusIncr
   00A8 11 1C 00            362 	ld	de,#_SpriteKeys + 28
                            363 ; genAssign (pointer)
   00AB 3E 10               364 	ld	a,#0x10
   00AD 12                  365 	ld	(de),a
                            366 ; genPlus
                            367 ; genPlusIncr
   00AE 11 1D 00            368 	ld	de,#_SpriteKeys + 29
                            369 ; genAssign (pointer)
   00B1 3E 10               370 	ld	a,#0x10
   00B3 12                  371 	ld	(de),a
                            372 ; genPlus
                            373 ; genPlusIncr
   00B4 11 1E 00            374 	ld	de,#_SpriteKeys + 30
                            375 ; genAssign (pointer)
   00B7 3E FF               376 	ld	a,#0xFF
   00B9 12                  377 	ld	(de),a
                            378 ; genPlus
                            379 ; genPlusIncr
   00BA 11 1F 00            380 	ld	de,#_SpriteKeys + 31
                            381 ; genAssign (pointer)
   00BD 3E FF               382 	ld	a,#0xFF
   00BF 12                  383 	ld	(de),a
                            384 ; genPlus
                            385 ; genPlusIncr
   00C0 11 20 00            386 	ld	de,#_SpriteKeys + 32
                            387 ; genAssign (pointer)
   00C3 3E 7E               388 	ld	a,#0x7E
   00C5 12                  389 	ld	(de),a
                            390 ; genPlus
                            391 ; genPlusIncr
   00C6 11 21 00            392 	ld	de,#_SpriteKeys + 33
                            393 ; genAssign (pointer)
   00C9 3E 7E               394 	ld	a,#0x7E
   00CB 12                  395 	ld	(de),a
                            396 ; genPlus
                            397 ; genPlusIncr
   00CC 11 22 00            398 	ld	de,#_SpriteKeys + 34
                            399 ; genAssign (pointer)
   00CF 3E 81               400 	ld	a,#0x81
   00D1 12                  401 	ld	(de),a
                            402 ; genPlus
                            403 ; genPlusIncr
   00D2 11 23 00            404 	ld	de,#_SpriteKeys + 35
                            405 ; genAssign (pointer)
   00D5 3E 81               406 	ld	a,#0x81
   00D7 12                  407 	ld	(de),a
                            408 ; genPlus
                            409 ; genPlusIncr
   00D8 11 24 00            410 	ld	de,#_SpriteKeys + 36
                            411 ; genAssign (pointer)
   00DB 3E 01               412 	ld	a,#0x01
   00DD 12                  413 	ld	(de),a
                            414 ; genPlus
                            415 ; genPlusIncr
   00DE 11 25 00            416 	ld	de,#_SpriteKeys + 37
                            417 ; genAssign (pointer)
   00E1 3E 01               418 	ld	a,#0x01
   00E3 12                  419 	ld	(de),a
                            420 ; genPlus
                            421 ; genPlusIncr
   00E4 11 26 00            422 	ld	de,#_SpriteKeys + 38
                            423 ; genAssign (pointer)
   00E7 3E 06               424 	ld	a,#0x06
   00E9 12                  425 	ld	(de),a
                            426 ; genPlus
                            427 ; genPlusIncr
   00EA 11 27 00            428 	ld	de,#_SpriteKeys + 39
                            429 ; genAssign (pointer)
   00ED 3E 06               430 	ld	a,#0x06
   00EF 12                  431 	ld	(de),a
                            432 ; genPlus
                            433 ; genPlusIncr
   00F0 11 28 00            434 	ld	de,#_SpriteKeys + 40
                            435 ; genAssign (pointer)
   00F3 3E 18               436 	ld	a,#0x18
   00F5 12                  437 	ld	(de),a
                            438 ; genPlus
                            439 ; genPlusIncr
   00F6 11 29 00            440 	ld	de,#_SpriteKeys + 41
                            441 ; genAssign (pointer)
   00F9 3E 18               442 	ld	a,#0x18
   00FB 12                  443 	ld	(de),a
                            444 ; genPlus
                            445 ; genPlusIncr
   00FC 11 2A 00            446 	ld	de,#_SpriteKeys + 42
                            447 ; genAssign (pointer)
   00FF 3E 61               448 	ld	a,#0x61
   0101 12                  449 	ld	(de),a
                            450 ; genPlus
                            451 ; genPlusIncr
   0102 11 2B 00            452 	ld	de,#_SpriteKeys + 43
                            453 ; genAssign (pointer)
   0105 3E 61               454 	ld	a,#0x61
   0107 12                  455 	ld	(de),a
                            456 ; genPlus
                            457 ; genPlusIncr
   0108 11 2C 00            458 	ld	de,#_SpriteKeys + 44
                            459 ; genAssign (pointer)
   010B 3E 81               460 	ld	a,#0x81
   010D 12                  461 	ld	(de),a
                            462 ; genPlus
                            463 ; genPlusIncr
   010E 11 2D 00            464 	ld	de,#_SpriteKeys + 45
                            465 ; genAssign (pointer)
   0111 3E 81               466 	ld	a,#0x81
   0113 12                  467 	ld	(de),a
                            468 ; genPlus
                            469 ; genPlusIncr
   0114 11 2E 00            470 	ld	de,#_SpriteKeys + 46
                            471 ; genAssign (pointer)
   0117 3E FF               472 	ld	a,#0xFF
   0119 12                  473 	ld	(de),a
                            474 ; genPlus
                            475 ; genPlusIncr
   011A 11 2F 00            476 	ld	de,#_SpriteKeys + 47
                            477 ; genAssign (pointer)
   011D 3E FF               478 	ld	a,#0xFF
   011F 12                  479 	ld	(de),a
                            480 ; genPlus
                            481 ; genPlusIncr
   0120 11 30 00            482 	ld	de,#_SpriteKeys + 48
                            483 ; genAssign (pointer)
   0123 3E 7E               484 	ld	a,#0x7E
   0125 12                  485 	ld	(de),a
                            486 ; genPlus
                            487 ; genPlusIncr
   0126 11 31 00            488 	ld	de,#_SpriteKeys + 49
                            489 ; genAssign (pointer)
   0129 3E 7E               490 	ld	a,#0x7E
   012B 12                  491 	ld	(de),a
                            492 ; genPlus
                            493 ; genPlusIncr
   012C 11 32 00            494 	ld	de,#_SpriteKeys + 50
                            495 ; genAssign (pointer)
   012F 3E 81               496 	ld	a,#0x81
   0131 12                  497 	ld	(de),a
                            498 ; genPlus
                            499 ; genPlusIncr
   0132 11 33 00            500 	ld	de,#_SpriteKeys + 51
                            501 ; genAssign (pointer)
   0135 3E 81               502 	ld	a,#0x81
   0137 12                  503 	ld	(de),a
                            504 ; genPlus
                            505 ; genPlusIncr
   0138 11 34 00            506 	ld	de,#_SpriteKeys + 52
                            507 ; genAssign (pointer)
   013B 3E 81               508 	ld	a,#0x81
   013D 12                  509 	ld	(de),a
                            510 ; genPlus
                            511 ; genPlusIncr
   013E 11 35 00            512 	ld	de,#_SpriteKeys + 53
                            513 ; genAssign (pointer)
   0141 3E 81               514 	ld	a,#0x81
   0143 12                  515 	ld	(de),a
                            516 ; genPlus
                            517 ; genPlusIncr
   0144 11 36 00            518 	ld	de,#_SpriteKeys + 54
                            519 ; genAssign (pointer)
   0147 3E 0E               520 	ld	a,#0x0E
   0149 12                  521 	ld	(de),a
                            522 ; genPlus
                            523 ; genPlusIncr
   014A 11 37 00            524 	ld	de,#_SpriteKeys + 55
                            525 ; genAssign (pointer)
   014D 3E 0E               526 	ld	a,#0x0E
   014F 12                  527 	ld	(de),a
                            528 ; genPlus
                            529 ; genPlusIncr
   0150 11 38 00            530 	ld	de,#_SpriteKeys + 56
                            531 ; genAssign (pointer)
   0153 3E 01               532 	ld	a,#0x01
   0155 12                  533 	ld	(de),a
                            534 ; genPlus
                            535 ; genPlusIncr
   0156 11 39 00            536 	ld	de,#_SpriteKeys + 57
                            537 ; genAssign (pointer)
   0159 3E 01               538 	ld	a,#0x01
   015B 12                  539 	ld	(de),a
                            540 ; genPlus
                            541 ; genPlusIncr
   015C 11 3A 00            542 	ld	de,#_SpriteKeys + 58
                            543 ; genAssign (pointer)
   015F 3E 01               544 	ld	a,#0x01
   0161 12                  545 	ld	(de),a
                            546 ; genPlus
                            547 ; genPlusIncr
   0162 11 3B 00            548 	ld	de,#_SpriteKeys + 59
                            549 ; genAssign (pointer)
   0165 3E 01               550 	ld	a,#0x01
   0167 12                  551 	ld	(de),a
                            552 ; genPlus
                            553 ; genPlusIncr
   0168 11 3C 00            554 	ld	de,#_SpriteKeys + 60
                            555 ; genAssign (pointer)
   016B 3E 81               556 	ld	a,#0x81
   016D 12                  557 	ld	(de),a
                            558 ; genPlus
                            559 ; genPlusIncr
   016E 11 3D 00            560 	ld	de,#_SpriteKeys + 61
                            561 ; genAssign (pointer)
   0171 3E 81               562 	ld	a,#0x81
   0173 12                  563 	ld	(de),a
                            564 ; genPlus
                            565 ; genPlusIncr
   0174 11 3E 00            566 	ld	de,#_SpriteKeys + 62
                            567 ; genAssign (pointer)
   0177 3E 7E               568 	ld	a,#0x7E
   0179 12                  569 	ld	(de),a
                            570 ; genPlus
                            571 ; genPlusIncr
   017A 11 3F 00            572 	ld	de,#_SpriteKeys + 63
                            573 ; genAssign (pointer)
   017D 3E 7E               574 	ld	a,#0x7E
   017F 12                  575 	ld	(de),a
                            576 ; genPlus
                            577 ; genPlusIncr
   0180 11 40 00            578 	ld	de,#_SpriteKeys + 64
                            579 ; genAssign (pointer)
   0183 3E 06               580 	ld	a,#0x06
   0185 12                  581 	ld	(de),a
                            582 ; genPlus
                            583 ; genPlusIncr
   0186 11 41 00            584 	ld	de,#_SpriteKeys + 65
                            585 ; genAssign (pointer)
   0189 3E 06               586 	ld	a,#0x06
   018B 12                  587 	ld	(de),a
                            588 ; genPlus
                            589 ; genPlusIncr
   018C 11 42 00            590 	ld	de,#_SpriteKeys + 66
                            591 ; genAssign (pointer)
   018F 3E 0A               592 	ld	a,#0x0A
   0191 12                  593 	ld	(de),a
                            594 ; genPlus
                            595 ; genPlusIncr
   0192 11 43 00            596 	ld	de,#_SpriteKeys + 67
                            597 ; genAssign (pointer)
   0195 3E 0A               598 	ld	a,#0x0A
   0197 12                  599 	ld	(de),a
                            600 ; genPlus
                            601 ; genPlusIncr
   0198 11 44 00            602 	ld	de,#_SpriteKeys + 68
                            603 ; genAssign (pointer)
   019B 3E 12               604 	ld	a,#0x12
   019D 12                  605 	ld	(de),a
                            606 ; genPlus
                            607 ; genPlusIncr
   019E 11 45 00            608 	ld	de,#_SpriteKeys + 69
                            609 ; genAssign (pointer)
   01A1 3E 12               610 	ld	a,#0x12
   01A3 12                  611 	ld	(de),a
                            612 ; genPlus
                            613 ; genPlusIncr
   01A4 11 46 00            614 	ld	de,#_SpriteKeys + 70
                            615 ; genAssign (pointer)
   01A7 3E 22               616 	ld	a,#0x22
   01A9 12                  617 	ld	(de),a
                            618 ; genPlus
                            619 ; genPlusIncr
   01AA 11 47 00            620 	ld	de,#_SpriteKeys + 71
                            621 ; genAssign (pointer)
   01AD 3E 22               622 	ld	a,#0x22
   01AF 12                  623 	ld	(de),a
                            624 ; genPlus
                            625 ; genPlusIncr
   01B0 11 48 00            626 	ld	de,#_SpriteKeys + 72
                            627 ; genAssign (pointer)
   01B3 3E 42               628 	ld	a,#0x42
   01B5 12                  629 	ld	(de),a
                            630 ; genPlus
                            631 ; genPlusIncr
   01B6 11 49 00            632 	ld	de,#_SpriteKeys + 73
                            633 ; genAssign (pointer)
   01B9 3E 42               634 	ld	a,#0x42
   01BB 12                  635 	ld	(de),a
                            636 ; genPlus
                            637 ; genPlusIncr
   01BC 11 4A 00            638 	ld	de,#_SpriteKeys + 74
                            639 ; genAssign (pointer)
   01BF 3E FF               640 	ld	a,#0xFF
   01C1 12                  641 	ld	(de),a
                            642 ; genPlus
                            643 ; genPlusIncr
   01C2 11 4B 00            644 	ld	de,#_SpriteKeys + 75
                            645 ; genAssign (pointer)
   01C5 3E FF               646 	ld	a,#0xFF
   01C7 12                  647 	ld	(de),a
                            648 ; genPlus
                            649 ; genPlusIncr
   01C8 11 4C 00            650 	ld	de,#_SpriteKeys + 76
                            651 ; genAssign (pointer)
   01CB 3E 02               652 	ld	a,#0x02
   01CD 12                  653 	ld	(de),a
                            654 ; genPlus
                            655 ; genPlusIncr
   01CE 11 4D 00            656 	ld	de,#_SpriteKeys + 77
                            657 ; genAssign (pointer)
   01D1 3E 02               658 	ld	a,#0x02
   01D3 12                  659 	ld	(de),a
                            660 ; genPlus
                            661 ; genPlusIncr
   01D4 11 4E 00            662 	ld	de,#_SpriteKeys + 78
                            663 ; genAssign (pointer)
   01D7 3E 07               664 	ld	a,#0x07
   01D9 12                  665 	ld	(de),a
                            666 ; genPlus
                            667 ; genPlusIncr
   01DA 11 4F 00            668 	ld	de,#_SpriteKeys + 79
                            669 ; genAssign (pointer)
   01DD 3E 07               670 	ld	a,#0x07
   01DF 12                  671 	ld	(de),a
                            672 ; genPlus
                            673 ; genPlusIncr
   01E0 11 50 00            674 	ld	de,#_SpriteKeys + 80
                            675 ; genAssign (pointer)
   01E3 3E FF               676 	ld	a,#0xFF
   01E5 12                  677 	ld	(de),a
                            678 ; genPlus
                            679 ; genPlusIncr
   01E6 11 51 00            680 	ld	de,#_SpriteKeys + 81
                            681 ; genAssign (pointer)
   01E9 3E FF               682 	ld	a,#0xFF
   01EB 12                  683 	ld	(de),a
                            684 ; genPlus
                            685 ; genPlusIncr
   01EC 11 52 00            686 	ld	de,#_SpriteKeys + 82
                            687 ; genAssign (pointer)
   01EF 3E 81               688 	ld	a,#0x81
   01F1 12                  689 	ld	(de),a
                            690 ; genPlus
                            691 ; genPlusIncr
   01F2 11 53 00            692 	ld	de,#_SpriteKeys + 83
                            693 ; genAssign (pointer)
   01F5 3E 81               694 	ld	a,#0x81
   01F7 12                  695 	ld	(de),a
                            696 ; genPlus
                            697 ; genPlusIncr
   01F8 11 54 00            698 	ld	de,#_SpriteKeys + 84
                            699 ; genAssign (pointer)
   01FB 3E 80               700 	ld	a,#0x80
   01FD 12                  701 	ld	(de),a
                            702 ; genPlus
                            703 ; genPlusIncr
   01FE 11 55 00            704 	ld	de,#_SpriteKeys + 85
                            705 ; genAssign (pointer)
   0201 3E 80               706 	ld	a,#0x80
   0203 12                  707 	ld	(de),a
                            708 ; genPlus
                            709 ; genPlusIncr
   0204 11 56 00            710 	ld	de,#_SpriteKeys + 86
                            711 ; genAssign (pointer)
   0207 3E FE               712 	ld	a,#0xFE
   0209 12                  713 	ld	(de),a
                            714 ; genPlus
                            715 ; genPlusIncr
   020A 11 57 00            716 	ld	de,#_SpriteKeys + 87
                            717 ; genAssign (pointer)
   020D 3E FE               718 	ld	a,#0xFE
   020F 12                  719 	ld	(de),a
                            720 ; genPlus
                            721 ; genPlusIncr
   0210 11 58 00            722 	ld	de,#_SpriteKeys + 88
                            723 ; genAssign (pointer)
   0213 3E 01               724 	ld	a,#0x01
   0215 12                  725 	ld	(de),a
                            726 ; genPlus
                            727 ; genPlusIncr
   0216 11 59 00            728 	ld	de,#_SpriteKeys + 89
                            729 ; genAssign (pointer)
   0219 3E 01               730 	ld	a,#0x01
   021B 12                  731 	ld	(de),a
                            732 ; genPlus
                            733 ; genPlusIncr
   021C 11 5A 00            734 	ld	de,#_SpriteKeys + 90
                            735 ; genAssign (pointer)
   021F 3E 81               736 	ld	a,#0x81
   0221 12                  737 	ld	(de),a
                            738 ; genPlus
                            739 ; genPlusIncr
   0222 11 5B 00            740 	ld	de,#_SpriteKeys + 91
                            741 ; genAssign (pointer)
   0225 3E 81               742 	ld	a,#0x81
   0227 12                  743 	ld	(de),a
                            744 ; genPlus
                            745 ; genPlusIncr
   0228 11 5C 00            746 	ld	de,#_SpriteKeys + 92
                            747 ; genAssign (pointer)
   022B 3E 81               748 	ld	a,#0x81
   022D 12                  749 	ld	(de),a
                            750 ; genPlus
                            751 ; genPlusIncr
   022E 11 5D 00            752 	ld	de,#_SpriteKeys + 93
                            753 ; genAssign (pointer)
   0231 3E 81               754 	ld	a,#0x81
   0233 12                  755 	ld	(de),a
                            756 ; genPlus
                            757 ; genPlusIncr
   0234 11 5E 00            758 	ld	de,#_SpriteKeys + 94
                            759 ; genAssign (pointer)
   0237 3E 7E               760 	ld	a,#0x7E
   0239 12                  761 	ld	(de),a
                            762 ; genPlus
                            763 ; genPlusIncr
   023A 11 5F 00            764 	ld	de,#_SpriteKeys + 95
                            765 ; genAssign (pointer)
   023D 3E 7E               766 	ld	a,#0x7E
   023F 12                  767 	ld	(de),a
                            768 ; genPlus
                            769 ; genPlusIncr
   0240 11 60 00            770 	ld	de,#_SpriteKeys + 96
                            771 ; genAssign (pointer)
   0243 3E 7E               772 	ld	a,#0x7E
   0245 12                  773 	ld	(de),a
                            774 ; genPlus
                            775 ; genPlusIncr
   0246 11 61 00            776 	ld	de,#_SpriteKeys + 97
                            777 ; genAssign (pointer)
   0249 3E 7E               778 	ld	a,#0x7E
   024B 12                  779 	ld	(de),a
                            780 ; genPlus
                            781 ; genPlusIncr
   024C 11 62 00            782 	ld	de,#_SpriteKeys + 98
                            783 ; genAssign (pointer)
   024F 3E 81               784 	ld	a,#0x81
   0251 12                  785 	ld	(de),a
                            786 ; genPlus
                            787 ; genPlusIncr
   0252 11 63 00            788 	ld	de,#_SpriteKeys + 99
                            789 ; genAssign (pointer)
   0255 3E 81               790 	ld	a,#0x81
   0257 12                  791 	ld	(de),a
                            792 ; genPlus
                            793 ; genPlusIncr
   0258 11 64 00            794 	ld	de,#_SpriteKeys + 100
                            795 ; genAssign (pointer)
   025B 3E 80               796 	ld	a,#0x80
   025D 12                  797 	ld	(de),a
                            798 ; genPlus
                            799 ; genPlusIncr
   025E 11 65 00            800 	ld	de,#_SpriteKeys + 101
                            801 ; genAssign (pointer)
   0261 3E 80               802 	ld	a,#0x80
   0263 12                  803 	ld	(de),a
                            804 ; genPlus
                            805 ; genPlusIncr
   0264 11 66 00            806 	ld	de,#_SpriteKeys + 102
                            807 ; genAssign (pointer)
   0267 3E FE               808 	ld	a,#0xFE
   0269 12                  809 	ld	(de),a
                            810 ; genPlus
                            811 ; genPlusIncr
   026A 11 67 00            812 	ld	de,#_SpriteKeys + 103
                            813 ; genAssign (pointer)
   026D 3E FE               814 	ld	a,#0xFE
   026F 12                  815 	ld	(de),a
                            816 ; genPlus
                            817 ; genPlusIncr
   0270 11 68 00            818 	ld	de,#_SpriteKeys + 104
                            819 ; genAssign (pointer)
   0273 3E 81               820 	ld	a,#0x81
   0275 12                  821 	ld	(de),a
                            822 ; genPlus
                            823 ; genPlusIncr
   0276 11 69 00            824 	ld	de,#_SpriteKeys + 105
                            825 ; genAssign (pointer)
   0279 3E 81               826 	ld	a,#0x81
   027B 12                  827 	ld	(de),a
                            828 ; genPlus
                            829 ; genPlusIncr
   027C 11 6A 00            830 	ld	de,#_SpriteKeys + 106
                            831 ; genAssign (pointer)
   027F 3E 81               832 	ld	a,#0x81
   0281 12                  833 	ld	(de),a
                            834 ; genPlus
                            835 ; genPlusIncr
   0282 11 6B 00            836 	ld	de,#_SpriteKeys + 107
                            837 ; genAssign (pointer)
   0285 3E 81               838 	ld	a,#0x81
   0287 12                  839 	ld	(de),a
                            840 ; genPlus
                            841 ; genPlusIncr
   0288 11 6C 00            842 	ld	de,#_SpriteKeys + 108
                            843 ; genAssign (pointer)
   028B 3E 81               844 	ld	a,#0x81
   028D 12                  845 	ld	(de),a
                            846 ; genPlus
                            847 ; genPlusIncr
   028E 11 6D 00            848 	ld	de,#_SpriteKeys + 109
                            849 ; genAssign (pointer)
   0291 3E 81               850 	ld	a,#0x81
   0293 12                  851 	ld	(de),a
                            852 ; genPlus
                            853 ; genPlusIncr
   0294 11 6E 00            854 	ld	de,#_SpriteKeys + 110
                            855 ; genAssign (pointer)
   0297 3E 7E               856 	ld	a,#0x7E
   0299 12                  857 	ld	(de),a
                            858 ; genPlus
                            859 ; genPlusIncr
   029A 11 6F 00            860 	ld	de,#_SpriteKeys + 111
                            861 ; genAssign (pointer)
   029D 3E 7E               862 	ld	a,#0x7E
   029F 12                  863 	ld	(de),a
                            864 ; genPlus
                            865 ; genPlusIncr
   02A0 11 70 00            866 	ld	de,#_SpriteKeys + 112
                            867 ; genAssign (pointer)
   02A3 3E FF               868 	ld	a,#0xFF
   02A5 12                  869 	ld	(de),a
                            870 ; genPlus
                            871 ; genPlusIncr
   02A6 11 71 00            872 	ld	de,#_SpriteKeys + 113
                            873 ; genAssign (pointer)
   02A9 3E FF               874 	ld	a,#0xFF
   02AB 12                  875 	ld	(de),a
                            876 ; genPlus
                            877 ; genPlusIncr
   02AC 11 72 00            878 	ld	de,#_SpriteKeys + 114
                            879 ; genAssign (pointer)
   02AF 3E 81               880 	ld	a,#0x81
   02B1 12                  881 	ld	(de),a
                            882 ; genPlus
                            883 ; genPlusIncr
   02B2 11 73 00            884 	ld	de,#_SpriteKeys + 115
                            885 ; genAssign (pointer)
   02B5 3E 81               886 	ld	a,#0x81
   02B7 12                  887 	ld	(de),a
                            888 ; genPlus
                            889 ; genPlusIncr
   02B8 11 74 00            890 	ld	de,#_SpriteKeys + 116
                            891 ; genAssign (pointer)
   02BB 3E 02               892 	ld	a,#0x02
   02BD 12                  893 	ld	(de),a
                            894 ; genPlus
                            895 ; genPlusIncr
   02BE 11 75 00            896 	ld	de,#_SpriteKeys + 117
                            897 ; genAssign (pointer)
   02C1 3E 02               898 	ld	a,#0x02
   02C3 12                  899 	ld	(de),a
                            900 ; genPlus
                            901 ; genPlusIncr
   02C4 11 76 00            902 	ld	de,#_SpriteKeys + 118
                            903 ; genAssign (pointer)
   02C7 3E 04               904 	ld	a,#0x04
   02C9 12                  905 	ld	(de),a
                            906 ; genPlus
                            907 ; genPlusIncr
   02CA 11 77 00            908 	ld	de,#_SpriteKeys + 119
                            909 ; genAssign (pointer)
   02CD 3E 04               910 	ld	a,#0x04
   02CF 12                  911 	ld	(de),a
                            912 ; genPlus
                            913 ; genPlusIncr
   02D0 11 78 00            914 	ld	de,#_SpriteKeys + 120
                            915 ; genAssign (pointer)
   02D3 3E 08               916 	ld	a,#0x08
   02D5 12                  917 	ld	(de),a
                            918 ; genPlus
                            919 ; genPlusIncr
   02D6 11 79 00            920 	ld	de,#_SpriteKeys + 121
                            921 ; genAssign (pointer)
   02D9 3E 08               922 	ld	a,#0x08
   02DB 12                  923 	ld	(de),a
                            924 ; genPlus
                            925 ; genPlusIncr
   02DC 11 7A 00            926 	ld	de,#_SpriteKeys + 122
                            927 ; genAssign (pointer)
   02DF 3E 10               928 	ld	a,#0x10
   02E1 12                  929 	ld	(de),a
                            930 ; genPlus
                            931 ; genPlusIncr
   02E2 11 7B 00            932 	ld	de,#_SpriteKeys + 123
                            933 ; genAssign (pointer)
   02E5 3E 10               934 	ld	a,#0x10
   02E7 12                  935 	ld	(de),a
                            936 ; genPlus
                            937 ; genPlusIncr
   02E8 11 7C 00            938 	ld	de,#_SpriteKeys + 124
                            939 ; genAssign (pointer)
   02EB 3E 10               940 	ld	a,#0x10
   02ED 12                  941 	ld	(de),a
                            942 ; genPlus
                            943 ; genPlusIncr
   02EE 11 7D 00            944 	ld	de,#_SpriteKeys + 125
                            945 ; genAssign (pointer)
   02F1 3E 10               946 	ld	a,#0x10
   02F3 12                  947 	ld	(de),a
                            948 ; genPlus
                            949 ; genPlusIncr
   02F4 11 7E 00            950 	ld	de,#_SpriteKeys + 126
                            951 ; genAssign (pointer)
   02F7 3E 38               952 	ld	a,#0x38
   02F9 12                  953 	ld	(de),a
                            954 ; genPlus
                            955 ; genPlusIncr
   02FA 11 7F 00            956 	ld	de,#_SpriteKeys + 127
                            957 ; genAssign (pointer)
   02FD 3E 38               958 	ld	a,#0x38
   02FF 12                  959 	ld	(de),a
                            960 ; genPlus
                            961 ; genPlusIncr
   0300 11 80 00            962 	ld	de,#_SpriteKeys + 128
                            963 ; genAssign (pointer)
   0303 3E 7E               964 	ld	a,#0x7E
   0305 12                  965 	ld	(de),a
                            966 ; genPlus
                            967 ; genPlusIncr
   0306 11 81 00            968 	ld	de,#_SpriteKeys + 129
                            969 ; genAssign (pointer)
   0309 3E 7E               970 	ld	a,#0x7E
   030B 12                  971 	ld	(de),a
                            972 ; genPlus
                            973 ; genPlusIncr
   030C 11 82 00            974 	ld	de,#_SpriteKeys + 130
                            975 ; genAssign (pointer)
   030F 3E 81               976 	ld	a,#0x81
   0311 12                  977 	ld	(de),a
                            978 ; genPlus
                            979 ; genPlusIncr
   0312 11 83 00            980 	ld	de,#_SpriteKeys + 131
                            981 ; genAssign (pointer)
   0315 3E 81               982 	ld	a,#0x81
   0317 12                  983 	ld	(de),a
                            984 ; genPlus
                            985 ; genPlusIncr
   0318 11 84 00            986 	ld	de,#_SpriteKeys + 132
                            987 ; genAssign (pointer)
   031B 3E 81               988 	ld	a,#0x81
   031D 12                  989 	ld	(de),a
                            990 ; genPlus
                            991 ; genPlusIncr
   031E 11 85 00            992 	ld	de,#_SpriteKeys + 133
                            993 ; genAssign (pointer)
   0321 3E 81               994 	ld	a,#0x81
   0323 12                  995 	ld	(de),a
                            996 ; genPlus
                            997 ; genPlusIncr
   0324 11 86 00            998 	ld	de,#_SpriteKeys + 134
                            999 ; genAssign (pointer)
   0327 3E 7E              1000 	ld	a,#0x7E
   0329 12                 1001 	ld	(de),a
                           1002 ; genPlus
                           1003 ; genPlusIncr
   032A 11 87 00           1004 	ld	de,#_SpriteKeys + 135
                           1005 ; genAssign (pointer)
   032D 3E 7E              1006 	ld	a,#0x7E
   032F 12                 1007 	ld	(de),a
                           1008 ; genPlus
                           1009 ; genPlusIncr
   0330 11 88 00           1010 	ld	de,#_SpriteKeys + 136
                           1011 ; genAssign (pointer)
   0333 3E 81              1012 	ld	a,#0x81
   0335 12                 1013 	ld	(de),a
                           1014 ; genPlus
                           1015 ; genPlusIncr
   0336 11 89 00           1016 	ld	de,#_SpriteKeys + 137
                           1017 ; genAssign (pointer)
   0339 3E 81              1018 	ld	a,#0x81
   033B 12                 1019 	ld	(de),a
                           1020 ; genPlus
                           1021 ; genPlusIncr
   033C 11 8A 00           1022 	ld	de,#_SpriteKeys + 138
                           1023 ; genAssign (pointer)
   033F 3E 81              1024 	ld	a,#0x81
   0341 12                 1025 	ld	(de),a
                           1026 ; genPlus
                           1027 ; genPlusIncr
   0342 11 8B 00           1028 	ld	de,#_SpriteKeys + 139
                           1029 ; genAssign (pointer)
   0345 3E 81              1030 	ld	a,#0x81
   0347 12                 1031 	ld	(de),a
                           1032 ; genPlus
                           1033 ; genPlusIncr
   0348 11 8C 00           1034 	ld	de,#_SpriteKeys + 140
                           1035 ; genAssign (pointer)
   034B 3E 81              1036 	ld	a,#0x81
   034D 12                 1037 	ld	(de),a
                           1038 ; genPlus
                           1039 ; genPlusIncr
   034E 11 8D 00           1040 	ld	de,#_SpriteKeys + 141
                           1041 ; genAssign (pointer)
   0351 3E 81              1042 	ld	a,#0x81
   0353 12                 1043 	ld	(de),a
                           1044 ; genPlus
                           1045 ; genPlusIncr
   0354 11 8E 00           1046 	ld	de,#_SpriteKeys + 142
                           1047 ; genAssign (pointer)
   0357 3E 7E              1048 	ld	a,#0x7E
   0359 12                 1049 	ld	(de),a
                           1050 ; genPlus
                           1051 ; genPlusIncr
   035A 11 8F 00           1052 	ld	de,#_SpriteKeys + 143
                           1053 ; genAssign (pointer)
   035D 3E 7E              1054 	ld	a,#0x7E
   035F 12                 1055 	ld	(de),a
                           1056 ; genPlus
                           1057 ; genPlusIncr
   0360 11 90 00           1058 	ld	de,#_SpriteKeys + 144
                           1059 ; genAssign (pointer)
   0363 3E 7E              1060 	ld	a,#0x7E
   0365 12                 1061 	ld	(de),a
                           1062 ; genPlus
                           1063 ; genPlusIncr
   0366 11 91 00           1064 	ld	de,#_SpriteKeys + 145
                           1065 ; genAssign (pointer)
   0369 3E 7E              1066 	ld	a,#0x7E
   036B 12                 1067 	ld	(de),a
                           1068 ; genPlus
                           1069 ; genPlusIncr
   036C 11 92 00           1070 	ld	de,#_SpriteKeys + 146
                           1071 ; genAssign (pointer)
   036F 3E 81              1072 	ld	a,#0x81
   0371 12                 1073 	ld	(de),a
                           1074 ; genPlus
                           1075 ; genPlusIncr
   0372 11 93 00           1076 	ld	de,#_SpriteKeys + 147
                           1077 ; genAssign (pointer)
   0375 3E 81              1078 	ld	a,#0x81
   0377 12                 1079 	ld	(de),a
                           1080 ; genPlus
                           1081 ; genPlusIncr
   0378 11 94 00           1082 	ld	de,#_SpriteKeys + 148
                           1083 ; genAssign (pointer)
   037B 3E 81              1084 	ld	a,#0x81
   037D 12                 1085 	ld	(de),a
                           1086 ; genPlus
                           1087 ; genPlusIncr
   037E 11 95 00           1088 	ld	de,#_SpriteKeys + 149
                           1089 ; genAssign (pointer)
   0381 3E 81              1090 	ld	a,#0x81
   0383 12                 1091 	ld	(de),a
                           1092 ; genPlus
                           1093 ; genPlusIncr
   0384 11 96 00           1094 	ld	de,#_SpriteKeys + 150
                           1095 ; genAssign (pointer)
   0387 3E 81              1096 	ld	a,#0x81
   0389 12                 1097 	ld	(de),a
                           1098 ; genPlus
                           1099 ; genPlusIncr
   038A 11 97 00           1100 	ld	de,#_SpriteKeys + 151
                           1101 ; genAssign (pointer)
   038D 3E 81              1102 	ld	a,#0x81
   038F 12                 1103 	ld	(de),a
                           1104 ; genPlus
                           1105 ; genPlusIncr
   0390 11 98 00           1106 	ld	de,#_SpriteKeys + 152
                           1107 ; genAssign (pointer)
   0393 3E 7F              1108 	ld	a,#0x7F
   0395 12                 1109 	ld	(de),a
                           1110 ; genPlus
                           1111 ; genPlusIncr
   0396 11 99 00           1112 	ld	de,#_SpriteKeys + 153
                           1113 ; genAssign (pointer)
   0399 3E 7F              1114 	ld	a,#0x7F
   039B 12                 1115 	ld	(de),a
                           1116 ; genPlus
                           1117 ; genPlusIncr
   039C 11 9A 00           1118 	ld	de,#_SpriteKeys + 154
                           1119 ; genAssign (pointer)
   039F 3E 01              1120 	ld	a,#0x01
   03A1 12                 1121 	ld	(de),a
                           1122 ; genPlus
                           1123 ; genPlusIncr
   03A2 11 9B 00           1124 	ld	de,#_SpriteKeys + 155
                           1125 ; genAssign (pointer)
   03A5 3E 01              1126 	ld	a,#0x01
   03A7 12                 1127 	ld	(de),a
                           1128 ; genPlus
                           1129 ; genPlusIncr
   03A8 11 9C 00           1130 	ld	de,#_SpriteKeys + 156
                           1131 ; genAssign (pointer)
   03AB 3E 81              1132 	ld	a,#0x81
   03AD 12                 1133 	ld	(de),a
                           1134 ; genPlus
                           1135 ; genPlusIncr
   03AE 11 9D 00           1136 	ld	de,#_SpriteKeys + 157
                           1137 ; genAssign (pointer)
   03B1 3E 81              1138 	ld	a,#0x81
   03B3 12                 1139 	ld	(de),a
                           1140 ; genPlus
                           1141 ; genPlusIncr
   03B4 11 9E 00           1142 	ld	de,#_SpriteKeys + 158
                           1143 ; genAssign (pointer)
   03B7 3E 7E              1144 	ld	a,#0x7E
   03B9 12                 1145 	ld	(de),a
                           1146 ; genPlus
                           1147 ; genPlusIncr
   03BA 11 9F 00           1148 	ld	de,#_SpriteKeys + 159
                           1149 ; genAssign (pointer)
   03BD 3E 7E              1150 	ld	a,#0x7E
   03BF 12                 1151 	ld	(de),a
                           1152 ; genPlus
                           1153 ; genPlusIncr
   03C0 11 A0 00           1154 	ld	de,#_SpriteKeys + 160
                           1155 ; genAssign (pointer)
   03C3 3E 7E              1156 	ld	a,#0x7E
   03C5 12                 1157 	ld	(de),a
                           1158 ; genPlus
                           1159 ; genPlusIncr
   03C6 11 A1 00           1160 	ld	de,#_SpriteKeys + 161
                           1161 ; genAssign (pointer)
   03C9 3E 7E              1162 	ld	a,#0x7E
   03CB 12                 1163 	ld	(de),a
                           1164 ; genPlus
                           1165 ; genPlusIncr
   03CC 11 A2 00           1166 	ld	de,#_SpriteKeys + 162
                           1167 ; genAssign (pointer)
   03CF 3E 99              1168 	ld	a,#0x99
   03D1 12                 1169 	ld	(de),a
                           1170 ; genPlus
                           1171 ; genPlusIncr
   03D2 11 A3 00           1172 	ld	de,#_SpriteKeys + 163
                           1173 ; genAssign (pointer)
   03D5 3E E7              1174 	ld	a,#0xE7
   03D7 12                 1175 	ld	(de),a
                           1176 ; genPlus
                           1177 ; genPlusIncr
   03D8 11 A4 00           1178 	ld	de,#_SpriteKeys + 164
                           1179 ; genAssign (pointer)
   03DB 3E FF              1180 	ld	a,#0xFF
   03DD 12                 1181 	ld	(de),a
                           1182 ; genPlus
                           1183 ; genPlusIncr
   03DE 11 A5 00           1184 	ld	de,#_SpriteKeys + 165
                           1185 ; genAssign (pointer)
   03E1 3E A5              1186 	ld	a,#0xA5
   03E3 12                 1187 	ld	(de),a
                           1188 ; genPlus
                           1189 ; genPlusIncr
   03E4 11 A6 00           1190 	ld	de,#_SpriteKeys + 166
                           1191 ; genAssign (pointer)
   03E7 3E FF              1192 	ld	a,#0xFF
   03E9 12                 1193 	ld	(de),a
                           1194 ; genPlus
                           1195 ; genPlusIncr
   03EA 11 A7 00           1196 	ld	de,#_SpriteKeys + 167
                           1197 ; genAssign (pointer)
   03ED 3E 81              1198 	ld	a,#0x81
   03EF 12                 1199 	ld	(de),a
                           1200 ; genPlus
                           1201 ; genPlusIncr
   03F0 11 A8 00           1202 	ld	de,#_SpriteKeys + 168
                           1203 ; genAssign (pointer)
   03F3 3E FF              1204 	ld	a,#0xFF
   03F5 12                 1205 	ld	(de),a
                           1206 ; genPlus
                           1207 ; genPlusIncr
   03F6 11 A9 00           1208 	ld	de,#_SpriteKeys + 169
                           1209 ; genAssign (pointer)
   03F9 3E 99              1210 	ld	a,#0x99
   03FB 12                 1211 	ld	(de),a
                           1212 ; genPlus
                           1213 ; genPlusIncr
   03FC 11 AA 00           1214 	ld	de,#_SpriteKeys + 170
                           1215 ; genAssign (pointer)
   03FF 3E FF              1216 	ld	a,#0xFF
   0401 12                 1217 	ld	(de),a
                           1218 ; genPlus
                           1219 ; genPlusIncr
   0402 11 AB 00           1220 	ld	de,#_SpriteKeys + 171
                           1221 ; genAssign (pointer)
   0405 3E A5              1222 	ld	a,#0xA5
   0407 12                 1223 	ld	(de),a
                           1224 ; genPlus
                           1225 ; genPlusIncr
   0408 11 AC 00           1226 	ld	de,#_SpriteKeys + 172
                           1227 ; genAssign (pointer)
   040B 3E FF              1228 	ld	a,#0xFF
   040D 12                 1229 	ld	(de),a
                           1230 ; genPlus
                           1231 ; genPlusIncr
   040E 11 AD 00           1232 	ld	de,#_SpriteKeys + 173
                           1233 ; genAssign (pointer)
   0411 3E 81              1234 	ld	a,#0x81
   0413 12                 1235 	ld	(de),a
                           1236 ; genPlus
                           1237 ; genPlusIncr
   0414 11 AE 00           1238 	ld	de,#_SpriteKeys + 174
                           1239 ; genAssign (pointer)
   0417 3E 7E              1240 	ld	a,#0x7E
   0419 12                 1241 	ld	(de),a
                           1242 ; genPlus
                           1243 ; genPlusIncr
   041A 11 AF 00           1244 	ld	de,#_SpriteKeys + 175
                           1245 ; genAssign (pointer)
   041D 3E 7E              1246 	ld	a,#0x7E
   041F 12                 1247 	ld	(de),a
                           1248 ; genPlus
                           1249 ; genPlusIncr
   0420 11 B0 00           1250 	ld	de,#_SpriteKeys + 176
                           1251 ; genAssign (pointer)
   0423 3E 00              1252 	ld	a,#0x00
   0425 12                 1253 	ld	(de),a
                           1254 ; genPlus
                           1255 ; genPlusIncr
   0426 11 B1 00           1256 	ld	de,#_SpriteKeys + 177
                           1257 ; genAssign (pointer)
   0429 3E 3C              1258 	ld	a,#0x3C
   042B 12                 1259 	ld	(de),a
                           1260 ; genPlus
                           1261 ; genPlusIncr
   042C 11 B2 00           1262 	ld	de,#_SpriteKeys + 178
                           1263 ; genAssign (pointer)
   042F 3E 3C              1264 	ld	a,#0x3C
   0431 12                 1265 	ld	(de),a
                           1266 ; genPlus
                           1267 ; genPlusIncr
   0432 11 B3 00           1268 	ld	de,#_SpriteKeys + 179
                           1269 ; genAssign (pointer)
   0435 3E 42              1270 	ld	a,#0x42
   0437 12                 1271 	ld	(de),a
                           1272 ; genPlus
                           1273 ; genPlusIncr
   0438 11 B4 00           1274 	ld	de,#_SpriteKeys + 180
                           1275 ; genAssign (pointer)
   043B 3E 7E              1276 	ld	a,#0x7E
   043D 12                 1277 	ld	(de),a
                           1278 ; genPlus
                           1279 ; genPlusIncr
   043E 11 B5 00           1280 	ld	de,#_SpriteKeys + 181
                           1281 ; genAssign (pointer)
   0441 3E A5              1282 	ld	a,#0xA5
   0443 12                 1283 	ld	(de),a
                           1284 ; genPlus
                           1285 ; genPlusIncr
   0444 11 B6 00           1286 	ld	de,#_SpriteKeys + 182
                           1287 ; genAssign (pointer)
   0447 3E 7E              1288 	ld	a,#0x7E
   0449 12                 1289 	ld	(de),a
                           1290 ; genPlus
                           1291 ; genPlusIncr
   044A 11 B7 00           1292 	ld	de,#_SpriteKeys + 183
                           1293 ; genAssign (pointer)
   044D 3E 81              1294 	ld	a,#0x81
   044F 12                 1295 	ld	(de),a
                           1296 ; genPlus
                           1297 ; genPlusIncr
   0450 11 B8 00           1298 	ld	de,#_SpriteKeys + 184
                           1299 ; genAssign (pointer)
   0453 3E 66              1300 	ld	a,#0x66
   0455 12                 1301 	ld	(de),a
                           1302 ; genPlus
                           1303 ; genPlusIncr
   0456 11 B9 00           1304 	ld	de,#_SpriteKeys + 185
                           1305 ; genAssign (pointer)
   0459 3E 99              1306 	ld	a,#0x99
   045B 12                 1307 	ld	(de),a
                           1308 ; genPlus
                           1309 ; genPlusIncr
   045C 11 BA 00           1310 	ld	de,#_SpriteKeys + 186
                           1311 ; genAssign (pointer)
   045F 3E 7E              1312 	ld	a,#0x7E
   0461 12                 1313 	ld	(de),a
                           1314 ; genPlus
                           1315 ; genPlusIncr
   0462 11 BB 00           1316 	ld	de,#_SpriteKeys + 187
                           1317 ; genAssign (pointer)
   0465 3E 81              1318 	ld	a,#0x81
   0467 12                 1319 	ld	(de),a
                           1320 ; genPlus
                           1321 ; genPlusIncr
   0468 11 BC 00           1322 	ld	de,#_SpriteKeys + 188
                           1323 ; genAssign (pointer)
   046B 3E 66              1324 	ld	a,#0x66
   046D 12                 1325 	ld	(de),a
                           1326 ; genPlus
                           1327 ; genPlusIncr
   046E 11 BD 00           1328 	ld	de,#_SpriteKeys + 189
                           1329 ; genAssign (pointer)
   0471 3E 99              1330 	ld	a,#0x99
   0473 12                 1331 	ld	(de),a
                           1332 ; genPlus
                           1333 ; genPlusIncr
   0474 11 BE 00           1334 	ld	de,#_SpriteKeys + 190
                           1335 ; genAssign (pointer)
   0477 3E 00              1336 	ld	a,#0x00
   0479 12                 1337 	ld	(de),a
                           1338 ; genPlus
                           1339 ; genPlusIncr
   047A 11 BF 00           1340 	ld	de,#_SpriteKeys + 191
                           1341 ; genAssign (pointer)
   047D 3E 66              1342 	ld	a,#0x66
   047F 12                 1343 	ld	(de),a
                           1344 ;--------------------------------------------------------
                           1345 ; code
                           1346 ;--------------------------------------------------------
                           1347 	.area _CODE
                           1348 ;	util.c 3
                           1349 ; genLabel
                           1350 ; genFunction
                           1351 ;	---------------------------------
                           1352 ; Function performant_delay
                           1353 ; ---------------------------------
   0000                    1354 ___performant_delay_start:
   0000                    1355 _performant_delay:
   0000 C5                 1356 	push	bc
                           1357 ;	util.c 5
                           1358 ; genAssign
   0001 0E 00              1359 	ld	c,#0x00
                           1360 ; genLabel
   0003                    1361 00101$:
                           1362 ; genCmpLt
                           1363 ; AOP_STK for 
   0003 AF                 1364 	xor	a,a
   0004 79                 1365 	ld	a,c
   0005 F8 04              1366 	lda	hl,4(sp)
   0007 9E                 1367 	sbc	a,(hl) ; 2
   0008 D2 12 00           1368 	jp	nc,00105$
                           1369 ;	util.c 7
                           1370 ; genCall
   000B CD 00 00           1371 	call	_wait_vbl_done
                           1372 ;	util.c 5
                           1373 ; genPlus
                           1374 ; genPlusIncr
   000E 0C                 1375 	inc	c
                           1376 ; genGoto
   000F C3 03 00           1377 	jp	00101$
                           1378 ; genLabel
   0012                    1379 00105$:
                           1380 ; genEndFunction
   0012 C1                 1381 	pop	bc
   0013 C9                 1382 	ret
   0014                    1383 ___performant_delay_end:
                           1384 ;	util.c 11
                           1385 ; genLabel
                           1386 ; genFunction
                           1387 ;	---------------------------------
                           1388 ; Function random_number
                           1389 ; ---------------------------------
   0014                    1390 ___random_number_start:
   0014                    1391 _random_number:
   0014 C5                 1392 	push	bc
                           1393 ;	util.c 12
                           1394 ; genCall
   0015 CD 00 00           1395 	call	_rand
   0018 4B                 1396 	ld	c,e
                           1397 ; genCast
                           1398 ; Removed redundent load
   0019 79                 1399 	ld	a,c
                           1400 ; genCast: sign extend untested.
   001A 17                 1401 	rla	
   001B 9F                 1402 	sbc	a,a
   001C 47                 1403 	ld	b,a
                           1404 ; genIpush
                           1405 ; AOP_STK for 
   001D F8 04              1406 	lda	hl,4(sp)
   001F 2A                 1407 	ld	a,(hl+)
   0020 66                 1408 	ld	h,(hl)
   0021 6F                 1409 	ld	l,a
   0022 E5                 1410 	push	hl
                           1411 ; genIpush
   0023 C5                 1412 	push	bc
                           1413 ; genCall
   0024 CD 00 00           1414 	call	__modsint
   0027 42                 1415 	ld	b,d
   0028 4B                 1416 	ld	c,e
   0029 E8 04              1417 	lda	sp,4(sp)
                           1418 ; genPlus
                           1419 ; genPlusIncr
   002B 03                 1420 	inc	bc
                           1421 ;	util.c 13
                           1422 ; genCmpLt
   002C 78                 1423 	ld	a,b
   002D CB 7F              1424 	bit	7,a
   002F CA 3E 00           1425 	jp	z,00102$
                           1426 ;	util.c 14
                           1427 ; genIpush
   0032 21 FF FF           1428 	ld	hl,#0xFFFFFFFF
   0035 E5                 1429 	push	hl
                           1430 ; genIpush
   0036 C5                 1431 	push	bc
                           1432 ; genCall
   0037 CD 00 00           1433 	call	__mulsint
   003A 42                 1434 	ld	b,d
   003B 4B                 1435 	ld	c,e
   003C E8 04              1436 	lda	sp,4(sp)
                           1437 ; genLabel
   003E                    1438 00102$:
                           1439 ;	util.c 16
                           1440 ; genRet
   003E 59                 1441 	ld	e,c
   003F 50                 1442 	ld	d,b
                           1443 ; genLabel
   0040                    1444 00103$:
                           1445 ; genEndFunction
   0040 C1                 1446 	pop	bc
   0041 C9                 1447 	ret
   0042                    1448 ___random_number_end:
                           1449 ;	main.c 18
                           1450 ; genLabel
                           1451 ; genFunction
                           1452 ;	---------------------------------
                           1453 ; Function init_numbers
                           1454 ; ---------------------------------
   0042                    1455 ___init_numbers_start:
   0042                    1456 _init_numbers:
   0042 C5                 1457 	push	bc
                           1458 ;	main.c 20
                           1459 ; genIpush
   0043 21 00 00           1460 	ld	hl,#_SpriteKeys + 0
   0046 E5                 1461 	push	hl
                           1462 ; genIpush
   0047 3E 0C              1463 	ld	a,#0x0C
   0049 F5                 1464 	push	af
   004A 33                 1465 	inc	sp
                           1466 ; genIpush
   004B 3E 00              1467 	ld	a,#0x00
   004D F5                 1468 	push	af
   004E 33                 1469 	inc	sp
                           1470 ; genCall
   004F CD 00 00           1471 	call	_set_sprite_data
   0052 E8 04              1472 	lda	sp,4(sp)
                           1473 ;	main.c 23
                           1474 ; genIpush
   0054 3E 00              1475 	ld	a,#0x00
   0056 F5                 1476 	push	af
   0057 33                 1477 	inc	sp
                           1478 ; genIpush
   0058 3E 00              1479 	ld	a,#0x00
   005A F5                 1480 	push	af
   005B 33                 1481 	inc	sp
                           1482 ; genCall
   005C CD 00 00           1483 	call	_set_sprite_tile
   005F E8 02              1484 	lda	sp,2(sp)
                           1485 ;	main.c 24
                           1486 ; genIpush
   0061 3E 00              1487 	ld	a,#0x00
   0063 F5                 1488 	push	af
   0064 33                 1489 	inc	sp
                           1490 ; genIpush
   0065 3E 01              1491 	ld	a,#0x01
   0067 F5                 1492 	push	af
   0068 33                 1493 	inc	sp
                           1494 ; genCall
   0069 CD 00 00           1495 	call	_set_sprite_tile
   006C E8 02              1496 	lda	sp,2(sp)
                           1497 ;	main.c 25
                           1498 ; genIpush
   006E 3E 00              1499 	ld	a,#0x00
   0070 F5                 1500 	push	af
   0071 33                 1501 	inc	sp
                           1502 ; genIpush
   0072 3E 02              1503 	ld	a,#0x02
   0074 F5                 1504 	push	af
   0075 33                 1505 	inc	sp
                           1506 ; genCall
   0076 CD 00 00           1507 	call	_set_sprite_tile
   0079 E8 02              1508 	lda	sp,2(sp)
                           1509 ;	main.c 26
                           1510 ; genIpush
   007B 3E 0B              1511 	ld	a,#0x0B
   007D F5                 1512 	push	af
   007E 33                 1513 	inc	sp
                           1514 ; genIpush
   007F 3E 06              1515 	ld	a,#0x06
   0081 F5                 1516 	push	af
   0082 33                 1517 	inc	sp
                           1518 ; genCall
   0083 CD 00 00           1519 	call	_set_sprite_tile
   0086 E8 02              1520 	lda	sp,2(sp)
                           1521 ;	main.c 29
                           1522 ; genIpush
   0088 3E 00              1523 	ld	a,#0x00
   008A F5                 1524 	push	af
   008B 33                 1525 	inc	sp
                           1526 ; genIpush
   008C 3E 03              1527 	ld	a,#0x03
   008E F5                 1528 	push	af
   008F 33                 1529 	inc	sp
                           1530 ; genCall
   0090 CD 00 00           1531 	call	_set_sprite_tile
   0093 E8 02              1532 	lda	sp,2(sp)
                           1533 ;	main.c 30
                           1534 ; genIpush
   0095 3E 00              1535 	ld	a,#0x00
   0097 F5                 1536 	push	af
   0098 33                 1537 	inc	sp
                           1538 ; genIpush
   0099 3E 04              1539 	ld	a,#0x04
   009B F5                 1540 	push	af
   009C 33                 1541 	inc	sp
                           1542 ; genCall
   009D CD 00 00           1543 	call	_set_sprite_tile
   00A0 E8 02              1544 	lda	sp,2(sp)
                           1545 ;	main.c 31
                           1546 ; genIpush
   00A2 3E 00              1547 	ld	a,#0x00
   00A4 F5                 1548 	push	af
   00A5 33                 1549 	inc	sp
                           1550 ; genIpush
   00A6 3E 05              1551 	ld	a,#0x05
   00A8 F5                 1552 	push	af
   00A9 33                 1553 	inc	sp
                           1554 ; genCall
   00AA CD 00 00           1555 	call	_set_sprite_tile
   00AD E8 02              1556 	lda	sp,2(sp)
                           1557 ;	main.c 32
                           1558 ; genIpush
   00AF 3E 0A              1559 	ld	a,#0x0A
   00B1 F5                 1560 	push	af
   00B2 33                 1561 	inc	sp
                           1562 ; genIpush
   00B3 3E 07              1563 	ld	a,#0x07
   00B5 F5                 1564 	push	af
   00B6 33                 1565 	inc	sp
                           1566 ; genCall
   00B7 CD 00 00           1567 	call	_set_sprite_tile
   00BA E8 02              1568 	lda	sp,2(sp)
                           1569 ;	main.c 35
                           1570 ; genIpush
   00BC 3E 14              1571 	ld	a,#0x14
   00BE F5                 1572 	push	af
   00BF 33                 1573 	inc	sp
                           1574 ; genIpush
   00C0 3E 0A              1575 	ld	a,#0x0A
   00C2 F5                 1576 	push	af
   00C3 33                 1577 	inc	sp
                           1578 ; genIpush
   00C4 3E 00              1579 	ld	a,#0x00
   00C6 F5                 1580 	push	af
   00C7 33                 1581 	inc	sp
                           1582 ; genCall
   00C8 CD 00 00           1583 	call	_move_sprite
   00CB E8 03              1584 	lda	sp,3(sp)
                           1585 ;	main.c 36
                           1586 ; genIpush
   00CD 3E 14              1587 	ld	a,#0x14
   00CF F5                 1588 	push	af
   00D0 33                 1589 	inc	sp
                           1590 ; genIpush
   00D1 3E 12              1591 	ld	a,#0x12
   00D3 F5                 1592 	push	af
   00D4 33                 1593 	inc	sp
                           1594 ; genIpush
   00D5 3E 01              1595 	ld	a,#0x01
   00D7 F5                 1596 	push	af
   00D8 33                 1597 	inc	sp
                           1598 ; genCall
   00D9 CD 00 00           1599 	call	_move_sprite
   00DC E8 03              1600 	lda	sp,3(sp)
                           1601 ;	main.c 37
                           1602 ; genIpush
   00DE 3E 14              1603 	ld	a,#0x14
   00E0 F5                 1604 	push	af
   00E1 33                 1605 	inc	sp
                           1606 ; genIpush
   00E2 3E 1A              1607 	ld	a,#0x1A
   00E4 F5                 1608 	push	af
   00E5 33                 1609 	inc	sp
                           1610 ; genIpush
   00E6 3E 02              1611 	ld	a,#0x02
   00E8 F5                 1612 	push	af
   00E9 33                 1613 	inc	sp
                           1614 ; genCall
   00EA CD 00 00           1615 	call	_move_sprite
   00ED E8 03              1616 	lda	sp,3(sp)
                           1617 ;	main.c 38
                           1618 ; genIpush
   00EF 3E 14              1619 	ld	a,#0x14
   00F1 F5                 1620 	push	af
   00F2 33                 1621 	inc	sp
                           1622 ; genIpush
   00F3 3E 23              1623 	ld	a,#0x23
   00F5 F5                 1624 	push	af
   00F6 33                 1625 	inc	sp
                           1626 ; genIpush
   00F7 3E 06              1627 	ld	a,#0x06
   00F9 F5                 1628 	push	af
   00FA 33                 1629 	inc	sp
                           1630 ; genCall
   00FB CD 00 00           1631 	call	_move_sprite
   00FE E8 03              1632 	lda	sp,3(sp)
                           1633 ;	main.c 41
                           1634 ; genIpush
   0100 3E 14              1635 	ld	a,#0x14
   0102 F5                 1636 	push	af
   0103 33                 1637 	inc	sp
                           1638 ; genIpush
   0104 3E 8E              1639 	ld	a,#0x8E
   0106 F5                 1640 	push	af
   0107 33                 1641 	inc	sp
                           1642 ; genIpush
   0108 3E 03              1643 	ld	a,#0x03
   010A F5                 1644 	push	af
   010B 33                 1645 	inc	sp
                           1646 ; genCall
   010C CD 00 00           1647 	call	_move_sprite
   010F E8 03              1648 	lda	sp,3(sp)
                           1649 ;	main.c 42
                           1650 ; genIpush
   0111 3E 14              1651 	ld	a,#0x14
   0113 F5                 1652 	push	af
   0114 33                 1653 	inc	sp
                           1654 ; genIpush
   0115 3E 96              1655 	ld	a,#0x96
   0117 F5                 1656 	push	af
   0118 33                 1657 	inc	sp
                           1658 ; genIpush
   0119 3E 04              1659 	ld	a,#0x04
   011B F5                 1660 	push	af
   011C 33                 1661 	inc	sp
                           1662 ; genCall
   011D CD 00 00           1663 	call	_move_sprite
   0120 E8 03              1664 	lda	sp,3(sp)
                           1665 ;	main.c 43
                           1666 ; genIpush
   0122 3E 14              1667 	ld	a,#0x14
   0124 F5                 1668 	push	af
   0125 33                 1669 	inc	sp
                           1670 ; genIpush
   0126 3E 9E              1671 	ld	a,#0x9E
   0128 F5                 1672 	push	af
   0129 33                 1673 	inc	sp
                           1674 ; genIpush
   012A 3E 05              1675 	ld	a,#0x05
   012C F5                 1676 	push	af
   012D 33                 1677 	inc	sp
                           1678 ; genCall
   012E CD 00 00           1679 	call	_move_sprite
   0131 E8 03              1680 	lda	sp,3(sp)
                           1681 ;	main.c 44
                           1682 ; genIpush
   0133 3E 14              1683 	ld	a,#0x14
   0135 F5                 1684 	push	af
   0136 33                 1685 	inc	sp
                           1686 ; genIpush
   0137 3E 85              1687 	ld	a,#0x85
   0139 F5                 1688 	push	af
   013A 33                 1689 	inc	sp
                           1690 ; genIpush
   013B 3E 07              1691 	ld	a,#0x07
   013D F5                 1692 	push	af
   013E 33                 1693 	inc	sp
                           1694 ; genCall
   013F CD 00 00           1695 	call	_move_sprite
   0142 E8 03              1696 	lda	sp,3(sp)
                           1697 ; genLabel
   0144                    1698 00101$:
                           1699 ; genEndFunction
   0144 C1                 1700 	pop	bc
   0145 C9                 1701 	ret
   0146                    1702 ___init_numbers_end:
                           1703 ;	main.c 47
                           1704 ; genLabel
                           1705 ; genFunction
                           1706 ;	---------------------------------
                           1707 ; Function set_souls
                           1708 ; ---------------------------------
   0146                    1709 ___set_souls_start:
   0146                    1710 _set_souls:
   0146 C5                 1711 	push	bc
   0147 E8 FA              1712 	lda sp,-6(sp)
                           1713 ;	main.c 48
                           1714 ; genIpush
   0149 21 64 00           1715 	ld	hl,#0x0064
   014C E5                 1716 	push	hl
                           1717 ; genIpush
                           1718 ; AOP_STK for 
   014D F8 0C              1719 	lda	hl,12(sp)
   014F 2A                 1720 	ld	a,(hl+)
   0150 66                 1721 	ld	h,(hl)
   0151 6F                 1722 	ld	l,a
   0152 E5                 1723 	push	hl
                           1724 ; genCall
   0153 CD 00 00           1725 	call	__divsint
   0156 42                 1726 	ld	b,d
   0157 4B                 1727 	ld	c,e
   0158 E8 04              1728 	lda	sp,4(sp)
                           1729 ; genIpush
   015A 21 0A 00           1730 	ld	hl,#0x000A
   015D E5                 1731 	push	hl
                           1732 ; genIpush
   015E C5                 1733 	push	bc
                           1734 ; genCall
   015F CD 00 00           1735 	call	__modsint
                           1736 ; AOP_STK for _set_souls_hundreds_1_1
   0162 F8 09              1737 	lda	hl,9(sp)
   0164 72                 1738 	ld	(hl),d ; 3
   0165 2B                 1739 	dec	hl
   0166 73                 1740 	ld	(hl),e ; 3
   0167 E8 04              1741 	lda	sp,4(sp)
                           1742 ;	main.c 49
                           1743 ; genIpush
   0169 21 0A 00           1744 	ld	hl,#0x000A
   016C E5                 1745 	push	hl
                           1746 ; genIpush
                           1747 ; AOP_STK for 
   016D F8 0C              1748 	lda	hl,12(sp)
   016F 2A                 1749 	ld	a,(hl+)
   0170 66                 1750 	ld	h,(hl)
   0171 6F                 1751 	ld	l,a
   0172 E5                 1752 	push	hl
                           1753 ; genCall
   0173 CD 00 00           1754 	call	__divsint
   0176 42                 1755 	ld	b,d
   0177 4B                 1756 	ld	c,e
   0178 E8 04              1757 	lda	sp,4(sp)
                           1758 ; genIpush
   017A 21 0A 00           1759 	ld	hl,#0x000A
   017D E5                 1760 	push	hl
                           1761 ; genIpush
   017E C5                 1762 	push	bc
                           1763 ; genCall
   017F CD 00 00           1764 	call	__modsint
                           1765 ; AOP_STK for _set_souls_tens_1_1
   0182 F8 07              1766 	lda	hl,7(sp)
   0184 72                 1767 	ld	(hl),d ; 3
   0185 2B                 1768 	dec	hl
   0186 73                 1769 	ld	(hl),e ; 3
   0187 E8 04              1770 	lda	sp,4(sp)
                           1771 ;	main.c 50
                           1772 ; genIpush
   0189 21 0A 00           1773 	ld	hl,#0x000A
   018C E5                 1774 	push	hl
                           1775 ; genIpush
                           1776 ; AOP_STK for 
   018D F8 0C              1777 	lda	hl,12(sp)
   018F 2A                 1778 	ld	a,(hl+)
   0190 66                 1779 	ld	h,(hl)
   0191 6F                 1780 	ld	l,a
   0192 E5                 1781 	push	hl
                           1782 ; genCall
   0193 CD 00 00           1783 	call	__modsint
                           1784 ; AOP_STK for _set_souls_ones_1_1
   0196 F8 05              1785 	lda	hl,5(sp)
   0198 72                 1786 	ld	(hl),d ; 3
   0199 2B                 1787 	dec	hl
   019A 73                 1788 	ld	(hl),e ; 3
   019B E8 04              1789 	lda	sp,4(sp)
                           1790 ;	main.c 52
                           1791 ; genCast
                           1792 ; AOP_STK for _set_souls_hundreds_1_1
   019D F8 04              1793 	lda	hl,4(sp)
   019F 4E                 1794 	ld	c,(hl)
                           1795 ; genIpush
   01A0 79                 1796 	ld	a,c
   01A1 F5                 1797 	push	af
   01A2 33                 1798 	inc	sp
                           1799 ; genIpush
   01A3 3E 00              1800 	ld	a,#0x00
   01A5 F5                 1801 	push	af
   01A6 33                 1802 	inc	sp
                           1803 ; genCall
   01A7 CD 00 00           1804 	call	_set_sprite_tile
   01AA E8 02              1805 	lda	sp,2(sp)
                           1806 ;	main.c 53
                           1807 ; genCast
                           1808 ; AOP_STK for _set_souls_tens_1_1
   01AC F8 02              1809 	lda	hl,2(sp)
   01AE 4E                 1810 	ld	c,(hl)
                           1811 ; genIpush
   01AF 79                 1812 	ld	a,c
   01B0 F5                 1813 	push	af
   01B1 33                 1814 	inc	sp
                           1815 ; genIpush
   01B2 3E 01              1816 	ld	a,#0x01
   01B4 F5                 1817 	push	af
   01B5 33                 1818 	inc	sp
                           1819 ; genCall
   01B6 CD 00 00           1820 	call	_set_sprite_tile
   01B9 E8 02              1821 	lda	sp,2(sp)
                           1822 ;	main.c 54
                           1823 ; genCast
                           1824 ; AOP_STK for _set_souls_ones_1_1
   01BB F8 00              1825 	lda	hl,0(sp)
   01BD 4E                 1826 	ld	c,(hl)
                           1827 ; genIpush
   01BE 79                 1828 	ld	a,c
   01BF F5                 1829 	push	af
   01C0 33                 1830 	inc	sp
                           1831 ; genIpush
   01C1 3E 02              1832 	ld	a,#0x02
   01C3 F5                 1833 	push	af
   01C4 33                 1834 	inc	sp
                           1835 ; genCall
   01C5 CD 00 00           1836 	call	_set_sprite_tile
   01C8 E8 02              1837 	lda	sp,2(sp)
                           1838 ; genLabel
   01CA                    1839 00101$:
                           1840 ; genEndFunction
   01CA E8 06              1841 	lda	sp,6(sp)
   01CC C1                 1842 	pop bc
   01CD C9                 1843 	ret
   01CE                    1844 ___set_souls_end:
                           1845 ;	main.c 57
                           1846 ; genLabel
                           1847 ; genFunction
                           1848 ;	---------------------------------
                           1849 ; Function set_anger
                           1850 ; ---------------------------------
   01CE                    1851 ___set_anger_start:
   01CE                    1852 _set_anger:
   01CE C5                 1853 	push	bc
   01CF E8 FA              1854 	lda sp,-6(sp)
                           1855 ;	main.c 58
                           1856 ; genIpush
   01D1 21 64 00           1857 	ld	hl,#0x0064
   01D4 E5                 1858 	push	hl
                           1859 ; genIpush
                           1860 ; AOP_STK for 
   01D5 F8 0C              1861 	lda	hl,12(sp)
   01D7 2A                 1862 	ld	a,(hl+)
   01D8 66                 1863 	ld	h,(hl)
   01D9 6F                 1864 	ld	l,a
   01DA E5                 1865 	push	hl
                           1866 ; genCall
   01DB CD 00 00           1867 	call	__divsint
   01DE 42                 1868 	ld	b,d
   01DF 4B                 1869 	ld	c,e
   01E0 E8 04              1870 	lda	sp,4(sp)
                           1871 ; genIpush
   01E2 21 0A 00           1872 	ld	hl,#0x000A
   01E5 E5                 1873 	push	hl
                           1874 ; genIpush
   01E6 C5                 1875 	push	bc
                           1876 ; genCall
   01E7 CD 00 00           1877 	call	__modsint
                           1878 ; AOP_STK for _set_anger_hundreds_1_1
   01EA F8 09              1879 	lda	hl,9(sp)
   01EC 72                 1880 	ld	(hl),d ; 3
   01ED 2B                 1881 	dec	hl
   01EE 73                 1882 	ld	(hl),e ; 3
   01EF E8 04              1883 	lda	sp,4(sp)
                           1884 ;	main.c 59
                           1885 ; genIpush
   01F1 21 0A 00           1886 	ld	hl,#0x000A
   01F4 E5                 1887 	push	hl
                           1888 ; genIpush
                           1889 ; AOP_STK for 
   01F5 F8 0C              1890 	lda	hl,12(sp)
   01F7 2A                 1891 	ld	a,(hl+)
   01F8 66                 1892 	ld	h,(hl)
   01F9 6F                 1893 	ld	l,a
   01FA E5                 1894 	push	hl
                           1895 ; genCall
   01FB CD 00 00           1896 	call	__divsint
   01FE 42                 1897 	ld	b,d
   01FF 4B                 1898 	ld	c,e
   0200 E8 04              1899 	lda	sp,4(sp)
                           1900 ; genIpush
   0202 21 0A 00           1901 	ld	hl,#0x000A
   0205 E5                 1902 	push	hl
                           1903 ; genIpush
   0206 C5                 1904 	push	bc
                           1905 ; genCall
   0207 CD 00 00           1906 	call	__modsint
                           1907 ; AOP_STK for _set_anger_tens_1_1
   020A F8 07              1908 	lda	hl,7(sp)
   020C 72                 1909 	ld	(hl),d ; 3
   020D 2B                 1910 	dec	hl
   020E 73                 1911 	ld	(hl),e ; 3
   020F E8 04              1912 	lda	sp,4(sp)
                           1913 ;	main.c 60
                           1914 ; genIpush
   0211 21 0A 00           1915 	ld	hl,#0x000A
   0214 E5                 1916 	push	hl
                           1917 ; genIpush
                           1918 ; AOP_STK for 
   0215 F8 0C              1919 	lda	hl,12(sp)
   0217 2A                 1920 	ld	a,(hl+)
   0218 66                 1921 	ld	h,(hl)
   0219 6F                 1922 	ld	l,a
   021A E5                 1923 	push	hl
                           1924 ; genCall
   021B CD 00 00           1925 	call	__modsint
                           1926 ; AOP_STK for _set_anger_ones_1_1
   021E F8 05              1927 	lda	hl,5(sp)
   0220 72                 1928 	ld	(hl),d ; 3
   0221 2B                 1929 	dec	hl
   0222 73                 1930 	ld	(hl),e ; 3
   0223 E8 04              1931 	lda	sp,4(sp)
                           1932 ;	main.c 62
                           1933 ; genCast
                           1934 ; AOP_STK for _set_anger_hundreds_1_1
   0225 F8 04              1935 	lda	hl,4(sp)
   0227 4E                 1936 	ld	c,(hl)
                           1937 ; genIpush
   0228 79                 1938 	ld	a,c
   0229 F5                 1939 	push	af
   022A 33                 1940 	inc	sp
                           1941 ; genIpush
   022B 3E 03              1942 	ld	a,#0x03
   022D F5                 1943 	push	af
   022E 33                 1944 	inc	sp
                           1945 ; genCall
   022F CD 00 00           1946 	call	_set_sprite_tile
   0232 E8 02              1947 	lda	sp,2(sp)
                           1948 ;	main.c 63
                           1949 ; genCast
                           1950 ; AOP_STK for _set_anger_tens_1_1
   0234 F8 02              1951 	lda	hl,2(sp)
   0236 4E                 1952 	ld	c,(hl)
                           1953 ; genIpush
   0237 79                 1954 	ld	a,c
   0238 F5                 1955 	push	af
   0239 33                 1956 	inc	sp
                           1957 ; genIpush
   023A 3E 04              1958 	ld	a,#0x04
   023C F5                 1959 	push	af
   023D 33                 1960 	inc	sp
                           1961 ; genCall
   023E CD 00 00           1962 	call	_set_sprite_tile
   0241 E8 02              1963 	lda	sp,2(sp)
                           1964 ;	main.c 64
                           1965 ; genCast
                           1966 ; AOP_STK for _set_anger_ones_1_1
   0243 F8 00              1967 	lda	hl,0(sp)
   0245 4E                 1968 	ld	c,(hl)
                           1969 ; genIpush
   0246 79                 1970 	ld	a,c
   0247 F5                 1971 	push	af
   0248 33                 1972 	inc	sp
                           1973 ; genIpush
   0249 3E 05              1974 	ld	a,#0x05
   024B F5                 1975 	push	af
   024C 33                 1976 	inc	sp
                           1977 ; genCall
   024D CD 00 00           1978 	call	_set_sprite_tile
   0250 E8 02              1979 	lda	sp,2(sp)
                           1980 ; genLabel
   0252                    1981 00101$:
                           1982 ; genEndFunction
   0252 E8 06              1983 	lda	sp,6(sp)
   0254 C1                 1984 	pop bc
   0255 C9                 1985 	ret
   0256                    1986 ___set_anger_end:
                           1987 ;	main.c 68
                           1988 ; genLabel
                           1989 ; genFunction
                           1990 ;	---------------------------------
                           1991 ; Function main
                           1992 ; ---------------------------------
   0256                    1993 ___main_start:
   0256                    1994 _main:
   0256 C5                 1995 	push	bc
   0257 E8 FE              1996 	lda sp,-2(sp)
                           1997 ;	main.c 69
                           1998 ; genAssign
                           1999 ; AOP_STK for _main_souls_1_1
   0259 F8 00              2000 	lda	hl,0(sp)
   025B 36 00              2001 	ld	(hl),#0x00 ; 3
   025D 23                 2002 	inc	hl
   025E 36 00              2003 	ld	(hl),#0x00 ; 3
                           2004 ;	main.c 70
                           2005 ; genAssign
   0260 01 32 00           2006 	ld	bc,#0x0032
                           2007 ;	main.c 72
                           2008 ; genIpush
   0263 21 52 03           2009 	ld	hl,#_temp_splash_data + 0
   0266 E5                 2010 	push	hl
                           2011 ; genIpush
   0267 3E 67              2012 	ld	a,#0x67
   0269 F5                 2013 	push	af
   026A 33                 2014 	inc	sp
                           2015 ; genIpush
   026B 3E 00              2016 	ld	a,#0x00
   026D F5                 2017 	push	af
   026E 33                 2018 	inc	sp
                           2019 ; genCall
   026F CD 00 00           2020 	call	_set_bkg_data
   0272 E8 04              2021 	lda	sp,4(sp)
                           2022 ;	main.c 73
                           2023 ; genIpush
   0274 21 C2 09           2024 	ld	hl,#_temp_splash_map + 0
   0277 E5                 2025 	push	hl
                           2026 ; genIpush
   0278 3E 12              2027 	ld	a,#0x12
   027A F5                 2028 	push	af
   027B 33                 2029 	inc	sp
                           2030 ; genIpush
   027C 3E 14              2031 	ld	a,#0x14
   027E F5                 2032 	push	af
   027F 33                 2033 	inc	sp
                           2034 ; genIpush
   0280 3E 00              2035 	ld	a,#0x00
   0282 F5                 2036 	push	af
   0283 33                 2037 	inc	sp
                           2038 ; genIpush
   0284 3E 00              2039 	ld	a,#0x00
   0286 F5                 2040 	push	af
   0287 33                 2041 	inc	sp
                           2042 ; genCall
   0288 CD 00 00           2043 	call	_set_bkg_tiles
   028B E8 06              2044 	lda	sp,6(sp)
                           2045 ;	main.c 75
                           2046 ; genOr
                           2047 ; AOP_SFR for _LCDC_REG
                           2048 ; Type res[4] = l[4]&r[1]
                           2049 ; Size res[1] = l[1]&r[1]
   028D F0 00              2050 	ldh	a,(_LCDC_REG+0) ; x
   028F F6 01              2051 	or	a,#0x01
   0291 E0 00              2052 	ldh	(_LCDC_REG+0),a
                           2053 ;	main.c 76
                           2054 ; genOr
                           2055 ; AOP_SFR for _LCDC_REG
                           2056 ; Type res[4] = l[4]&r[1]
                           2057 ; Size res[1] = l[1]&r[1]
   0293 F0 00              2058 	ldh	a,(_LCDC_REG+0) ; x
   0295 F6 80              2059 	or	a,#0x80
   0297 E0 00              2060 	ldh	(_LCDC_REG+0),a
                           2061 ;	main.c 78
                           2062 ; genIpush
   0299 3E 80              2063 	ld	a,#0x80
   029B F5                 2064 	push	af
   029C 33                 2065 	inc	sp
                           2066 ; genCall
   029D CD 00 00           2067 	call	_waitpad
   02A0 E8 01              2068 	lda	sp,1(sp)
                           2069 ;	main.c 80
                           2070 ; genIpush
   02A2 21 2A 0B           2071 	ld	hl,#_credits_data + 0
   02A5 E5                 2072 	push	hl
                           2073 ; genIpush
   02A6 3E 7C              2074 	ld	a,#0x7C
   02A8 F5                 2075 	push	af
   02A9 33                 2076 	inc	sp
                           2077 ; genIpush
   02AA 3E 00              2078 	ld	a,#0x00
   02AC F5                 2079 	push	af
   02AD 33                 2080 	inc	sp
                           2081 ; genCall
   02AE CD 00 00           2082 	call	_set_bkg_data
   02B1 E8 04              2083 	lda	sp,4(sp)
                           2084 ;	main.c 81
                           2085 ; genIpush
   02B3 21 EA 12           2086 	ld	hl,#_credits_map + 0
   02B6 E5                 2087 	push	hl
                           2088 ; genIpush
   02B7 3E 12              2089 	ld	a,#0x12
   02B9 F5                 2090 	push	af
   02BA 33                 2091 	inc	sp
                           2092 ; genIpush
   02BB 3E 14              2093 	ld	a,#0x14
   02BD F5                 2094 	push	af
   02BE 33                 2095 	inc	sp
                           2096 ; genIpush
   02BF 3E 00              2097 	ld	a,#0x00
   02C1 F5                 2098 	push	af
   02C2 33                 2099 	inc	sp
                           2100 ; genIpush
   02C3 3E 00              2101 	ld	a,#0x00
   02C5 F5                 2102 	push	af
   02C6 33                 2103 	inc	sp
                           2104 ; genCall
   02C7 CD 00 00           2105 	call	_set_bkg_tiles
   02CA E8 06              2106 	lda	sp,6(sp)
                           2107 ;	main.c 83
                           2108 ; genOr
                           2109 ; AOP_SFR for _LCDC_REG
                           2110 ; Type res[4] = l[4]&r[1]
                           2111 ; Size res[1] = l[1]&r[1]
   02CC F0 00              2112 	ldh	a,(_LCDC_REG+0) ; x
   02CE F6 01              2113 	or	a,#0x01
   02D0 E0 00              2114 	ldh	(_LCDC_REG+0),a
                           2115 ;	main.c 84
                           2116 ; genOr
                           2117 ; AOP_SFR for _LCDC_REG
                           2118 ; Type res[4] = l[4]&r[1]
                           2119 ; Size res[1] = l[1]&r[1]
   02D2 F0 00              2120 	ldh	a,(_LCDC_REG+0) ; x
   02D4 F6 80              2121 	or	a,#0x80
   02D6 E0 00              2122 	ldh	(_LCDC_REG+0),a
                           2123 ;	main.c 86
                           2124 ; genIpush
   02D8 3E EE              2125 	ld	a,#0xEE
   02DA F5                 2126 	push	af
   02DB 33                 2127 	inc	sp
                           2128 ; genCall
   02DC CD 00 00           2129 	call	_performant_delay
   02DF E8 01              2130 	lda	sp,1(sp)
                           2131 ;	main.c 88
                           2132 ; genIpush
   02E1 21 52 14           2133 	ld	hl,#_how_to_data + 0
   02E4 E5                 2134 	push	hl
                           2135 ; genIpush
   02E5 3E 93              2136 	ld	a,#0x93
   02E7 F5                 2137 	push	af
   02E8 33                 2138 	inc	sp
                           2139 ; genIpush
   02E9 3E 00              2140 	ld	a,#0x00
   02EB F5                 2141 	push	af
   02EC 33                 2142 	inc	sp
                           2143 ; genCall
   02ED CD 00 00           2144 	call	_set_bkg_data
   02F0 E8 04              2145 	lda	sp,4(sp)
                           2146 ;	main.c 89
                           2147 ; genIpush
   02F2 21 82 1D           2148 	ld	hl,#_how_to_map + 0
   02F5 E5                 2149 	push	hl
                           2150 ; genIpush
   02F6 3E 12              2151 	ld	a,#0x12
   02F8 F5                 2152 	push	af
   02F9 33                 2153 	inc	sp
                           2154 ; genIpush
   02FA 3E 14              2155 	ld	a,#0x14
   02FC F5                 2156 	push	af
   02FD 33                 2157 	inc	sp
                           2158 ; genIpush
   02FE 3E 00              2159 	ld	a,#0x00
   0300 F5                 2160 	push	af
   0301 33                 2161 	inc	sp
                           2162 ; genIpush
   0302 3E 00              2163 	ld	a,#0x00
   0304 F5                 2164 	push	af
   0305 33                 2165 	inc	sp
                           2166 ; genCall
   0306 CD 00 00           2167 	call	_set_bkg_tiles
   0309 E8 06              2168 	lda	sp,6(sp)
                           2169 ;	main.c 91
                           2170 ; genOr
                           2171 ; AOP_SFR for _LCDC_REG
                           2172 ; Type res[4] = l[4]&r[1]
                           2173 ; Size res[1] = l[1]&r[1]
   030B F0 00              2174 	ldh	a,(_LCDC_REG+0) ; x
   030D F6 01              2175 	or	a,#0x01
   030F E0 00              2176 	ldh	(_LCDC_REG+0),a
                           2177 ;	main.c 92
                           2178 ; genOr
                           2179 ; AOP_SFR for _LCDC_REG
                           2180 ; Type res[4] = l[4]&r[1]
                           2181 ; Size res[1] = l[1]&r[1]
   0311 F0 00              2182 	ldh	a,(_LCDC_REG+0) ; x
   0313 F6 80              2183 	or	a,#0x80
   0315 E0 00              2184 	ldh	(_LCDC_REG+0),a
                           2185 ;	main.c 94
                           2186 ; genIpush
   0317 3E EE              2187 	ld	a,#0xEE
   0319 F5                 2188 	push	af
   031A 33                 2189 	inc	sp
                           2190 ; genCall
   031B CD 00 00           2191 	call	_performant_delay
   031E E8 01              2192 	lda	sp,1(sp)
                           2193 ;	main.c 96
                           2194 ; genCall
   0320 CD 42 00           2195 	call	_init_numbers
                           2196 ;	main.c 97
                           2197 ; genOr
                           2198 ; AOP_SFR for _LCDC_REG
                           2199 ; Type res[4] = l[4]&r[1]
                           2200 ; Size res[1] = l[1]&r[1]
   0323 F0 00              2201 	ldh	a,(_LCDC_REG+0) ; x
   0325 F6 02              2202 	or	a,#0x02
   0327 E0 00              2203 	ldh	(_LCDC_REG+0),a
                           2204 ;	main.c 99
                           2205 ; genLabel
   0329                    2206 00102$:
                           2207 ;	main.c 101
                           2208 ; genIpush
                           2209 ; AOP_STK for _main_souls_1_1
   0329 F8 00              2210 	lda	hl,0(sp)
   032B 2A                 2211 	ld	a,(hl+)
   032C 66                 2212 	ld	h,(hl)
   032D 6F                 2213 	ld	l,a
   032E E5                 2214 	push	hl
                           2215 ; genCall
   032F CD 46 01           2216 	call	_set_souls
   0332 E8 02              2217 	lda	sp,2(sp)
                           2218 ;	main.c 102
                           2219 ; genIpush
   0334 C5                 2220 	push	bc
                           2221 ; genCall
   0335 CD CE 01           2222 	call	_set_anger
   0338 E8 02              2223 	lda	sp,2(sp)
                           2224 ;	main.c 104
                           2225 ; genPlus
                           2226 ; AOP_STK for _main_souls_1_1
                           2227 ; genPlusIncr
   033A F8 00              2228 	lda	hl,0(sp)
   033C 34                 2229 	inc	(hl)
   033D 20 02              2230 	jr	nz,00107$
   033F 23                 2231 	inc	hl
   0340 34                 2232 	inc	(hl)
   0341                    2233 00107$:
                           2234 ;	main.c 105
                           2235 ; genPlus
                           2236 ; genPlusIncr
   0341 03                 2237 	inc	bc
                           2238 ;	main.c 107
                           2239 ; genIpush
   0342 3E 0A              2240 	ld	a,#0x0A
   0344 F5                 2241 	push	af
   0345 33                 2242 	inc	sp
                           2243 ; genCall
   0346 CD 00 00           2244 	call	_performant_delay
   0349 E8 01              2245 	lda	sp,1(sp)
                           2246 ; genGoto
   034B C3 29 03           2247 	jp	00102$
                           2248 ; genLabel
   034E                    2249 00104$:
                           2250 ; genEndFunction
   034E E8 02              2251 	lda	sp,2(sp)
   0350 C1                 2252 	pop bc
   0351 C9                 2253 	ret
   0352                    2254 ___main_end:
                           2255 	.area _CODE
   0352                    2256 _temp_splash_data:
   0352 00                 2257 	.db #0x00
   0353 00                 2258 	.db #0x00
   0354 00                 2259 	.db #0x00
   0355 00                 2260 	.db #0x00
   0356 00                 2261 	.db #0x00
   0357 00                 2262 	.db #0x00
   0358 00                 2263 	.db #0x00
   0359 00                 2264 	.db #0x00
   035A 00                 2265 	.db #0x00
   035B 00                 2266 	.db #0x00
   035C 00                 2267 	.db #0x00
   035D 00                 2268 	.db #0x00
   035E 00                 2269 	.db #0x00
   035F 00                 2270 	.db #0x00
   0360 00                 2271 	.db #0x00
   0361 00                 2272 	.db #0x00
   0362 00                 2273 	.db #0x00
   0363 00                 2274 	.db #0x00
   0364 00                 2275 	.db #0x00
   0365 00                 2276 	.db #0x00
   0366 00                 2277 	.db #0x00
   0367 00                 2278 	.db #0x00
   0368 7F                 2279 	.db #0x7F
   0369 3F                 2280 	.db #0x3F
   036A 7F                 2281 	.db #0x7F
   036B 3F                 2282 	.db #0x3F
   036C 1E                 2283 	.db #0x1E
   036D 0E                 2284 	.db #0x0E
   036E 1E                 2285 	.db #0x1E
   036F 0E                 2286 	.db #0x0E
   0370 1E                 2287 	.db #0x1E
   0371 0E                 2288 	.db #0x0E
   0372 00                 2289 	.db #0x00
   0373 00                 2290 	.db #0x00
   0374 00                 2291 	.db #0x00
   0375 00                 2292 	.db #0x00
   0376 00                 2293 	.db #0x00
   0377 00                 2294 	.db #0x00
   0378 B0                 2295 	.db #0xB0
   0379 C0                 2296 	.db #0xC0
   037A FC                 2297 	.db #0xFC
   037B F8                 2298 	.db #0xF8
   037C 3E                 2299 	.db #0x3E
   037D 1C                 2300 	.db #0x1C
   037E 1E                 2301 	.db #0x1E
   037F 0E                 2302 	.db #0x0E
   0380 0F                 2303 	.db #0x0F
   0381 0E                 2304 	.db #0x0E
   0382 00                 2305 	.db #0x00
   0383 00                 2306 	.db #0x00
   0384 00                 2307 	.db #0x00
   0385 00                 2308 	.db #0x00
   0386 00                 2309 	.db #0x00
   0387 00                 2310 	.db #0x00
   0388 00                 2311 	.db #0x00
   0389 00                 2312 	.db #0x00
   038A 00                 2313 	.db #0x00
   038B 00                 2314 	.db #0x00
   038C 00                 2315 	.db #0x00
   038D 00                 2316 	.db #0x00
   038E 00                 2317 	.db #0x00
   038F 00                 2318 	.db #0x00
   0390 0C                 2319 	.db #0x0C
   0391 03                 2320 	.db #0x03
   0392 00                 2321 	.db #0x00
   0393 00                 2322 	.db #0x00
   0394 00                 2323 	.db #0x00
   0395 00                 2324 	.db #0x00
   0396 00                 2325 	.db #0x00
   0397 00                 2326 	.db #0x00
   0398 00                 2327 	.db #0x00
   0399 00                 2328 	.db #0x00
   039A 00                 2329 	.db #0x00
   039B 00                 2330 	.db #0x00
   039C 00                 2331 	.db #0x00
   039D 00                 2332 	.db #0x00
   039E 00                 2333 	.db #0x00
   039F 00                 2334 	.db #0x00
   03A0 81                 2335 	.db #0x81
   03A1 00                 2336 	.db #0x00
   03A2 00                 2337 	.db #0x00
   03A3 00                 2338 	.db #0x00
   03A4 00                 2339 	.db #0x00
   03A5 00                 2340 	.db #0x00
   03A6 00                 2341 	.db #0x00
   03A7 00                 2342 	.db #0x00
   03A8 00                 2343 	.db #0x00
   03A9 00                 2344 	.db #0x00
   03AA 00                 2345 	.db #0x00
   03AB 00                 2346 	.db #0x00
   03AC 00                 2347 	.db #0x00
   03AD 00                 2348 	.db #0x00
   03AE 00                 2349 	.db #0x00
   03AF 00                 2350 	.db #0x00
   03B0 50                 2351 	.db #0x50
   03B1 E0                 2352 	.db #0xE0
   03B2 00                 2353 	.db #0x00
   03B3 00                 2354 	.db #0x00
   03B4 00                 2355 	.db #0x00
   03B5 00                 2356 	.db #0x00
   03B6 00                 2357 	.db #0x00
   03B7 00                 2358 	.db #0x00
   03B8 78                 2359 	.db #0x78
   03B9 78                 2360 	.db #0x78
   03BA 78                 2361 	.db #0x78
   03BB 78                 2362 	.db #0x78
   03BC 38                 2363 	.db #0x38
   03BD 18                 2364 	.db #0x18
   03BE 38                 2365 	.db #0x38
   03BF 18                 2366 	.db #0x18
   03C0 38                 2367 	.db #0x38
   03C1 18                 2368 	.db #0x18
   03C2 00                 2369 	.db #0x00
   03C3 00                 2370 	.db #0x00
   03C4 00                 2371 	.db #0x00
   03C5 00                 2372 	.db #0x00
   03C6 00                 2373 	.db #0x00
   03C7 00                 2374 	.db #0x00
   03C8 00                 2375 	.db #0x00
   03C9 00                 2376 	.db #0x00
   03CA 00                 2377 	.db #0x00
   03CB 00                 2378 	.db #0x00
   03CC 00                 2379 	.db #0x00
   03CD 00                 2380 	.db #0x00
   03CE 00                 2381 	.db #0x00
   03CF 00                 2382 	.db #0x00
   03D0 0F                 2383 	.db #0x0F
   03D1 0F                 2384 	.db #0x0F
   03D2 00                 2385 	.db #0x00
   03D3 00                 2386 	.db #0x00
   03D4 00                 2387 	.db #0x00
   03D5 00                 2388 	.db #0x00
   03D6 00                 2389 	.db #0x00
   03D7 00                 2390 	.db #0x00
   03D8 00                 2391 	.db #0x00
   03D9 00                 2392 	.db #0x00
   03DA 00                 2393 	.db #0x00
   03DB 00                 2394 	.db #0x00
   03DC 00                 2395 	.db #0x00
   03DD 00                 2396 	.db #0x00
   03DE 00                 2397 	.db #0x00
   03DF 00                 2398 	.db #0x00
   03E0 88                 2399 	.db #0x88
   03E1 9C                 2400 	.db #0x9C
   03E2 00                 2401 	.db #0x00
   03E3 00                 2402 	.db #0x00
   03E4 00                 2403 	.db #0x00
   03E5 00                 2404 	.db #0x00
   03E6 00                 2405 	.db #0x00
   03E7 00                 2406 	.db #0x00
   03E8 00                 2407 	.db #0x00
   03E9 01                 2408 	.db #0x01
   03EA 03                 2409 	.db #0x03
   03EB 01                 2410 	.db #0x01
   03EC 00                 2411 	.db #0x00
   03ED 01                 2412 	.db #0x01
   03EE 00                 2413 	.db #0x00
   03EF 00                 2414 	.db #0x00
   03F0 F7                 2415 	.db #0xF7
   03F1 F7                 2416 	.db #0xF7
   03F2 00                 2417 	.db #0x00
   03F3 00                 2418 	.db #0x00
   03F4 00                 2419 	.db #0x00
   03F5 00                 2420 	.db #0x00
   03F6 00                 2421 	.db #0x00
   03F7 00                 2422 	.db #0x00
   03F8 81                 2423 	.db #0x81
   03F9 00                 2424 	.db #0x00
   03FA 81                 2425 	.db #0x81
   03FB 82                 2426 	.db #0x82
   03FC 87                 2427 	.db #0x87
   03FD 06                 2428 	.db #0x06
   03FE 07                 2429 	.db #0x07
   03FF 06                 2430 	.db #0x06
   0400 9F                 2431 	.db #0x9F
   0401 8F                 2432 	.db #0x8F
   0402 00                 2433 	.db #0x00
   0403 00                 2434 	.db #0x00
   0404 00                 2435 	.db #0x00
   0405 00                 2436 	.db #0x00
   0406 00                 2437 	.db #0x00
   0407 00                 2438 	.db #0x00
   0408 3E                 2439 	.db #0x3E
   0409 1E                 2440 	.db #0x1E
   040A 3E                 2441 	.db #0x3E
   040B 1E                 2442 	.db #0x1E
   040C 06                 2443 	.db #0x06
   040D 0E                 2444 	.db #0x0E
   040E 06                 2445 	.db #0x06
   040F 0E                 2446 	.db #0x0E
   0410 87                 2447 	.db #0x87
   0411 8E                 2448 	.db #0x8E
   0412 00                 2449 	.db #0x00
   0413 00                 2450 	.db #0x00
   0414 00                 2451 	.db #0x00
   0415 00                 2452 	.db #0x00
   0416 00                 2453 	.db #0x00
   0417 00                 2454 	.db #0x00
   0418 00                 2455 	.db #0x00
   0419 00                 2456 	.db #0x00
   041A 00                 2457 	.db #0x00
   041B 00                 2458 	.db #0x00
   041C 00                 2459 	.db #0x00
   041D 00                 2460 	.db #0x00
   041E 00                 2461 	.db #0x00
   041F 00                 2462 	.db #0x00
   0420 80                 2463 	.db #0x80
   0421 60                 2464 	.db #0x60
   0422 1E                 2465 	.db #0x1E
   0423 0E                 2466 	.db #0x0E
   0424 1E                 2467 	.db #0x1E
   0425 0E                 2468 	.db #0x0E
   0426 1E                 2469 	.db #0x1E
   0427 0E                 2470 	.db #0x0E
   0428 1E                 2471 	.db #0x1E
   0429 0E                 2472 	.db #0x0E
   042A 1E                 2473 	.db #0x1E
   042B 0E                 2474 	.db #0x0E
   042C 1E                 2475 	.db #0x1E
   042D 0E                 2476 	.db #0x0E
   042E 1E                 2477 	.db #0x1E
   042F 0E                 2478 	.db #0x0E
   0430 7F                 2479 	.db #0x7F
   0431 3F                 2480 	.db #0x3F
   0432 0E                 2481 	.db #0x0E
   0433 07                 2482 	.db #0x07
   0434 0F                 2483 	.db #0x0F
   0435 07                 2484 	.db #0x07
   0436 0F                 2485 	.db #0x0F
   0437 07                 2486 	.db #0x07
   0438 0E                 2487 	.db #0x0E
   0439 07                 2488 	.db #0x07
   043A 0F                 2489 	.db #0x0F
   043B 0E                 2490 	.db #0x0E
   043C 1E                 2491 	.db #0x1E
   043D 0E                 2492 	.db #0x0E
   043E 3E                 2493 	.db #0x3E
   043F 1C                 2494 	.db #0x1C
   0440 FC                 2495 	.db #0xFC
   0441 F8                 2496 	.db #0xF8
   0442 1F                 2497 	.db #0x1F
   0443 0F                 2498 	.db #0x0F
   0444 3C                 2499 	.db #0x3C
   0445 18                 2500 	.db #0x18
   0446 10                 2501 	.db #0x10
   0447 38                 2502 	.db #0x38
   0448 3F                 2503 	.db #0x3F
   0449 3F                 2504 	.db #0x3F
   044A 3F                 2505 	.db #0x3F
   044B 3F                 2506 	.db #0x3F
   044C 30                 2507 	.db #0x30
   044D 38                 2508 	.db #0x38
   044E 3C                 2509 	.db #0x3C
   044F 18                 2510 	.db #0x18
   0450 0F                 2511 	.db #0x0F
   0451 1F                 2512 	.db #0x1F
   0452 C7                 2513 	.db #0xC7
   0453 C3                 2514 	.db #0xC3
   0454 45                 2515 	.db #0x45
   0455 E2                 2516 	.db #0xE2
   0456 70                 2517 	.db #0x70
   0457 60                 2518 	.db #0x60
   0458 F3                 2519 	.db #0xF3
   0459 E0                 2520 	.db #0xE0
   045A F7                 2521 	.db #0xF7
   045B E3                 2522 	.db #0xE3
   045C 06                 2523 	.db #0x06
   045D 07                 2524 	.db #0x07
   045E A6                 2525 	.db #0xA6
   045F 47                 2526 	.db #0x47
   0460 C7                 2527 	.db #0xC7
   0461 E3                 2528 	.db #0xE3
   0462 F8                 2529 	.db #0xF8
   0463 F8                 2530 	.db #0xF8
   0464 3C                 2531 	.db #0x3C
   0465 18                 2532 	.db #0x18
   0466 1C                 2533 	.db #0x1C
   0467 18                 2534 	.db #0x18
   0468 38                 2535 	.db #0x38
   0469 DC                 2536 	.db #0xDC
   046A F8                 2537 	.db #0xF8
   046B FC                 2538 	.db #0xFC
   046C 38                 2539 	.db #0x38
   046D 1C                 2540 	.db #0x1C
   046E 38                 2541 	.db #0x38
   046F 1C                 2542 	.db #0x1C
   0470 DE                 2543 	.db #0xDE
   0471 FE                 2544 	.db #0xFE
   0472 38                 2545 	.db #0x38
   0473 18                 2546 	.db #0x18
   0474 38                 2547 	.db #0x38
   0475 18                 2548 	.db #0x18
   0476 38                 2549 	.db #0x38
   0477 18                 2550 	.db #0x18
   0478 38                 2551 	.db #0x38
   0479 18                 2552 	.db #0x18
   047A 38                 2553 	.db #0x38
   047B 18                 2554 	.db #0x18
   047C 38                 2555 	.db #0x38
   047D 18                 2556 	.db #0x18
   047E 38                 2557 	.db #0x38
   047F 18                 2558 	.db #0x18
   0480 7E                 2559 	.db #0x7E
   0481 7C                 2560 	.db #0x7C
   0482 0F                 2561 	.db #0x0F
   0483 0F                 2562 	.db #0x0F
   0484 07                 2563 	.db #0x07
   0485 03                 2564 	.db #0x03
   0486 03                 2565 	.db #0x03
   0487 03                 2566 	.db #0x03
   0488 01                 2567 	.db #0x01
   0489 03                 2568 	.db #0x03
   048A 03                 2569 	.db #0x03
   048B 01                 2570 	.db #0x01
   048C 01                 2571 	.db #0x01
   048D 01                 2572 	.db #0x01
   048E 01                 2573 	.db #0x01
   048F 01                 2574 	.db #0x01
   0490 01                 2575 	.db #0x01
   0491 00                 2576 	.db #0x00
   0492 9C                 2577 	.db #0x9C
   0493 9C                 2578 	.db #0x9C
   0494 3E                 2579 	.db #0x3E
   0495 1C                 2580 	.db #0x1C
   0496 9E                 2581 	.db #0x9E
   0497 3C                 2582 	.db #0x3C
   0498 BE                 2583 	.db #0xBE
   0499 36                 2584 	.db #0x36
   049A FF                 2585 	.db #0xFF
   049B A6                 2586 	.db #0xA6
   049C F7                 2587 	.db #0xF7
   049D E7                 2588 	.db #0xE7
   049E E7                 2589 	.db #0xE7
   049F E3                 2590 	.db #0xE3
   04A0 E7                 2591 	.db #0xE7
   04A1 C3                 2592 	.db #0xC3
   04A2 F7                 2593 	.db #0xF7
   04A3 F7                 2594 	.db #0xF7
   04A4 43                 2595 	.db #0x43
   04A5 61                 2596 	.db #0x61
   04A6 E3                 2597 	.db #0xE3
   04A7 41                 2598 	.db #0x41
   04A8 43                 2599 	.db #0x43
   04A9 C1                 2600 	.db #0xC1
   04AA 83                 2601 	.db #0x83
   04AB C1                 2602 	.db #0xC1
   04AC C3                 2603 	.db #0xC3
   04AD 81                 2604 	.db #0x81
   04AE 83                 2605 	.db #0x83
   04AF 81                 2606 	.db #0x81
   04B0 87                 2607 	.db #0x87
   04B1 87                 2608 	.db #0x87
   04B2 9F                 2609 	.db #0x9F
   04B3 8F                 2610 	.db #0x8F
   04B4 87                 2611 	.db #0x87
   04B5 86                 2612 	.db #0x86
   04B6 87                 2613 	.db #0x87
   04B7 86                 2614 	.db #0x86
   04B8 87                 2615 	.db #0x87
   04B9 86                 2616 	.db #0x86
   04BA 87                 2617 	.db #0x87
   04BB 86                 2618 	.db #0x86
   04BC 87                 2619 	.db #0x87
   04BD 86                 2620 	.db #0x86
   04BE 87                 2621 	.db #0x87
   04BF 86                 2622 	.db #0x86
   04C0 E7                 2623 	.db #0xE7
   04C1 C7                 2624 	.db #0xC7
   04C2 87                 2625 	.db #0x87
   04C3 8F                 2626 	.db #0x8F
   04C4 07                 2627 	.db #0x07
   04C5 0E                 2628 	.db #0x0E
   04C6 06                 2629 	.db #0x06
   04C7 0E                 2630 	.db #0x0E
   04C8 06                 2631 	.db #0x06
   04C9 0E                 2632 	.db #0x0E
   04CA 06                 2633 	.db #0x06
   04CB 0E                 2634 	.db #0x0E
   04CC 06                 2635 	.db #0x06
   04CD 0E                 2636 	.db #0x0E
   04CE 06                 2637 	.db #0x06
   04CF 0E                 2638 	.db #0x0E
   04D0 BF                 2639 	.db #0xBF
   04D1 9F                 2640 	.db #0x9F
   04D2 F0                 2641 	.db #0xF0
   04D3 F0                 2642 	.db #0xF0
   04D4 78                 2643 	.db #0x78
   04D5 30                 2644 	.db #0x30
   04D6 38                 2645 	.db #0x38
   04D7 30                 2646 	.db #0x30
   04D8 38                 2647 	.db #0x38
   04D9 30                 2648 	.db #0x30
   04DA 38                 2649 	.db #0x38
   04DB 30                 2650 	.db #0x30
   04DC 38                 2651 	.db #0x38
   04DD 30                 2652 	.db #0x30
   04DE 38                 2653 	.db #0x38
   04DF 30                 2654 	.db #0x30
   04E0 3C                 2655 	.db #0x3C
   04E1 3C                 2656 	.db #0x3C
   04E2 7F                 2657 	.db #0x7F
   04E3 3F                 2658 	.db #0x3F
   04E4 00                 2659 	.db #0x00
   04E5 00                 2660 	.db #0x00
   04E6 00                 2661 	.db #0x00
   04E7 00                 2662 	.db #0x00
   04E8 00                 2663 	.db #0x00
   04E9 00                 2664 	.db #0x00
   04EA 00                 2665 	.db #0x00
   04EB 00                 2666 	.db #0x00
   04EC 00                 2667 	.db #0x00
   04ED 00                 2668 	.db #0x00
   04EE 00                 2669 	.db #0x00
   04EF 00                 2670 	.db #0x00
   04F0 00                 2671 	.db #0x00
   04F1 00                 2672 	.db #0x00
   04F2 90                 2673 	.db #0x90
   04F3 E0                 2674 	.db #0xE0
   04F4 00                 2675 	.db #0x00
   04F5 00                 2676 	.db #0x00
   04F6 00                 2677 	.db #0x00
   04F7 00                 2678 	.db #0x00
   04F8 00                 2679 	.db #0x00
   04F9 00                 2680 	.db #0x00
   04FA 00                 2681 	.db #0x00
   04FB 00                 2682 	.db #0x00
   04FC 00                 2683 	.db #0x00
   04FD 00                 2684 	.db #0x00
   04FE 00                 2685 	.db #0x00
   04FF 00                 2686 	.db #0x00
   0500 00                 2687 	.db #0x00
   0501 00                 2688 	.db #0x00
   0502 0C                 2689 	.db #0x0C
   0503 03                 2690 	.db #0x03
   0504 00                 2691 	.db #0x00
   0505 00                 2692 	.db #0x00
   0506 00                 2693 	.db #0x00
   0507 00                 2694 	.db #0x00
   0508 00                 2695 	.db #0x00
   0509 00                 2696 	.db #0x00
   050A 00                 2697 	.db #0x00
   050B 00                 2698 	.db #0x00
   050C 00                 2699 	.db #0x00
   050D 00                 2700 	.db #0x00
   050E 00                 2701 	.db #0x00
   050F 00                 2702 	.db #0x00
   0510 00                 2703 	.db #0x00
   0511 00                 2704 	.db #0x00
   0512 42                 2705 	.db #0x42
   0513 81                 2706 	.db #0x81
   0514 00                 2707 	.db #0x00
   0515 00                 2708 	.db #0x00
   0516 00                 2709 	.db #0x00
   0517 00                 2710 	.db #0x00
   0518 00                 2711 	.db #0x00
   0519 00                 2712 	.db #0x00
   051A 00                 2713 	.db #0x00
   051B 00                 2714 	.db #0x00
   051C 00                 2715 	.db #0x00
   051D 00                 2716 	.db #0x00
   051E 00                 2717 	.db #0x00
   051F 00                 2718 	.db #0x00
   0520 00                 2719 	.db #0x00
   0521 00                 2720 	.db #0x00
   0522 5E                 2721 	.db #0x5E
   0523 9E                 2722 	.db #0x9E
   0524 00                 2723 	.db #0x00
   0525 00                 2724 	.db #0x00
   0526 00                 2725 	.db #0x00
   0527 00                 2726 	.db #0x00
   0528 00                 2727 	.db #0x00
   0529 00                 2728 	.db #0x00
   052A 00                 2729 	.db #0x00
   052B 00                 2730 	.db #0x00
   052C 00                 2731 	.db #0x00
   052D 00                 2732 	.db #0x00
   052E 00                 2733 	.db #0x00
   052F 00                 2734 	.db #0x00
   0530 00                 2735 	.db #0x00
   0531 00                 2736 	.db #0x00
   0532 7E                 2737 	.db #0x7E
   0533 7C                 2738 	.db #0x7C
   0534 00                 2739 	.db #0x00
   0535 00                 2740 	.db #0x00
   0536 00                 2741 	.db #0x00
   0537 00                 2742 	.db #0x00
   0538 00                 2743 	.db #0x00
   0539 00                 2744 	.db #0x00
   053A 00                 2745 	.db #0x00
   053B 00                 2746 	.db #0x00
   053C 00                 2747 	.db #0x00
   053D 00                 2748 	.db #0x00
   053E 00                 2749 	.db #0x00
   053F 00                 2750 	.db #0x00
   0540 00                 2751 	.db #0x00
   0541 00                 2752 	.db #0x00
   0542 01                 2753 	.db #0x01
   0543 00                 2754 	.db #0x00
   0544 00                 2755 	.db #0x00
   0545 00                 2756 	.db #0x00
   0546 00                 2757 	.db #0x00
   0547 00                 2758 	.db #0x00
   0548 00                 2759 	.db #0x00
   0549 00                 2760 	.db #0x00
   054A 00                 2761 	.db #0x00
   054B 00                 2762 	.db #0x00
   054C 00                 2763 	.db #0x00
   054D 00                 2764 	.db #0x00
   054E 00                 2765 	.db #0x00
   054F 00                 2766 	.db #0x00
   0550 00                 2767 	.db #0x00
   0551 00                 2768 	.db #0x00
   0552 E3                 2769 	.db #0xE3
   0553 C3                 2770 	.db #0xC3
   0554 00                 2771 	.db #0x00
   0555 00                 2772 	.db #0x00
   0556 00                 2773 	.db #0x00
   0557 00                 2774 	.db #0x00
   0558 00                 2775 	.db #0x00
   0559 00                 2776 	.db #0x00
   055A 00                 2777 	.db #0x00
   055B 00                 2778 	.db #0x00
   055C 00                 2779 	.db #0x00
   055D 00                 2780 	.db #0x00
   055E 00                 2781 	.db #0x00
   055F 00                 2782 	.db #0x00
   0560 00                 2783 	.db #0x00
   0561 00                 2784 	.db #0x00
   0562 87                 2785 	.db #0x87
   0563 07                 2786 	.db #0x07
   0564 00                 2787 	.db #0x00
   0565 00                 2788 	.db #0x00
   0566 00                 2789 	.db #0x00
   0567 00                 2790 	.db #0x00
   0568 00                 2791 	.db #0x00
   0569 00                 2792 	.db #0x00
   056A 00                 2793 	.db #0x00
   056B 00                 2794 	.db #0x00
   056C 00                 2795 	.db #0x00
   056D 00                 2796 	.db #0x00
   056E 00                 2797 	.db #0x00
   056F 00                 2798 	.db #0x00
   0570 00                 2799 	.db #0x00
   0571 00                 2800 	.db #0x00
   0572 E4                 2801 	.db #0xE4
   0573 C3                 2802 	.db #0xC3
   0574 00                 2803 	.db #0x00
   0575 00                 2804 	.db #0x00
   0576 00                 2805 	.db #0x00
   0577 00                 2806 	.db #0x00
   0578 00                 2807 	.db #0x00
   0579 00                 2808 	.db #0x00
   057A 00                 2809 	.db #0x00
   057B 00                 2810 	.db #0x00
   057C 00                 2811 	.db #0x00
   057D 00                 2812 	.db #0x00
   057E 00                 2813 	.db #0x00
   057F 00                 2814 	.db #0x00
   0580 00                 2815 	.db #0x00
   0581 00                 2816 	.db #0x00
   0582 BF                 2817 	.db #0xBF
   0583 1F                 2818 	.db #0x1F
   0584 00                 2819 	.db #0x00
   0585 00                 2820 	.db #0x00
   0586 00                 2821 	.db #0x00
   0587 00                 2822 	.db #0x00
   0588 00                 2823 	.db #0x00
   0589 00                 2824 	.db #0x00
   058A 00                 2825 	.db #0x00
   058B 00                 2826 	.db #0x00
   058C 00                 2827 	.db #0x00
   058D 00                 2828 	.db #0x00
   058E 00                 2829 	.db #0x00
   058F 00                 2830 	.db #0x00
   0590 00                 2831 	.db #0x00
   0591 00                 2832 	.db #0x00
   0592 3C                 2833 	.db #0x3C
   0593 3C                 2834 	.db #0x3C
   0594 00                 2835 	.db #0x00
   0595 00                 2836 	.db #0x00
   0596 00                 2837 	.db #0x00
   0597 00                 2838 	.db #0x00
   0598 00                 2839 	.db #0x00
   0599 00                 2840 	.db #0x00
   059A 00                 2841 	.db #0x00
   059B 00                 2842 	.db #0x00
   059C 00                 2843 	.db #0x00
   059D 00                 2844 	.db #0x00
   059E 00                 2845 	.db #0x00
   059F 00                 2846 	.db #0x00
   05A0 00                 2847 	.db #0x00
   05A1 00                 2848 	.db #0x00
   05A2 00                 2849 	.db #0x00
   05A3 00                 2850 	.db #0x00
   05A4 00                 2851 	.db #0x00
   05A5 00                 2852 	.db #0x00
   05A6 00                 2853 	.db #0x00
   05A7 00                 2854 	.db #0x00
   05A8 00                 2855 	.db #0x00
   05A9 00                 2856 	.db #0x00
   05AA 00                 2857 	.db #0x00
   05AB 01                 2858 	.db #0x01
   05AC 03                 2859 	.db #0x03
   05AD 03                 2860 	.db #0x03
   05AE 03                 2861 	.db #0x03
   05AF 03                 2862 	.db #0x03
   05B0 0F                 2863 	.db #0x0F
   05B1 07                 2864 	.db #0x07
   05B2 00                 2865 	.db #0x00
   05B3 00                 2866 	.db #0x00
   05B4 00                 2867 	.db #0x00
   05B5 00                 2868 	.db #0x00
   05B6 00                 2869 	.db #0x00
   05B7 00                 2870 	.db #0x00
   05B8 9F                 2871 	.db #0x9F
   05B9 0F                 2872 	.db #0x0F
   05BA 9F                 2873 	.db #0x9F
   05BB 0F                 2874 	.db #0x0F
   05BC 83                 2875 	.db #0x83
   05BD 07                 2876 	.db #0x07
   05BE 83                 2877 	.db #0x83
   05BF 07                 2878 	.db #0x07
   05C0 C3                 2879 	.db #0xC3
   05C1 C7                 2880 	.db #0xC7
   05C2 00                 2881 	.db #0x00
   05C3 00                 2882 	.db #0x00
   05C4 00                 2883 	.db #0x00
   05C5 00                 2884 	.db #0x00
   05C6 00                 2885 	.db #0x00
   05C7 00                 2886 	.db #0x00
   05C8 00                 2887 	.db #0x00
   05C9 00                 2888 	.db #0x00
   05CA 00                 2889 	.db #0x00
   05CB 00                 2890 	.db #0x00
   05CC 00                 2891 	.db #0x00
   05CD 00                 2892 	.db #0x00
   05CE 00                 2893 	.db #0x00
   05CF 00                 2894 	.db #0x00
   05D0 C0                 2895 	.db #0xC0
   05D1 30                 2896 	.db #0x30
   05D2 00                 2897 	.db #0x00
   05D3 00                 2898 	.db #0x00
   05D4 00                 2899 	.db #0x00
   05D5 00                 2900 	.db #0x00
   05D6 00                 2901 	.db #0x00
   05D7 00                 2902 	.db #0x00
   05D8 00                 2903 	.db #0x00
   05D9 00                 2904 	.db #0x00
   05DA 00                 2905 	.db #0x00
   05DB 00                 2906 	.db #0x00
   05DC 00                 2907 	.db #0x00
   05DD 00                 2908 	.db #0x00
   05DE 00                 2909 	.db #0x00
   05DF 00                 2910 	.db #0x00
   05E0 19                 2911 	.db #0x19
   05E1 06                 2912 	.db #0x06
   05E2 00                 2913 	.db #0x00
   05E3 00                 2914 	.db #0x00
   05E4 00                 2915 	.db #0x00
   05E5 00                 2916 	.db #0x00
   05E6 00                 2917 	.db #0x00
   05E7 00                 2918 	.db #0x00
   05E8 FF                 2919 	.db #0xFF
   05E9 7F                 2920 	.db #0x7F
   05EA FF                 2921 	.db #0xFF
   05EB 7F                 2922 	.db #0x7F
   05EC 3C                 2923 	.db #0x3C
   05ED 1C                 2924 	.db #0x1C
   05EE 3C                 2925 	.db #0x3C
   05EF 1C                 2926 	.db #0x1C
   05F0 3C                 2927 	.db #0x3C
   05F1 1C                 2928 	.db #0x1C
   05F2 00                 2929 	.db #0x00
   05F3 00                 2930 	.db #0x00
   05F4 00                 2931 	.db #0x00
   05F5 00                 2932 	.db #0x00
   05F6 00                 2933 	.db #0x00
   05F7 00                 2934 	.db #0x00
   05F8 60                 2935 	.db #0x60
   05F9 80                 2936 	.db #0x80
   05FA F8                 2937 	.db #0xF8
   05FB F0                 2938 	.db #0xF0
   05FC 7C                 2939 	.db #0x7C
   05FD 38                 2940 	.db #0x38
   05FE 3C                 2941 	.db #0x3C
   05FF 1C                 2942 	.db #0x1C
   0600 1E                 2943 	.db #0x1E
   0601 1C                 2944 	.db #0x1C
   0602 00                 2945 	.db #0x00
   0603 00                 2946 	.db #0x00
   0604 00                 2947 	.db #0x00
   0605 00                 2948 	.db #0x00
   0606 00                 2949 	.db #0x00
   0607 00                 2950 	.db #0x00
   0608 00                 2951 	.db #0x00
   0609 00                 2952 	.db #0x00
   060A 00                 2953 	.db #0x00
   060B 00                 2954 	.db #0x00
   060C 00                 2955 	.db #0x00
   060D 00                 2956 	.db #0x00
   060E 00                 2957 	.db #0x00
   060F 00                 2958 	.db #0x00
   0610 1F                 2959 	.db #0x1F
   0611 1F                 2960 	.db #0x1F
   0612 00                 2961 	.db #0x00
   0613 00                 2962 	.db #0x00
   0614 00                 2963 	.db #0x00
   0615 00                 2964 	.db #0x00
   0616 00                 2965 	.db #0x00
   0617 00                 2966 	.db #0x00
   0618 00                 2967 	.db #0x00
   0619 00                 2968 	.db #0x00
   061A 00                 2969 	.db #0x00
   061B 00                 2970 	.db #0x00
   061C 00                 2971 	.db #0x00
   061D 00                 2972 	.db #0x00
   061E 00                 2973 	.db #0x00
   061F 00                 2974 	.db #0x00
   0620 FF                 2975 	.db #0xFF
   0621 3D                 2976 	.db #0x3D
   0622 00                 2977 	.db #0x00
   0623 00                 2978 	.db #0x00
   0624 00                 2979 	.db #0x00
   0625 00                 2980 	.db #0x00
   0626 00                 2981 	.db #0x00
   0627 00                 2982 	.db #0x00
   0628 23                 2983 	.db #0x23
   0629 43                 2984 	.db #0x43
   062A E3                 2985 	.db #0xE3
   062B 63                 2986 	.db #0x63
   062C 21                 2987 	.db #0x21
   062D 40                 2988 	.db #0x40
   062E 01                 2989 	.db #0x01
   062F 00                 2990 	.db #0x00
   0630 E1                 2991 	.db #0xE1
   0631 E0                 2992 	.db #0xE0
   0632 00                 2993 	.db #0x00
   0633 00                 2994 	.db #0x00
   0634 00                 2995 	.db #0x00
   0635 00                 2996 	.db #0x00
   0636 00                 2997 	.db #0x00
   0637 00                 2998 	.db #0x00
   0638 C0                 2999 	.db #0xC0
   0639 C0                 3000 	.db #0xC0
   063A C0                 3001 	.db #0xC0
   063B C0                 3002 	.db #0xC0
   063C C0                 3003 	.db #0xC0
   063D C0                 3004 	.db #0xC0
   063E C0                 3005 	.db #0xC0
   063F C0                 3006 	.db #0xC0
   0640 C0                 3007 	.db #0xC0
   0641 C0                 3008 	.db #0xC0
   0642 0F                 3009 	.db #0x0F
   0643 07                 3010 	.db #0x07
   0644 03                 3011 	.db #0x03
   0645 03                 3012 	.db #0x03
   0646 03                 3013 	.db #0x03
   0647 03                 3014 	.db #0x03
   0648 03                 3015 	.db #0x03
   0649 03                 3016 	.db #0x03
   064A 03                 3017 	.db #0x03
   064B 03                 3018 	.db #0x03
   064C 03                 3019 	.db #0x03
   064D 03                 3020 	.db #0x03
   064E 03                 3021 	.db #0x03
   064F 03                 3022 	.db #0x03
   0650 03                 3023 	.db #0x03
   0651 03                 3024 	.db #0x03
   0652 C3                 3025 	.db #0xC3
   0653 C7                 3026 	.db #0xC7
   0654 83                 3027 	.db #0x83
   0655 07                 3028 	.db #0x07
   0656 83                 3029 	.db #0x83
   0657 07                 3030 	.db #0x07
   0658 83                 3031 	.db #0x83
   0659 07                 3032 	.db #0x07
   065A 83                 3033 	.db #0x83
   065B 07                 3034 	.db #0x07
   065C 83                 3035 	.db #0x83
   065D 07                 3036 	.db #0x07
   065E 83                 3037 	.db #0x83
   065F 07                 3038 	.db #0x07
   0660 DF                 3039 	.db #0xDF
   0661 CF                 3040 	.db #0xCF
   0662 F8                 3041 	.db #0xF8
   0663 F8                 3042 	.db #0xF8
   0664 BC                 3043 	.db #0xBC
   0665 18                 3044 	.db #0x18
   0666 1C                 3045 	.db #0x1C
   0667 18                 3046 	.db #0x18
   0668 1C                 3047 	.db #0x1C
   0669 18                 3048 	.db #0x18
   066A 1C                 3049 	.db #0x1C
   066B 18                 3050 	.db #0x18
   066C 1C                 3051 	.db #0x1C
   066D 18                 3052 	.db #0x18
   066E 1C                 3053 	.db #0x1C
   066F 18                 3054 	.db #0x18
   0670 9E                 3055 	.db #0x9E
   0671 9E                 3056 	.db #0x9E
   0672 3F                 3057 	.db #0x3F
   0673 1F                 3058 	.db #0x1F
   0674 78                 3059 	.db #0x78
   0675 31                 3060 	.db #0x31
   0676 20                 3061 	.db #0x20
   0677 70                 3062 	.db #0x70
   0678 7F                 3063 	.db #0x7F
   0679 7F                 3064 	.db #0x7F
   067A 7F                 3065 	.db #0x7F
   067B 7F                 3066 	.db #0x7F
   067C 60                 3067 	.db #0x60
   067D 70                 3068 	.db #0x70
   067E 79                 3069 	.db #0x79
   067F 30                 3070 	.db #0x30
   0680 1F                 3071 	.db #0x1F
   0681 3F                 3072 	.db #0x3F
   0682 80                 3073 	.db #0x80
   0683 80                 3074 	.db #0x80
   0684 80                 3075 	.db #0x80
   0685 C0                 3076 	.db #0xC0
   0686 E0                 3077 	.db #0xE0
   0687 C0                 3078 	.db #0xC0
   0688 E0                 3079 	.db #0xE0
   0689 C0                 3080 	.db #0xC0
   068A E0                 3081 	.db #0xE0
   068B C0                 3082 	.db #0xC0
   068C 00                 3083 	.db #0x00
   068D 00                 3084 	.db #0x00
   068E 40                 3085 	.db #0x40
   068F 80                 3086 	.db #0x80
   0690 80                 3087 	.db #0x80
   0691 C0                 3088 	.db #0xC0
   0692 3C                 3089 	.db #0x3C
   0693 1C                 3090 	.db #0x1C
   0694 3C                 3091 	.db #0x3C
   0695 1C                 3092 	.db #0x1C
   0696 3C                 3093 	.db #0x3C
   0697 1C                 3094 	.db #0x1C
   0698 3C                 3095 	.db #0x3C
   0699 1C                 3096 	.db #0x1C
   069A 3C                 3097 	.db #0x3C
   069B 1C                 3098 	.db #0x1C
   069C 3C                 3099 	.db #0x3C
   069D 1C                 3100 	.db #0x1C
   069E 3C                 3101 	.db #0x3C
   069F 1C                 3102 	.db #0x1C
   06A0 FF                 3103 	.db #0xFF
   06A1 7F                 3104 	.db #0x7F
   06A2 1C                 3105 	.db #0x1C
   06A3 0E                 3106 	.db #0x0E
   06A4 1E                 3107 	.db #0x1E
   06A5 0E                 3108 	.db #0x0E
   06A6 1E                 3109 	.db #0x1E
   06A7 0E                 3110 	.db #0x0E
   06A8 1C                 3111 	.db #0x1C
   06A9 0E                 3112 	.db #0x0E
   06AA 1E                 3113 	.db #0x1E
   06AB 1C                 3114 	.db #0x1C
   06AC 3C                 3115 	.db #0x3C
   06AD 1C                 3116 	.db #0x1C
   06AE 7C                 3117 	.db #0x7C
   06AF 38                 3118 	.db #0x38
   06B0 F8                 3119 	.db #0xF8
   06B1 F0                 3120 	.db #0xF0
   06B2 9F                 3121 	.db #0x9F
   06B3 9F                 3122 	.db #0x9F
   06B4 8F                 3123 	.db #0x8F
   06B5 C6                 3124 	.db #0xC6
   06B6 E6                 3125 	.db #0xE6
   06B7 C7                 3126 	.db #0xC7
   06B8 E7                 3127 	.db #0xE7
   06B9 C3                 3128 	.db #0xC3
   06BA E3                 3129 	.db #0xE3
   06BB C3                 3130 	.db #0xC3
   06BC 01                 3131 	.db #0x01
   06BD 03                 3132 	.db #0x03
   06BE 43                 3133 	.db #0x43
   06BF 81                 3134 	.db #0x81
   06C0 81                 3135 	.db #0x81
   06C1 C1                 3136 	.db #0xC1
   06C2 FF                 3137 	.db #0xFF
   06C3 3D                 3138 	.db #0x3D
   06C4 30                 3139 	.db #0x30
   06C5 18                 3140 	.db #0x18
   06C6 38                 3141 	.db #0x38
   06C7 10                 3142 	.db #0x10
   06C8 30                 3143 	.db #0x30
   06C9 30                 3144 	.db #0x30
   06CA F0                 3145 	.db #0xF0
   06CB 20                 3146 	.db #0x20
   06CC 30                 3147 	.db #0x30
   06CD E0                 3148 	.db #0xE0
   06CE E0                 3149 	.db #0xE0
   06CF E0                 3150 	.db #0xE0
   06D0 E1                 3151 	.db #0xE1
   06D1 C1                 3152 	.db #0xC1
   06D2 E1                 3153 	.db #0xE1
   06D3 E0                 3154 	.db #0xE0
   06D4 E1                 3155 	.db #0xE1
   06D5 60                 3156 	.db #0x60
   06D6 E1                 3157 	.db #0xE1
   06D7 60                 3158 	.db #0x60
   06D8 E1                 3159 	.db #0xE1
   06D9 60                 3160 	.db #0x60
   06DA E1                 3161 	.db #0xE1
   06DB 60                 3162 	.db #0x60
   06DC E1                 3163 	.db #0xE1
   06DD 60                 3164 	.db #0x60
   06DE E1                 3165 	.db #0xE1
   06DF 60                 3166 	.db #0x60
   06E0 FB                 3167 	.db #0xFB
   06E1 F3                 3168 	.db #0xF3
   06E2 C0                 3169 	.db #0xC0
   06E3 C0                 3170 	.db #0xC0
   06E4 C0                 3171 	.db #0xC0
   06E5 C0                 3172 	.db #0xC0
   06E6 C0                 3173 	.db #0xC0
   06E7 C0                 3174 	.db #0xC0
   06E8 C0                 3175 	.db #0xC0
   06E9 C0                 3176 	.db #0xC0
   06EA C0                 3177 	.db #0xC0
   06EB C0                 3178 	.db #0xC0
   06EC C0                 3179 	.db #0xC0
   06ED C0                 3180 	.db #0xC0
   06EE C0                 3181 	.db #0xC0
   06EF C0                 3182 	.db #0xC0
   06F0 F0                 3183 	.db #0xF0
   06F1 E0                 3184 	.db #0xE0
   06F2 02                 3185 	.db #0x02
   06F3 01                 3186 	.db #0x01
   06F4 00                 3187 	.db #0x00
   06F5 00                 3188 	.db #0x00
   06F6 00                 3189 	.db #0x00
   06F7 00                 3190 	.db #0x00
   06F8 00                 3191 	.db #0x00
   06F9 00                 3192 	.db #0x00
   06FA 00                 3193 	.db #0x00
   06FB 00                 3194 	.db #0x00
   06FC 00                 3195 	.db #0x00
   06FD 00                 3196 	.db #0x00
   06FE 00                 3197 	.db #0x00
   06FF 00                 3198 	.db #0x00
   0700 00                 3199 	.db #0x00
   0701 00                 3200 	.db #0x00
   0702 5F                 3201 	.db #0x5F
   0703 8F                 3202 	.db #0x8F
   0704 00                 3203 	.db #0x00
   0705 00                 3204 	.db #0x00
   0706 00                 3205 	.db #0x00
   0707 00                 3206 	.db #0x00
   0708 00                 3207 	.db #0x00
   0709 00                 3208 	.db #0x00
   070A 00                 3209 	.db #0x00
   070B 00                 3210 	.db #0x00
   070C 00                 3211 	.db #0x00
   070D 00                 3212 	.db #0x00
   070E 00                 3213 	.db #0x00
   070F 00                 3214 	.db #0x00
   0710 00                 3215 	.db #0x00
   0711 00                 3216 	.db #0x00
   0712 9E                 3217 	.db #0x9E
   0713 9E                 3218 	.db #0x9E
   0714 00                 3219 	.db #0x00
   0715 00                 3220 	.db #0x00
   0716 00                 3221 	.db #0x00
   0717 00                 3222 	.db #0x00
   0718 00                 3223 	.db #0x00
   0719 00                 3224 	.db #0x00
   071A 00                 3225 	.db #0x00
   071B 00                 3226 	.db #0x00
   071C 00                 3227 	.db #0x00
   071D 00                 3228 	.db #0x00
   071E 00                 3229 	.db #0x00
   071F 00                 3230 	.db #0x00
   0720 00                 3231 	.db #0x00
   0721 00                 3232 	.db #0x00
   0722 18                 3233 	.db #0x18
   0723 07                 3234 	.db #0x07
   0724 00                 3235 	.db #0x00
   0725 00                 3236 	.db #0x00
   0726 00                 3237 	.db #0x00
   0727 00                 3238 	.db #0x00
   0728 00                 3239 	.db #0x00
   0729 00                 3240 	.db #0x00
   072A 00                 3241 	.db #0x00
   072B 00                 3242 	.db #0x00
   072C 00                 3243 	.db #0x00
   072D 00                 3244 	.db #0x00
   072E 00                 3245 	.db #0x00
   072F 00                 3246 	.db #0x00
   0730 00                 3247 	.db #0x00
   0731 00                 3248 	.db #0x00
   0732 80                 3249 	.db #0x80
   0733 00                 3250 	.db #0x00
   0734 00                 3251 	.db #0x00
   0735 00                 3252 	.db #0x00
   0736 00                 3253 	.db #0x00
   0737 00                 3254 	.db #0x00
   0738 00                 3255 	.db #0x00
   0739 00                 3256 	.db #0x00
   073A 00                 3257 	.db #0x00
   073B 00                 3258 	.db #0x00
   073C 00                 3259 	.db #0x00
   073D 00                 3260 	.db #0x00
   073E 00                 3261 	.db #0x00
   073F 00                 3262 	.db #0x00
   0740 00                 3263 	.db #0x00
   0741 00                 3264 	.db #0x00
   0742 FF                 3265 	.db #0xFF
   0743 7F                 3266 	.db #0x7F
   0744 00                 3267 	.db #0x00
   0745 00                 3268 	.db #0x00
   0746 00                 3269 	.db #0x00
   0747 00                 3270 	.db #0x00
   0748 00                 3271 	.db #0x00
   0749 00                 3272 	.db #0x00
   074A 00                 3273 	.db #0x00
   074B 00                 3274 	.db #0x00
   074C 00                 3275 	.db #0x00
   074D 00                 3276 	.db #0x00
   074E 00                 3277 	.db #0x00
   074F 00                 3278 	.db #0x00
   0750 00                 3279 	.db #0x00
   0751 00                 3280 	.db #0x00
   0752 20                 3281 	.db #0x20
   0753 C0                 3282 	.db #0xC0
   0754 00                 3283 	.db #0x00
   0755 00                 3284 	.db #0x00
   0756 00                 3285 	.db #0x00
   0757 00                 3286 	.db #0x00
   0758 00                 3287 	.db #0x00
   0759 00                 3288 	.db #0x00
   075A 00                 3289 	.db #0x00
   075B 00                 3290 	.db #0x00
   075C 00                 3291 	.db #0x00
   075D 00                 3292 	.db #0x00
   075E 00                 3293 	.db #0x00
   075F 00                 3294 	.db #0x00
   0760 00                 3295 	.db #0x00
   0761 00                 3296 	.db #0x00
   0762 81                 3297 	.db #0x81
   0763 00                 3298 	.db #0x00
   0764 00                 3299 	.db #0x00
   0765 00                 3300 	.db #0x00
   0766 00                 3301 	.db #0x00
   0767 00                 3302 	.db #0x00
   0768 00                 3303 	.db #0x00
   0769 00                 3304 	.db #0x00
   076A 00                 3305 	.db #0x00
   076B 00                 3306 	.db #0x00
   076C 00                 3307 	.db #0x00
   076D 00                 3308 	.db #0x00
   076E 00                 3309 	.db #0x00
   076F 00                 3310 	.db #0x00
   0770 00                 3311 	.db #0x00
   0771 00                 3312 	.db #0x00
   0772 C1                 3313 	.db #0xC1
   0773 C1                 3314 	.db #0xC1
   0774 00                 3315 	.db #0x00
   0775 00                 3316 	.db #0x00
   0776 00                 3317 	.db #0x00
   0777 00                 3318 	.db #0x00
   0778 00                 3319 	.db #0x00
   0779 00                 3320 	.db #0x00
   077A 00                 3321 	.db #0x00
   077B 00                 3322 	.db #0x00
   077C 00                 3323 	.db #0x00
   077D 00                 3324 	.db #0x00
   077E 00                 3325 	.db #0x00
   077F 00                 3326 	.db #0x00
   0780 00                 3327 	.db #0x00
   0781 00                 3328 	.db #0x00
   0782 FB                 3329 	.db #0xFB
   0783 F3                 3330 	.db #0xF3
   0784 00                 3331 	.db #0x00
   0785 00                 3332 	.db #0x00
   0786 00                 3333 	.db #0x00
   0787 00                 3334 	.db #0x00
   0788 00                 3335 	.db #0x00
   0789 00                 3336 	.db #0x00
   078A 00                 3337 	.db #0x00
   078B 00                 3338 	.db #0x00
   078C 00                 3339 	.db #0x00
   078D 00                 3340 	.db #0x00
   078E 00                 3341 	.db #0x00
   078F 00                 3342 	.db #0x00
   0790 00                 3343 	.db #0x00
   0791 00                 3344 	.db #0x00
   0792 F0                 3345 	.db #0xF0
   0793 E0                 3346 	.db #0xE0
   0794 00                 3347 	.db #0x00
   0795 00                 3348 	.db #0x00
   0796 00                 3349 	.db #0x00
   0797 00                 3350 	.db #0x00
   0798 00                 3351 	.db #0x00
   0799 00                 3352 	.db #0x00
   079A 00                 3353 	.db #0x00
   079B 00                 3354 	.db #0x00
   079C 00                 3355 	.db #0x00
   079D 00                 3356 	.db #0x00
   079E 00                 3357 	.db #0x00
   079F 00                 3358 	.db #0x00
   07A0 00                 3359 	.db #0x00
   07A1 00                 3360 	.db #0x00
   07A2 00                 3361 	.db #0x00
   07A3 00                 3362 	.db #0x00
   07A4 00                 3363 	.db #0x00
   07A5 00                 3364 	.db #0x00
   07A6 00                 3365 	.db #0x00
   07A7 00                 3366 	.db #0x00
   07A8 00                 3367 	.db #0x00
   07A9 00                 3368 	.db #0x00
   07AA 00                 3369 	.db #0x00
   07AB 00                 3370 	.db #0x00
   07AC 00                 3371 	.db #0x00
   07AD 00                 3372 	.db #0x00
   07AE 07                 3373 	.db #0x07
   07AF 07                 3374 	.db #0x07
   07B0 07                 3375 	.db #0x07
   07B1 07                 3376 	.db #0x07
   07B2 00                 3377 	.db #0x00
   07B3 00                 3378 	.db #0x00
   07B4 00                 3379 	.db #0x00
   07B5 00                 3380 	.db #0x00
   07B6 00                 3381 	.db #0x00
   07B7 00                 3382 	.db #0x00
   07B8 00                 3383 	.db #0x00
   07B9 00                 3384 	.db #0x00
   07BA 00                 3385 	.db #0x00
   07BB 00                 3386 	.db #0x00
   07BC 00                 3387 	.db #0x00
   07BD 00                 3388 	.db #0x00
   07BE F6                 3389 	.db #0xF6
   07BF F8                 3390 	.db #0xF8
   07C0 FF                 3391 	.db #0xFF
   07C1 FE                 3392 	.db #0xFE
   07C2 00                 3393 	.db #0x00
   07C3 00                 3394 	.db #0x00
   07C4 00                 3395 	.db #0x00
   07C5 00                 3396 	.db #0x00
   07C6 00                 3397 	.db #0x00
   07C7 00                 3398 	.db #0x00
   07C8 00                 3399 	.db #0x00
   07C9 00                 3400 	.db #0x00
   07CA 00                 3401 	.db #0x00
   07CB 00                 3402 	.db #0x00
   07CC 00                 3403 	.db #0x00
   07CD 00                 3404 	.db #0x00
   07CE 00                 3405 	.db #0x00
   07CF 00                 3406 	.db #0x00
   07D0 01                 3407 	.db #0x01
   07D1 00                 3408 	.db #0x00
   07D2 00                 3409 	.db #0x00
   07D3 00                 3410 	.db #0x00
   07D4 00                 3411 	.db #0x00
   07D5 00                 3412 	.db #0x00
   07D6 00                 3413 	.db #0x00
   07D7 00                 3414 	.db #0x00
   07D8 00                 3415 	.db #0x00
   07D9 00                 3416 	.db #0x00
   07DA 00                 3417 	.db #0x00
   07DB 00                 3418 	.db #0x00
   07DC 00                 3419 	.db #0x00
   07DD 00                 3420 	.db #0x00
   07DE 56                 3421 	.db #0x56
   07DF 26                 3422 	.db #0x26
   07E0 F6                 3423 	.db #0xF6
   07E1 FE                 3424 	.db #0xFE
   07E2 00                 3425 	.db #0x00
   07E3 00                 3426 	.db #0x00
   07E4 00                 3427 	.db #0x00
   07E5 00                 3428 	.db #0x00
   07E6 00                 3429 	.db #0x00
   07E7 00                 3430 	.db #0x00
   07E8 00                 3431 	.db #0x00
   07E9 00                 3432 	.db #0x00
   07EA 00                 3433 	.db #0x00
   07EB 00                 3434 	.db #0x00
   07EC 00                 3435 	.db #0x00
   07ED 00                 3436 	.db #0x00
   07EE 04                 3437 	.db #0x04
   07EF 00                 3438 	.db #0x00
   07F0 04                 3439 	.db #0x04
   07F1 08                 3440 	.db #0x08
   07F2 00                 3441 	.db #0x00
   07F3 00                 3442 	.db #0x00
   07F4 00                 3443 	.db #0x00
   07F5 00                 3444 	.db #0x00
   07F6 00                 3445 	.db #0x00
   07F7 00                 3446 	.db #0x00
   07F8 00                 3447 	.db #0x00
   07F9 00                 3448 	.db #0x00
   07FA 00                 3449 	.db #0x00
   07FB 00                 3450 	.db #0x00
   07FC 00                 3451 	.db #0x00
   07FD 00                 3452 	.db #0x00
   07FE 40                 3453 	.db #0x40
   07FF 00                 3454 	.db #0x00
   0800 40                 3455 	.db #0x40
   0801 80                 3456 	.db #0x80
   0802 03                 3457 	.db #0x03
   0803 01                 3458 	.db #0x01
   0804 03                 3459 	.db #0x03
   0805 01                 3460 	.db #0x01
   0806 03                 3461 	.db #0x03
   0807 01                 3462 	.db #0x01
   0808 03                 3463 	.db #0x03
   0809 01                 3464 	.db #0x01
   080A 03                 3465 	.db #0x03
   080B 01                 3466 	.db #0x01
   080C 03                 3467 	.db #0x03
   080D 01                 3468 	.db #0x01
   080E 03                 3469 	.db #0x03
   080F 01                 3470 	.db #0x01
   0810 03                 3471 	.db #0x03
   0811 01                 3472 	.db #0x01
   0812 8F                 3473 	.db #0x8F
   0813 C7                 3474 	.db #0xC7
   0814 83                 3475 	.db #0x83
   0815 C7                 3476 	.db #0xC7
   0816 87                 3477 	.db #0x87
   0817 C3                 3478 	.db #0xC3
   0818 83                 3479 	.db #0x83
   0819 C7                 3480 	.db #0xC7
   081A 8F                 3481 	.db #0x8F
   081B C7                 3482 	.db #0xC7
   081C FE                 3483 	.db #0xFE
   081D FF                 3484 	.db #0xFF
   081E F6                 3485 	.db #0xF6
   081F F8                 3486 	.db #0xF8
   0820 80                 3487 	.db #0x80
   0821 C0                 3488 	.db #0xC0
   0822 80                 3489 	.db #0x80
   0823 00                 3490 	.db #0x00
   0824 00                 3491 	.db #0x00
   0825 80                 3492 	.db #0x80
   0826 3C                 3493 	.db #0x3C
   0827 BC                 3494 	.db #0xBC
   0828 3D                 3495 	.db #0x3D
   0829 BD                 3496 	.db #0xBD
   082A 9F                 3497 	.db #0x9F
   082B 0D                 3498 	.db #0x0D
   082C 1F                 3499 	.db #0x1F
   082D 0E                 3500 	.db #0x0E
   082E 1E                 3501 	.db #0x1E
   082F 0C                 3502 	.db #0x0C
   0830 1E                 3503 	.db #0x1E
   0831 0C                 3504 	.db #0x0C
   0832 00                 3505 	.db #0x00
   0833 00                 3506 	.db #0x00
   0834 00                 3507 	.db #0x00
   0835 00                 3508 	.db #0x00
   0836 C6                 3509 	.db #0xC6
   0837 01                 3510 	.db #0x01
   0838 8F                 3511 	.db #0x8F
   0839 C7                 3512 	.db #0xC7
   083A 9E                 3513 	.db #0x9E
   083B CC                 3514 	.db #0xCC
   083C 08                 3515 	.db #0x08
   083D 1C                 3516 	.db #0x1C
   083E 1F                 3517 	.db #0x1F
   083F 1F                 3518 	.db #0x1F
   0840 1F                 3519 	.db #0x1F
   0841 1F                 3520 	.db #0x1F
   0842 00                 3521 	.db #0x00
   0843 00                 3522 	.db #0x00
   0844 00                 3523 	.db #0x00
   0845 00                 3524 	.db #0x00
   0846 41                 3525 	.db #0x41
   0847 80                 3526 	.db #0x80
   0848 E3                 3527 	.db #0xE3
   0849 E1                 3528 	.db #0xE1
   084A 23                 3529 	.db #0x23
   084B 73                 3530 	.db #0x73
   084C 3B                 3531 	.db #0x3B
   084D 33                 3532 	.db #0x33
   084E FB                 3533 	.db #0xFB
   084F F1                 3534 	.db #0xF1
   0850 F9                 3535 	.db #0xF9
   0851 F0                 3536 	.db #0xF0
   0852 00                 3537 	.db #0x00
   0853 00                 3538 	.db #0x00
   0854 00                 3539 	.db #0x00
   0855 00                 3540 	.db #0x00
   0856 38                 3541 	.db #0x38
   0857 CC                 3542 	.db #0xCC
   0858 F8                 3543 	.db #0xF8
   0859 FC                 3544 	.db #0xFC
   085A 98                 3545 	.db #0x98
   085B 0C                 3546 	.db #0x0C
   085C F0                 3547 	.db #0xF0
   085D 00                 3548 	.db #0x00
   085E FC                 3549 	.db #0xFC
   085F F8                 3550 	.db #0xF8
   0860 7C                 3551 	.db #0x7C
   0861 FC                 3552 	.db #0xFC
   0862 00                 3553 	.db #0x00
   0863 00                 3554 	.db #0x00
   0864 00                 3555 	.db #0x00
   0865 00                 3556 	.db #0x00
   0866 4E                 3557 	.db #0x4E
   0867 33                 3558 	.db #0x33
   0868 FE                 3559 	.db #0xFE
   0869 7F                 3560 	.db #0x7F
   086A E6                 3561 	.db #0xE6
   086B C3                 3562 	.db #0xC3
   086C FC                 3563 	.db #0xFC
   086D C0                 3564 	.db #0xC0
   086E FF                 3565 	.db #0xFF
   086F 7E                 3566 	.db #0x7E
   0870 5F                 3567 	.db #0x5F
   0871 3F                 3568 	.db #0x3F
   0872 00                 3569 	.db #0x00
   0873 01                 3570 	.db #0x01
   0874 01                 3571 	.db #0x01
   0875 01                 3572 	.db #0x01
   0876 01                 3573 	.db #0x01
   0877 01                 3574 	.db #0x01
   0878 01                 3575 	.db #0x01
   0879 00                 3576 	.db #0x00
   087A 00                 3577 	.db #0x00
   087B 00                 3578 	.db #0x00
   087C 00                 3579 	.db #0x00
   087D 00                 3580 	.db #0x00
   087E 00                 3581 	.db #0x00
   087F 00                 3582 	.db #0x00
   0880 01                 3583 	.db #0x01
   0881 01                 3584 	.db #0x01
   0882 8E                 3585 	.db #0x8E
   0883 C6                 3586 	.db #0xC6
   0884 C6                 3587 	.db #0xC6
   0885 86                 3588 	.db #0x86
   0886 E0                 3589 	.db #0xE0
   0887 C0                 3590 	.db #0xC0
   0888 F0                 3591 	.db #0xF0
   0889 E0                 3592 	.db #0xE0
   088A FC                 3593 	.db #0xFC
   088B 78                 3594 	.db #0x78
   088C 1E                 3595 	.db #0x1E
   088D 3C                 3596 	.db #0x3C
   088E 1F                 3597 	.db #0x1F
   088F 0E                 3598 	.db #0x0E
   0890 8E                 3599 	.db #0x8E
   0891 87                 3600 	.db #0x87
   0892 1C                 3601 	.db #0x1C
   0893 18                 3602 	.db #0x18
   0894 1C                 3603 	.db #0x1C
   0895 18                 3604 	.db #0x18
   0896 7E                 3605 	.db #0x7E
   0897 3E                 3606 	.db #0x3E
   0898 7E                 3607 	.db #0x7E
   0899 3E                 3608 	.db #0x3E
   089A 1C                 3609 	.db #0x1C
   089B 18                 3610 	.db #0x18
   089C 1C                 3611 	.db #0x1C
   089D 18                 3612 	.db #0x18
   089E 1C                 3613 	.db #0x1C
   089F 18                 3614 	.db #0x18
   08A0 1C                 3615 	.db #0x1C
   08A1 18                 3616 	.db #0x18
   08A2 00                 3617 	.db #0x00
   08A3 00                 3618 	.db #0x00
   08A4 00                 3619 	.db #0x00
   08A5 00                 3620 	.db #0x00
   08A6 15                 3621 	.db #0x15
   08A7 0E                 3622 	.db #0x0E
   08A8 7F                 3623 	.db #0x7F
   08A9 3F                 3624 	.db #0x3F
   08AA 53                 3625 	.db #0x53
   08AB 21                 3626 	.db #0x21
   08AC 01                 3627 	.db #0x01
   08AD 01                 3628 	.db #0x01
   08AE 33                 3629 	.db #0x33
   08AF 0D                 3630 	.db #0x0D
   08B0 7F                 3631 	.db #0x7F
   08B1 3F                 3632 	.db #0x3F
   08B2 00                 3633 	.db #0x00
   08B3 00                 3634 	.db #0x00
   08B4 00                 3635 	.db #0x00
   08B5 00                 3636 	.db #0x00
   08B6 07                 3637 	.db #0x07
   08B7 07                 3638 	.db #0x07
   08B8 87                 3639 	.db #0x87
   08B9 87                 3640 	.db #0x87
   08BA C3                 3641 	.db #0xC3
   08BB 81                 3642 	.db #0x81
   08BC C3                 3643 	.db #0xC3
   08BD 81                 3644 	.db #0x81
   08BE 83                 3645 	.db #0x83
   08BF C1                 3646 	.db #0xC1
   08C0 83                 3647 	.db #0x83
   08C1 C1                 3648 	.db #0xC1
   08C2 01                 3649 	.db #0x01
   08C3 01                 3650 	.db #0x01
   08C4 01                 3651 	.db #0x01
   08C5 01                 3652 	.db #0x01
   08C6 9F                 3653 	.db #0x9F
   08C7 83                 3654 	.db #0x83
   08C8 B7                 3655 	.db #0xB7
   08C9 BB                 3656 	.db #0xBB
   08CA F1                 3657 	.db #0xF1
   08CB B9                 3658 	.db #0xB9
   08CC E1                 3659 	.db #0xE1
   08CD C1                 3660 	.db #0xC1
   08CE C1                 3661 	.db #0xC1
   08CF 81                 3662 	.db #0x81
   08D0 C1                 3663 	.db #0xC1
   08D1 81                 3664 	.db #0x81
   08D2 C0                 3665 	.db #0xC0
   08D3 80                 3666 	.db #0x80
   08D4 C0                 3667 	.db #0xC0
   08D5 80                 3668 	.db #0x80
   08D6 E0                 3669 	.db #0xE0
   08D7 E0                 3670 	.db #0xE0
   08D8 E0                 3671 	.db #0xE0
   08D9 E0                 3672 	.db #0xE0
   08DA C0                 3673 	.db #0xC0
   08DB 80                 3674 	.db #0x80
   08DC C0                 3675 	.db #0xC0
   08DD 80                 3676 	.db #0x80
   08DE C0                 3677 	.db #0xC0
   08DF 80                 3678 	.db #0x80
   08E0 C0                 3679 	.db #0xC0
   08E1 80                 3680 	.db #0x80
   08E2 03                 3681 	.db #0x03
   08E3 01                 3682 	.db #0x01
   08E4 03                 3683 	.db #0x03
   08E5 01                 3684 	.db #0x01
   08E6 07                 3685 	.db #0x07
   08E7 07                 3686 	.db #0x07
   08E8 07                 3687 	.db #0x07
   08E9 07                 3688 	.db #0x07
   08EA 00                 3689 	.db #0x00
   08EB 00                 3690 	.db #0x00
   08EC 00                 3691 	.db #0x00
   08ED 00                 3692 	.db #0x00
   08EE 00                 3693 	.db #0x00
   08EF 00                 3694 	.db #0x00
   08F0 00                 3695 	.db #0x00
   08F1 00                 3696 	.db #0x00
   08F2 80                 3697 	.db #0x80
   08F3 C0                 3698 	.db #0xC0
   08F4 80                 3699 	.db #0x80
   08F5 C0                 3700 	.db #0xC0
   08F6 F0                 3701 	.db #0xF0
   08F7 E0                 3702 	.db #0xE0
   08F8 F0                 3703 	.db #0xF0
   08F9 E0                 3704 	.db #0xE0
   08FA 00                 3705 	.db #0x00
   08FB 00                 3706 	.db #0x00
   08FC 00                 3707 	.db #0x00
   08FD 00                 3708 	.db #0x00
   08FE 00                 3709 	.db #0x00
   08FF 00                 3710 	.db #0x00
   0900 00                 3711 	.db #0x00
   0901 00                 3712 	.db #0x00
   0902 1C                 3713 	.db #0x1C
   0903 0C                 3714 	.db #0x0C
   0904 1C                 3715 	.db #0x1C
   0905 0C                 3716 	.db #0x0C
   0906 7F                 3717 	.db #0x7F
   0907 3F                 3718 	.db #0x3F
   0908 7F                 3719 	.db #0x7F
   0909 3F                 3720 	.db #0x3F
   090A 00                 3721 	.db #0x00
   090B 00                 3722 	.db #0x00
   090C 00                 3723 	.db #0x00
   090D 00                 3724 	.db #0x00
   090E 00                 3725 	.db #0x00
   090F 00                 3726 	.db #0x00
   0910 00                 3727 	.db #0x00
   0911 00                 3728 	.db #0x00
   0912 18                 3729 	.db #0x18
   0913 1C                 3730 	.db #0x1C
   0914 1E                 3731 	.db #0x1E
   0915 0C                 3732 	.db #0x0C
   0916 07                 3733 	.db #0x07
   0917 0F                 3734 	.db #0x0F
   0918 06                 3735 	.db #0x06
   0919 01                 3736 	.db #0x01
   091A 00                 3737 	.db #0x00
   091B 00                 3738 	.db #0x00
   091C 00                 3739 	.db #0x00
   091D 00                 3740 	.db #0x00
   091E 00                 3741 	.db #0x00
   091F 00                 3742 	.db #0x00
   0920 00                 3743 	.db #0x00
   0921 00                 3744 	.db #0x00
   0922 00                 3745 	.db #0x00
   0923 00                 3746 	.db #0x00
   0924 51                 3747 	.db #0x51
   0925 23                 3748 	.db #0x23
   0926 E1                 3749 	.db #0xE1
   0927 F3                 3750 	.db #0xF3
   0928 21                 3751 	.db #0x21
   0929 C3                 3752 	.db #0xC3
   092A 00                 3753 	.db #0x00
   092B 00                 3754 	.db #0x00
   092C 00                 3755 	.db #0x00
   092D 00                 3756 	.db #0x00
   092E 00                 3757 	.db #0x00
   092F 00                 3758 	.db #0x00
   0930 00                 3759 	.db #0x00
   0931 00                 3760 	.db #0x00
   0932 1E                 3761 	.db #0x1E
   0933 0C                 3762 	.db #0x0C
   0934 8C                 3763 	.db #0x8C
   0935 0C                 3764 	.db #0x0C
   0936 F8                 3765 	.db #0xF8
   0937 FC                 3766 	.db #0xFC
   0938 E8                 3767 	.db #0xE8
   0939 30                 3768 	.db #0x30
   093A 00                 3769 	.db #0x00
   093B 00                 3770 	.db #0x00
   093C 00                 3771 	.db #0x00
   093D 00                 3772 	.db #0x00
   093E 00                 3773 	.db #0x00
   093F 00                 3774 	.db #0x00
   0940 00                 3775 	.db #0x00
   0941 00                 3776 	.db #0x00
   0942 07                 3777 	.db #0x07
   0943 03                 3778 	.db #0x03
   0944 63                 3779 	.db #0x63
   0945 C3                 3780 	.db #0xC3
   0946 7E                 3781 	.db #0x7E
   0947 FF                 3782 	.db #0xFF
   0948 7A                 3783 	.db #0x7A
   0949 CC                 3784 	.db #0xCC
   094A 00                 3785 	.db #0x00
   094B 00                 3786 	.db #0x00
   094C 00                 3787 	.db #0x00
   094D 00                 3788 	.db #0x00
   094E 00                 3789 	.db #0x00
   094F 00                 3790 	.db #0x00
   0950 00                 3791 	.db #0x00
   0951 00                 3792 	.db #0x00
   0952 81                 3793 	.db #0x81
   0953 01                 3794 	.db #0x01
   0954 01                 3795 	.db #0x01
   0955 01                 3796 	.db #0x01
   0956 01                 3797 	.db #0x01
   0957 01                 3798 	.db #0x01
   0958 01                 3799 	.db #0x01
   0959 01                 3800 	.db #0x01
   095A 00                 3801 	.db #0x00
   095B 00                 3802 	.db #0x00
   095C 00                 3803 	.db #0x00
   095D 00                 3804 	.db #0x00
   095E 00                 3805 	.db #0x00
   095F 00                 3806 	.db #0x00
   0960 00                 3807 	.db #0x00
   0961 00                 3808 	.db #0x00
   0962 C6                 3809 	.db #0xC6
   0963 87                 3810 	.db #0x87
   0964 8F                 3811 	.db #0x8F
   0965 C6                 3812 	.db #0xC6
   0966 BE                 3813 	.db #0xBE
   0967 FE                 3814 	.db #0xFE
   0968 A4                 3815 	.db #0xA4
   0969 98                 3816 	.db #0x98
   096A 00                 3817 	.db #0x00
   096B 00                 3818 	.db #0x00
   096C 00                 3819 	.db #0x00
   096D 00                 3820 	.db #0x00
   096E 00                 3821 	.db #0x00
   096F 00                 3822 	.db #0x00
   0970 00                 3823 	.db #0x00
   0971 00                 3824 	.db #0x00
   0972 1C                 3825 	.db #0x1C
   0973 18                 3826 	.db #0x18
   0974 1C                 3827 	.db #0x1C
   0975 18                 3828 	.db #0x18
   0976 1E                 3829 	.db #0x1E
   0977 1E                 3830 	.db #0x1E
   0978 12                 3831 	.db #0x12
   0979 0C                 3832 	.db #0x0C
   097A 00                 3833 	.db #0x00
   097B 00                 3834 	.db #0x00
   097C 00                 3835 	.db #0x00
   097D 00                 3836 	.db #0x00
   097E 00                 3837 	.db #0x00
   097F 00                 3838 	.db #0x00
   0980 00                 3839 	.db #0x00
   0981 00                 3840 	.db #0x00
   0982 63                 3841 	.db #0x63
   0983 71                 3842 	.db #0x71
   0984 63                 3843 	.db #0x63
   0985 71                 3844 	.db #0x71
   0986 7D                 3845 	.db #0x7D
   0987 3F                 3846 	.db #0x3F
   0988 25                 3847 	.db #0x25
   0989 19                 3848 	.db #0x19
   098A 00                 3849 	.db #0x00
   098B 00                 3850 	.db #0x00
   098C 00                 3851 	.db #0x00
   098D 00                 3852 	.db #0x00
   098E 00                 3853 	.db #0x00
   098F 00                 3854 	.db #0x00
   0990 00                 3855 	.db #0x00
   0991 00                 3856 	.db #0x00
   0992 83                 3857 	.db #0x83
   0993 C1                 3858 	.db #0xC1
   0994 83                 3859 	.db #0x83
   0995 C1                 3860 	.db #0xC1
   0996 EF                 3861 	.db #0xEF
   0997 E7                 3862 	.db #0xE7
   0998 EF                 3863 	.db #0xEF
   0999 E7                 3864 	.db #0xE7
   099A 00                 3865 	.db #0x00
   099B 00                 3866 	.db #0x00
   099C 00                 3867 	.db #0x00
   099D 00                 3868 	.db #0x00
   099E 00                 3869 	.db #0x00
   099F 00                 3870 	.db #0x00
   09A0 00                 3871 	.db #0x00
   09A1 00                 3872 	.db #0x00
   09A2 81                 3873 	.db #0x81
   09A3 81                 3874 	.db #0x81
   09A4 81                 3875 	.db #0x81
   09A5 81                 3876 	.db #0x81
   09A6 E1                 3877 	.db #0xE1
   09A7 E1                 3878 	.db #0xE1
   09A8 E1                 3879 	.db #0xE1
   09A9 E0                 3880 	.db #0xE0
   09AA 00                 3881 	.db #0x00
   09AB 00                 3882 	.db #0x00
   09AC 00                 3883 	.db #0x00
   09AD 00                 3884 	.db #0x00
   09AE 00                 3885 	.db #0x00
   09AF 00                 3886 	.db #0x00
   09B0 00                 3887 	.db #0x00
   09B1 00                 3888 	.db #0x00
   09B2 C0                 3889 	.db #0xC0
   09B3 80                 3890 	.db #0x80
   09B4 C0                 3891 	.db #0xC0
   09B5 80                 3892 	.db #0x80
   09B6 E0                 3893 	.db #0xE0
   09B7 E0                 3894 	.db #0xE0
   09B8 20                 3895 	.db #0x20
   09B9 C0                 3896 	.db #0xC0
   09BA 00                 3897 	.db #0x00
   09BB 00                 3898 	.db #0x00
   09BC 00                 3899 	.db #0x00
   09BD 00                 3900 	.db #0x00
   09BE 00                 3901 	.db #0x00
   09BF 00                 3902 	.db #0x00
   09C0 00                 3903 	.db #0x00
   09C1 00                 3904 	.db #0x00
   09C2                    3905 _temp_splash_map:
   09C2 00                 3906 	.db #0x00
   09C3 00                 3907 	.db #0x00
   09C4 00                 3908 	.db #0x00
   09C5 00                 3909 	.db #0x00
   09C6 00                 3910 	.db #0x00
   09C7 00                 3911 	.db #0x00
   09C8 00                 3912 	.db #0x00
   09C9 00                 3913 	.db #0x00
   09CA 00                 3914 	.db #0x00
   09CB 00                 3915 	.db #0x00
   09CC 00                 3916 	.db #0x00
   09CD 00                 3917 	.db #0x00
   09CE 00                 3918 	.db #0x00
   09CF 00                 3919 	.db #0x00
   09D0 00                 3920 	.db #0x00
   09D1 00                 3921 	.db #0x00
   09D2 00                 3922 	.db #0x00
   09D3 00                 3923 	.db #0x00
   09D4 00                 3924 	.db #0x00
   09D5 00                 3925 	.db #0x00
   09D6 00                 3926 	.db #0x00
   09D7 00                 3927 	.db #0x00
   09D8 00                 3928 	.db #0x00
   09D9 00                 3929 	.db #0x00
   09DA 00                 3930 	.db #0x00
   09DB 00                 3931 	.db #0x00
   09DC 00                 3932 	.db #0x00
   09DD 00                 3933 	.db #0x00
   09DE 00                 3934 	.db #0x00
   09DF 00                 3935 	.db #0x00
   09E0 00                 3936 	.db #0x00
   09E1 00                 3937 	.db #0x00
   09E2 00                 3938 	.db #0x00
   09E3 00                 3939 	.db #0x00
   09E4 00                 3940 	.db #0x00
   09E5 00                 3941 	.db #0x00
   09E6 00                 3942 	.db #0x00
   09E7 00                 3943 	.db #0x00
   09E8 00                 3944 	.db #0x00
   09E9 00                 3945 	.db #0x00
   09EA 00                 3946 	.db #0x00
   09EB 00                 3947 	.db #0x00
   09EC 00                 3948 	.db #0x00
   09ED 00                 3949 	.db #0x00
   09EE 00                 3950 	.db #0x00
   09EF 00                 3951 	.db #0x00
   09F0 00                 3952 	.db #0x00
   09F1 00                 3953 	.db #0x00
   09F2 00                 3954 	.db #0x00
   09F3 00                 3955 	.db #0x00
   09F4 00                 3956 	.db #0x00
   09F5 00                 3957 	.db #0x00
   09F6 00                 3958 	.db #0x00
   09F7 00                 3959 	.db #0x00
   09F8 00                 3960 	.db #0x00
   09F9 00                 3961 	.db #0x00
   09FA 00                 3962 	.db #0x00
   09FB 00                 3963 	.db #0x00
   09FC 00                 3964 	.db #0x00
   09FD 00                 3965 	.db #0x00
   09FE 00                 3966 	.db #0x00
   09FF 00                 3967 	.db #0x00
   0A00 00                 3968 	.db #0x00
   0A01 00                 3969 	.db #0x00
   0A02 01                 3970 	.db #0x01
   0A03 02                 3971 	.db #0x02
   0A04 03                 3972 	.db #0x03
   0A05 04                 3973 	.db #0x04
   0A06 05                 3974 	.db #0x05
   0A07 06                 3975 	.db #0x06
   0A08 07                 3976 	.db #0x07
   0A09 08                 3977 	.db #0x08
   0A0A 09                 3978 	.db #0x09
   0A0B 0A                 3979 	.db #0x0A
   0A0C 0B                 3980 	.db #0x0B
   0A0D 0C                 3981 	.db #0x0C
   0A0E 00                 3982 	.db #0x00
   0A0F 00                 3983 	.db #0x00
   0A10 00                 3984 	.db #0x00
   0A11 00                 3985 	.db #0x00
   0A12 00                 3986 	.db #0x00
   0A13 00                 3987 	.db #0x00
   0A14 00                 3988 	.db #0x00
   0A15 00                 3989 	.db #0x00
   0A16 0D                 3990 	.db #0x0D
   0A17 0E                 3991 	.db #0x0E
   0A18 0F                 3992 	.db #0x0F
   0A19 10                 3993 	.db #0x10
   0A1A 11                 3994 	.db #0x11
   0A1B 12                 3995 	.db #0x12
   0A1C 13                 3996 	.db #0x13
   0A1D 14                 3997 	.db #0x14
   0A1E 15                 3998 	.db #0x15
   0A1F 16                 3999 	.db #0x16
   0A20 17                 4000 	.db #0x17
   0A21 18                 4001 	.db #0x18
   0A22 00                 4002 	.db #0x00
   0A23 00                 4003 	.db #0x00
   0A24 00                 4004 	.db #0x00
   0A25 00                 4005 	.db #0x00
   0A26 00                 4006 	.db #0x00
   0A27 00                 4007 	.db #0x00
   0A28 00                 4008 	.db #0x00
   0A29 00                 4009 	.db #0x00
   0A2A 19                 4010 	.db #0x19
   0A2B 1A                 4011 	.db #0x1A
   0A2C 1B                 4012 	.db #0x1B
   0A2D 1C                 4013 	.db #0x1C
   0A2E 1D                 4014 	.db #0x1D
   0A2F 1E                 4015 	.db #0x1E
   0A30 1F                 4016 	.db #0x1F
   0A31 20                 4017 	.db #0x20
   0A32 21                 4018 	.db #0x21
   0A33 22                 4019 	.db #0x22
   0A34 23                 4020 	.db #0x23
   0A35 24                 4021 	.db #0x24
   0A36 00                 4022 	.db #0x00
   0A37 00                 4023 	.db #0x00
   0A38 00                 4024 	.db #0x00
   0A39 00                 4025 	.db #0x00
   0A3A 00                 4026 	.db #0x00
   0A3B 00                 4027 	.db #0x00
   0A3C 00                 4028 	.db #0x00
   0A3D 00                 4029 	.db #0x00
   0A3E 25                 4030 	.db #0x25
   0A3F 26                 4031 	.db #0x26
   0A40 27                 4032 	.db #0x27
   0A41 28                 4033 	.db #0x28
   0A42 00                 4034 	.db #0x00
   0A43 29                 4035 	.db #0x29
   0A44 2A                 4036 	.db #0x2A
   0A45 28                 4037 	.db #0x28
   0A46 2B                 4038 	.db #0x2B
   0A47 2C                 4039 	.db #0x2C
   0A48 2D                 4040 	.db #0x2D
   0A49 2E                 4041 	.db #0x2E
   0A4A 00                 4042 	.db #0x00
   0A4B 00                 4043 	.db #0x00
   0A4C 00                 4044 	.db #0x00
   0A4D 00                 4045 	.db #0x00
   0A4E 00                 4046 	.db #0x00
   0A4F 00                 4047 	.db #0x00
   0A50 00                 4048 	.db #0x00
   0A51 00                 4049 	.db #0x00
   0A52 2F                 4050 	.db #0x2F
   0A53 30                 4051 	.db #0x30
   0A54 31                 4052 	.db #0x31
   0A55 32                 4053 	.db #0x32
   0A56 33                 4054 	.db #0x33
   0A57 34                 4055 	.db #0x34
   0A58 35                 4056 	.db #0x35
   0A59 32                 4057 	.db #0x32
   0A5A 36                 4058 	.db #0x36
   0A5B 37                 4059 	.db #0x37
   0A5C 38                 4060 	.db #0x38
   0A5D 39                 4061 	.db #0x39
   0A5E 00                 4062 	.db #0x00
   0A5F 00                 4063 	.db #0x00
   0A60 00                 4064 	.db #0x00
   0A61 00                 4065 	.db #0x00
   0A62 00                 4066 	.db #0x00
   0A63 00                 4067 	.db #0x00
   0A64 00                 4068 	.db #0x00
   0A65 00                 4069 	.db #0x00
   0A66 3A                 4070 	.db #0x3A
   0A67 3B                 4071 	.db #0x3B
   0A68 3C                 4072 	.db #0x3C
   0A69 3D                 4073 	.db #0x3D
   0A6A 3E                 4074 	.db #0x3E
   0A6B 3F                 4075 	.db #0x3F
   0A6C 40                 4076 	.db #0x40
   0A6D 3D                 4077 	.db #0x3D
   0A6E 41                 4078 	.db #0x41
   0A6F 42                 4079 	.db #0x42
   0A70 43                 4080 	.db #0x43
   0A71 44                 4081 	.db #0x44
   0A72 00                 4082 	.db #0x00
   0A73 00                 4083 	.db #0x00
   0A74 00                 4084 	.db #0x00
   0A75 00                 4085 	.db #0x00
   0A76 00                 4086 	.db #0x00
   0A77 00                 4087 	.db #0x00
   0A78 00                 4088 	.db #0x00
   0A79 00                 4089 	.db #0x00
   0A7A 00                 4090 	.db #0x00
   0A7B 00                 4091 	.db #0x00
   0A7C 00                 4092 	.db #0x00
   0A7D 00                 4093 	.db #0x00
   0A7E 00                 4094 	.db #0x00
   0A7F 00                 4095 	.db #0x00
   0A80 00                 4096 	.db #0x00
   0A81 00                 4097 	.db #0x00
   0A82 00                 4098 	.db #0x00
   0A83 00                 4099 	.db #0x00
   0A84 00                 4100 	.db #0x00
   0A85 00                 4101 	.db #0x00
   0A86 00                 4102 	.db #0x00
   0A87 00                 4103 	.db #0x00
   0A88 00                 4104 	.db #0x00
   0A89 00                 4105 	.db #0x00
   0A8A 00                 4106 	.db #0x00
   0A8B 00                 4107 	.db #0x00
   0A8C 00                 4108 	.db #0x00
   0A8D 00                 4109 	.db #0x00
   0A8E 00                 4110 	.db #0x00
   0A8F 00                 4111 	.db #0x00
   0A90 00                 4112 	.db #0x00
   0A91 00                 4113 	.db #0x00
   0A92 00                 4114 	.db #0x00
   0A93 00                 4115 	.db #0x00
   0A94 00                 4116 	.db #0x00
   0A95 00                 4117 	.db #0x00
   0A96 00                 4118 	.db #0x00
   0A97 00                 4119 	.db #0x00
   0A98 00                 4120 	.db #0x00
   0A99 00                 4121 	.db #0x00
   0A9A 00                 4122 	.db #0x00
   0A9B 00                 4123 	.db #0x00
   0A9C 00                 4124 	.db #0x00
   0A9D 00                 4125 	.db #0x00
   0A9E 00                 4126 	.db #0x00
   0A9F 00                 4127 	.db #0x00
   0AA0 00                 4128 	.db #0x00
   0AA1 00                 4129 	.db #0x00
   0AA2 00                 4130 	.db #0x00
   0AA3 00                 4131 	.db #0x00
   0AA4 00                 4132 	.db #0x00
   0AA5 00                 4133 	.db #0x00
   0AA6 00                 4134 	.db #0x00
   0AA7 00                 4135 	.db #0x00
   0AA8 00                 4136 	.db #0x00
   0AA9 00                 4137 	.db #0x00
   0AAA 00                 4138 	.db #0x00
   0AAB 00                 4139 	.db #0x00
   0AAC 00                 4140 	.db #0x00
   0AAD 00                 4141 	.db #0x00
   0AAE 00                 4142 	.db #0x00
   0AAF 00                 4143 	.db #0x00
   0AB0 00                 4144 	.db #0x00
   0AB1 00                 4145 	.db #0x00
   0AB2 00                 4146 	.db #0x00
   0AB3 00                 4147 	.db #0x00
   0AB4 00                 4148 	.db #0x00
   0AB5 00                 4149 	.db #0x00
   0AB6 00                 4150 	.db #0x00
   0AB7 00                 4151 	.db #0x00
   0AB8 00                 4152 	.db #0x00
   0AB9 00                 4153 	.db #0x00
   0ABA 00                 4154 	.db #0x00
   0ABB 00                 4155 	.db #0x00
   0ABC 00                 4156 	.db #0x00
   0ABD 00                 4157 	.db #0x00
   0ABE 00                 4158 	.db #0x00
   0ABF 00                 4159 	.db #0x00
   0AC0 00                 4160 	.db #0x00
   0AC1 00                 4161 	.db #0x00
   0AC2 00                 4162 	.db #0x00
   0AC3 00                 4163 	.db #0x00
   0AC4 00                 4164 	.db #0x00
   0AC5 00                 4165 	.db #0x00
   0AC6 00                 4166 	.db #0x00
   0AC7 00                 4167 	.db #0x00
   0AC8 00                 4168 	.db #0x00
   0AC9 00                 4169 	.db #0x00
   0ACA 00                 4170 	.db #0x00
   0ACB 00                 4171 	.db #0x00
   0ACC 00                 4172 	.db #0x00
   0ACD 00                 4173 	.db #0x00
   0ACE 00                 4174 	.db #0x00
   0ACF 00                 4175 	.db #0x00
   0AD0 00                 4176 	.db #0x00
   0AD1 00                 4177 	.db #0x00
   0AD2 00                 4178 	.db #0x00
   0AD3 00                 4179 	.db #0x00
   0AD4 00                 4180 	.db #0x00
   0AD5 00                 4181 	.db #0x00
   0AD6 00                 4182 	.db #0x00
   0AD7 00                 4183 	.db #0x00
   0AD8 00                 4184 	.db #0x00
   0AD9 00                 4185 	.db #0x00
   0ADA 00                 4186 	.db #0x00
   0ADB 00                 4187 	.db #0x00
   0ADC 00                 4188 	.db #0x00
   0ADD 45                 4189 	.db #0x45
   0ADE 46                 4190 	.db #0x46
   0ADF 00                 4191 	.db #0x00
   0AE0 00                 4192 	.db #0x00
   0AE1 00                 4193 	.db #0x00
   0AE2 00                 4194 	.db #0x00
   0AE3 00                 4195 	.db #0x00
   0AE4 47                 4196 	.db #0x47
   0AE5 48                 4197 	.db #0x48
   0AE6 49                 4198 	.db #0x49
   0AE7 00                 4199 	.db #0x00
   0AE8 00                 4200 	.db #0x00
   0AE9 00                 4201 	.db #0x00
   0AEA 4A                 4202 	.db #0x4A
   0AEB 00                 4203 	.db #0x00
   0AEC 00                 4204 	.db #0x00
   0AED 00                 4205 	.db #0x00
   0AEE 00                 4206 	.db #0x00
   0AEF 00                 4207 	.db #0x00
   0AF0 00                 4208 	.db #0x00
   0AF1 4B                 4209 	.db #0x4B
   0AF2 4C                 4210 	.db #0x4C
   0AF3 4D                 4211 	.db #0x4D
   0AF4 4E                 4212 	.db #0x4E
   0AF5 4F                 4213 	.db #0x4F
   0AF6 50                 4214 	.db #0x50
   0AF7 51                 4215 	.db #0x51
   0AF8 52                 4216 	.db #0x52
   0AF9 53                 4217 	.db #0x53
   0AFA 54                 4218 	.db #0x54
   0AFB 55                 4219 	.db #0x55
   0AFC 56                 4220 	.db #0x56
   0AFD 57                 4221 	.db #0x57
   0AFE 58                 4222 	.db #0x58
   0AFF 00                 4223 	.db #0x00
   0B00 00                 4224 	.db #0x00
   0B01 00                 4225 	.db #0x00
   0B02 00                 4226 	.db #0x00
   0B03 00                 4227 	.db #0x00
   0B04 00                 4228 	.db #0x00
   0B05 59                 4229 	.db #0x59
   0B06 5A                 4230 	.db #0x5A
   0B07 5B                 4231 	.db #0x5B
   0B08 5C                 4232 	.db #0x5C
   0B09 5D                 4233 	.db #0x5D
   0B0A 5E                 4234 	.db #0x5E
   0B0B 5F                 4235 	.db #0x5F
   0B0C 60                 4236 	.db #0x60
   0B0D 61                 4237 	.db #0x61
   0B0E 62                 4238 	.db #0x62
   0B0F 63                 4239 	.db #0x63
   0B10 64                 4240 	.db #0x64
   0B11 65                 4241 	.db #0x65
   0B12 66                 4242 	.db #0x66
   0B13 00                 4243 	.db #0x00
   0B14 00                 4244 	.db #0x00
   0B15 00                 4245 	.db #0x00
   0B16 00                 4246 	.db #0x00
   0B17 00                 4247 	.db #0x00
   0B18 00                 4248 	.db #0x00
   0B19 00                 4249 	.db #0x00
   0B1A 00                 4250 	.db #0x00
   0B1B 00                 4251 	.db #0x00
   0B1C 00                 4252 	.db #0x00
   0B1D 00                 4253 	.db #0x00
   0B1E 00                 4254 	.db #0x00
   0B1F 00                 4255 	.db #0x00
   0B20 00                 4256 	.db #0x00
   0B21 00                 4257 	.db #0x00
   0B22 00                 4258 	.db #0x00
   0B23 00                 4259 	.db #0x00
   0B24 00                 4260 	.db #0x00
   0B25 00                 4261 	.db #0x00
   0B26 00                 4262 	.db #0x00
   0B27 00                 4263 	.db #0x00
   0B28 00                 4264 	.db #0x00
   0B29 00                 4265 	.db #0x00
   0B2A                    4266 _credits_data:
   0B2A 00                 4267 	.db #0x00
   0B2B 00                 4268 	.db #0x00
   0B2C 00                 4269 	.db #0x00
   0B2D 00                 4270 	.db #0x00
   0B2E 00                 4271 	.db #0x00
   0B2F 00                 4272 	.db #0x00
   0B30 00                 4273 	.db #0x00
   0B31 00                 4274 	.db #0x00
   0B32 00                 4275 	.db #0x00
   0B33 00                 4276 	.db #0x00
   0B34 00                 4277 	.db #0x00
   0B35 00                 4278 	.db #0x00
   0B36 00                 4279 	.db #0x00
   0B37 00                 4280 	.db #0x00
   0B38 00                 4281 	.db #0x00
   0B39 00                 4282 	.db #0x00
   0B3A 00                 4283 	.db #0x00
   0B3B 00                 4284 	.db #0x00
   0B3C 00                 4285 	.db #0x00
   0B3D 00                 4286 	.db #0x00
   0B3E 01                 4287 	.db #0x01
   0B3F 03                 4288 	.db #0x03
   0B40 07                 4289 	.db #0x07
   0B41 07                 4290 	.db #0x07
   0B42 07                 4291 	.db #0x07
   0B43 0F                 4292 	.db #0x0F
   0B44 0F                 4293 	.db #0x0F
   0B45 1F                 4294 	.db #0x1F
   0B46 1F                 4295 	.db #0x1F
   0B47 1E                 4296 	.db #0x1E
   0B48 3E                 4297 	.db #0x3E
   0B49 1E                 4298 	.db #0x1E
   0B4A 00                 4299 	.db #0x00
   0B4B 00                 4300 	.db #0x00
   0B4C C4                 4301 	.db #0xC4
   0B4D 38                 4302 	.db #0x38
   0B4E FF                 4303 	.db #0xFF
   0B4F FE                 4304 	.db #0xFE
   0B50 FF                 4305 	.db #0xFF
   0B51 FF                 4306 	.db #0xFF
   0B52 C3                 4307 	.db #0xC3
   0B53 81                 4308 	.db #0x81
   0B54 81                 4309 	.db #0x81
   0B55 00                 4310 	.db #0x00
   0B56 00                 4311 	.db #0x00
   0B57 00                 4312 	.db #0x00
   0B58 00                 4313 	.db #0x00
   0B59 00                 4314 	.db #0x00
   0B5A 00                 4315 	.db #0x00
   0B5B 00                 4316 	.db #0x00
   0B5C E0                 4317 	.db #0xE0
   0B5D 60                 4318 	.db #0x60
   0B5E E0                 4319 	.db #0xE0
   0B5F 60                 4320 	.db #0x60
   0B60 E0                 4321 	.db #0xE0
   0B61 E0                 4322 	.db #0xE0
   0B62 E0                 4323 	.db #0xE0
   0B63 E0                 4324 	.db #0xE0
   0B64 E0                 4325 	.db #0xE0
   0B65 E0                 4326 	.db #0xE0
   0B66 60                 4327 	.db #0x60
   0B67 E0                 4328 	.db #0xE0
   0B68 00                 4329 	.db #0x00
   0B69 00                 4330 	.db #0x00
   0B6A 00                 4331 	.db #0x00
   0B6B 00                 4332 	.db #0x00
   0B6C 00                 4333 	.db #0x00
   0B6D 00                 4334 	.db #0x00
   0B6E 00                 4335 	.db #0x00
   0B6F 00                 4336 	.db #0x00
   0B70 00                 4337 	.db #0x00
   0B71 00                 4338 	.db #0x00
   0B72 00                 4339 	.db #0x00
   0B73 00                 4340 	.db #0x00
   0B74 00                 4341 	.db #0x00
   0B75 00                 4342 	.db #0x00
   0B76 62                 4343 	.db #0x62
   0B77 1C                 4344 	.db #0x1C
   0B78 7F                 4345 	.db #0x7F
   0B79 FF                 4346 	.db #0xFF
   0B7A 00                 4347 	.db #0x00
   0B7B 00                 4348 	.db #0x00
   0B7C 00                 4349 	.db #0x00
   0B7D 00                 4350 	.db #0x00
   0B7E 00                 4351 	.db #0x00
   0B7F 00                 4352 	.db #0x00
   0B80 00                 4353 	.db #0x00
   0B81 00                 4354 	.db #0x00
   0B82 00                 4355 	.db #0x00
   0B83 00                 4356 	.db #0x00
   0B84 00                 4357 	.db #0x00
   0B85 00                 4358 	.db #0x00
   0B86 01                 4359 	.db #0x01
   0B87 00                 4360 	.db #0x00
   0B88 03                 4361 	.db #0x03
   0B89 03                 4362 	.db #0x03
   0B8A 00                 4363 	.db #0x00
   0B8B 00                 4364 	.db #0x00
   0B8C 1F                 4365 	.db #0x1F
   0B8D 1F                 4366 	.db #0x1F
   0B8E 1F                 4367 	.db #0x1F
   0B8F 1F                 4368 	.db #0x1F
   0B90 1F                 4369 	.db #0x1F
   0B91 1F                 4370 	.db #0x1F
   0B92 0F                 4371 	.db #0x0F
   0B93 07                 4372 	.db #0x07
   0B94 0F                 4373 	.db #0x0F
   0B95 07                 4374 	.db #0x07
   0B96 2F                 4375 	.db #0x2F
   0B97 C7                 4376 	.db #0xC7
   0B98 FF                 4377 	.db #0xFF
   0B99 E7                 4378 	.db #0xE7
   0B9A 00                 4379 	.db #0x00
   0B9B 00                 4380 	.db #0x00
   0B9C 00                 4381 	.db #0x00
   0B9D 00                 4382 	.db #0x00
   0B9E 00                 4383 	.db #0x00
   0B9F 00                 4384 	.db #0x00
   0BA0 00                 4385 	.db #0x00
   0BA1 00                 4386 	.db #0x00
   0BA2 00                 4387 	.db #0x00
   0BA3 00                 4388 	.db #0x00
   0BA4 00                 4389 	.db #0x00
   0BA5 00                 4390 	.db #0x00
   0BA6 00                 4391 	.db #0x00
   0BA7 00                 4392 	.db #0x00
   0BA8 03                 4393 	.db #0x03
   0BA9 01                 4394 	.db #0x01
   0BAA 00                 4395 	.db #0x00
   0BAB 00                 4396 	.db #0x00
   0BAC 00                 4397 	.db #0x00
   0BAD 00                 4398 	.db #0x00
   0BAE 00                 4399 	.db #0x00
   0BAF 00                 4400 	.db #0x00
   0BB0 00                 4401 	.db #0x00
   0BB1 00                 4402 	.db #0x00
   0BB2 00                 4403 	.db #0x00
   0BB3 00                 4404 	.db #0x00
   0BB4 00                 4405 	.db #0x00
   0BB5 00                 4406 	.db #0x00
   0BB6 A8                 4407 	.db #0xA8
   0BB7 70                 4408 	.db #0x70
   0BB8 FC                 4409 	.db #0xFC
   0BB9 FC                 4410 	.db #0xFC
   0BBA 00                 4411 	.db #0x00
   0BBB 00                 4412 	.db #0x00
   0BBC 00                 4413 	.db #0x00
   0BBD 00                 4414 	.db #0x00
   0BBE 00                 4415 	.db #0x00
   0BBF 00                 4416 	.db #0x00
   0BC0 00                 4417 	.db #0x00
   0BC1 00                 4418 	.db #0x00
   0BC2 00                 4419 	.db #0x00
   0BC3 00                 4420 	.db #0x00
   0BC4 00                 4421 	.db #0x00
   0BC5 00                 4422 	.db #0x00
   0BC6 1F                 4423 	.db #0x1F
   0BC7 0E                 4424 	.db #0x0E
   0BC8 1F                 4425 	.db #0x1F
   0BC9 0E                 4426 	.db #0x0E
   0BCA 00                 4427 	.db #0x00
   0BCB 00                 4428 	.db #0x00
   0BCC 00                 4429 	.db #0x00
   0BCD 00                 4430 	.db #0x00
   0BCE 00                 4431 	.db #0x00
   0BCF 00                 4432 	.db #0x00
   0BD0 00                 4433 	.db #0x00
   0BD1 00                 4434 	.db #0x00
   0BD2 07                 4435 	.db #0x07
   0BD3 03                 4436 	.db #0x03
   0BD4 07                 4437 	.db #0x07
   0BD5 03                 4438 	.db #0x03
   0BD6 01                 4439 	.db #0x01
   0BD7 00                 4440 	.db #0x00
   0BD8 01                 4441 	.db #0x01
   0BD9 00                 4442 	.db #0x00
   0BDA 00                 4443 	.db #0x00
   0BDB 00                 4444 	.db #0x00
   0BDC 00                 4445 	.db #0x00
   0BDD 00                 4446 	.db #0x00
   0BDE 00                 4447 	.db #0x00
   0BDF 00                 4448 	.db #0x00
   0BE0 00                 4449 	.db #0x00
   0BE1 00                 4450 	.db #0x00
   0BE2 E0                 4451 	.db #0xE0
   0BE3 E0                 4452 	.db #0xE0
   0BE4 E0                 4453 	.db #0xE0
   0BE5 E0                 4454 	.db #0xE0
   0BE6 80                 4455 	.db #0x80
   0BE7 80                 4456 	.db #0x80
   0BE8 80                 4457 	.db #0x80
   0BE9 80                 4458 	.db #0x80
   0BEA 00                 4459 	.db #0x00
   0BEB 00                 4460 	.db #0x00
   0BEC 00                 4461 	.db #0x00
   0BED 00                 4462 	.db #0x00
   0BEE 00                 4463 	.db #0x00
   0BEF 00                 4464 	.db #0x00
   0BF0 00                 4465 	.db #0x00
   0BF1 00                 4466 	.db #0x00
   0BF2 1E                 4467 	.db #0x1E
   0BF3 0E                 4468 	.db #0x0E
   0BF4 1E                 4469 	.db #0x1E
   0BF5 0E                 4470 	.db #0x0E
   0BF6 06                 4471 	.db #0x06
   0BF7 02                 4472 	.db #0x02
   0BF8 06                 4473 	.db #0x06
   0BF9 02                 4474 	.db #0x02
   0BFA 3E                 4475 	.db #0x3E
   0BFB 1E                 4476 	.db #0x1E
   0BFC 3E                 4477 	.db #0x3E
   0BFD 1E                 4478 	.db #0x1E
   0BFE 3E                 4479 	.db #0x3E
   0BFF 1E                 4480 	.db #0x1E
   0C00 3E                 4481 	.db #0x3E
   0C01 1E                 4482 	.db #0x1E
   0C02 1F                 4483 	.db #0x1F
   0C03 1E                 4484 	.db #0x1E
   0C04 0F                 4485 	.db #0x0F
   0C05 1F                 4486 	.db #0x1F
   0C06 0F                 4487 	.db #0x0F
   0C07 0F                 4488 	.db #0x0F
   0C08 0F                 4489 	.db #0x0F
   0C09 07                 4490 	.db #0x07
   0C0A 00                 4491 	.db #0x00
   0C0B 00                 4492 	.db #0x00
   0C0C 00                 4493 	.db #0x00
   0C0D 00                 4494 	.db #0x00
   0C0E 00                 4495 	.db #0x00
   0C0F 00                 4496 	.db #0x00
   0C10 00                 4497 	.db #0x00
   0C11 00                 4498 	.db #0x00
   0C12 00                 4499 	.db #0x00
   0C13 00                 4500 	.db #0x00
   0C14 01                 4501 	.db #0x01
   0C15 00                 4502 	.db #0x00
   0C16 C1                 4503 	.db #0xC1
   0C17 83                 4504 	.db #0x83
   0C18 FF                 4505 	.db #0xFF
   0C19 FF                 4506 	.db #0xFF
   0C1A 00                 4507 	.db #0x00
   0C1B 01                 4508 	.db #0x01
   0C1C 03                 4509 	.db #0x03
   0C1D 01                 4510 	.db #0x01
   0C1E 01                 4511 	.db #0x01
   0C1F 03                 4512 	.db #0x03
   0C20 C3                 4513 	.db #0xC3
   0C21 03                 4514 	.db #0x03
   0C22 F3                 4515 	.db #0xF3
   0C23 E3                 4516 	.db #0xE3
   0C24 E1                 4517 	.db #0xE1
   0C25 E3                 4518 	.db #0xE3
   0C26 C3                 4519 	.db #0xC3
   0C27 E1                 4520 	.db #0xE1
   0C28 80                 4521 	.db #0x80
   0C29 C1                 4522 	.db #0xC1
   0C2A FF                 4523 	.db #0xFF
   0C2B FF                 4524 	.db #0xFF
   0C2C E7                 4525 	.db #0xE7
   0C2D C3                 4526 	.db #0xC3
   0C2E C3                 4527 	.db #0xC3
   0C2F C1                 4528 	.db #0xC1
   0C30 83                 4529 	.db #0x83
   0C31 C1                 4530 	.db #0xC1
   0C32 83                 4531 	.db #0x83
   0C33 C1                 4532 	.db #0xC1
   0C34 C3                 4533 	.db #0xC3
   0C35 C1                 4534 	.db #0xC1
   0C36 E7                 4535 	.db #0xE7
   0C37 C3                 4536 	.db #0xC3
   0C38 FF                 4537 	.db #0xFF
   0C39 FF                 4538 	.db #0xFF
   0C3A 83                 4539 	.db #0x83
   0C3B 87                 4540 	.db #0x87
   0C3C 8F                 4541 	.db #0x8F
   0C3D C7                 4542 	.db #0xC7
   0C3E C7                 4543 	.db #0xC7
   0C3F CF                 4544 	.db #0xCF
   0C40 CE                 4545 	.db #0xCE
   0C41 CF                 4546 	.db #0xCF
   0C42 CE                 4547 	.db #0xCE
   0C43 CF                 4548 	.db #0xCF
   0C44 C7                 4549 	.db #0xC7
   0C45 CF                 4550 	.db #0xCF
   0C46 8F                 4551 	.db #0x8F
   0C47 C7                 4552 	.db #0xC7
   0C48 83                 4553 	.db #0x83
   0C49 87                 4554 	.db #0x87
   0C4A F7                 4555 	.db #0xF7
   0C4B FF                 4556 	.db #0xFF
   0C4C 9F                 4557 	.db #0x9F
   0C4D 0F                 4558 	.db #0x0F
   0C4E 0F                 4559 	.db #0x0F
   0C4F 07                 4560 	.db #0x07
   0C50 0F                 4561 	.db #0x0F
   0C51 07                 4562 	.db #0x07
   0C52 0F                 4563 	.db #0x0F
   0C53 07                 4564 	.db #0x07
   0C54 0F                 4565 	.db #0x0F
   0C55 07                 4566 	.db #0x07
   0C56 9F                 4567 	.db #0x9F
   0C57 0F                 4568 	.db #0x0F
   0C58 FF                 4569 	.db #0xFF
   0C59 FF                 4570 	.db #0xFF
   0C5A 07                 4571 	.db #0x07
   0C5B 03                 4572 	.db #0x03
   0C5C 0F                 4573 	.db #0x0F
   0C5D 07                 4574 	.db #0x07
   0C5E 0E                 4575 	.db #0x0E
   0C5F 07                 4576 	.db #0x07
   0C60 0F                 4577 	.db #0x0F
   0C61 0F                 4578 	.db #0x0F
   0C62 0F                 4579 	.db #0x0F
   0C63 0F                 4580 	.db #0x0F
   0C64 07                 4581 	.db #0x07
   0C65 0E                 4582 	.db #0x0E
   0C66 0F                 4583 	.db #0x0F
   0C67 07                 4584 	.db #0x07
   0C68 C3                 4585 	.db #0xC3
   0C69 C7                 4586 	.db #0xC7
   0C6A 9E                 4587 	.db #0x9E
   0C6B 0E                 4588 	.db #0x0E
   0C6C 0E                 4589 	.db #0x0E
   0C6D 07                 4590 	.db #0x07
   0C6E 0F                 4591 	.db #0x0F
   0C6F 07                 4592 	.db #0x07
   0C70 FF                 4593 	.db #0xFF
   0C71 FF                 4594 	.db #0xFF
   0C72 FF                 4595 	.db #0xFF
   0C73 FF                 4596 	.db #0xFF
   0C74 00                 4597 	.db #0x00
   0C75 00                 4598 	.db #0x00
   0C76 00                 4599 	.db #0x00
   0C77 00                 4600 	.db #0x00
   0C78 0B                 4601 	.db #0x0B
   0C79 84                 4602 	.db #0x84
   0C7A 1F                 4603 	.db #0x1F
   0C7B 0E                 4604 	.db #0x0E
   0C7C 1F                 4605 	.db #0x1F
   0C7D 0E                 4606 	.db #0x0E
   0C7E 00                 4607 	.db #0x00
   0C7F 00                 4608 	.db #0x00
   0C80 00                 4609 	.db #0x00
   0C81 00                 4610 	.db #0x00
   0C82 80                 4611 	.db #0x80
   0C83 00                 4612 	.db #0x00
   0C84 00                 4613 	.db #0x00
   0C85 00                 4614 	.db #0x00
   0C86 1F                 4615 	.db #0x1F
   0C87 0E                 4616 	.db #0x0E
   0C88 1F                 4617 	.db #0x1F
   0C89 0E                 4618 	.db #0x0E
   0C8A 01                 4619 	.db #0x01
   0C8B 00                 4620 	.db #0x00
   0C8C 01                 4621 	.db #0x01
   0C8D 00                 4622 	.db #0x00
   0C8E 01                 4623 	.db #0x01
   0C8F 00                 4624 	.db #0x00
   0C90 01                 4625 	.db #0x01
   0C91 00                 4626 	.db #0x00
   0C92 01                 4627 	.db #0x01
   0C93 00                 4628 	.db #0x00
   0C94 01                 4629 	.db #0x01
   0C95 00                 4630 	.db #0x00
   0C96 01                 4631 	.db #0x01
   0C97 00                 4632 	.db #0x00
   0C98 01                 4633 	.db #0x01
   0C99 00                 4634 	.db #0x00
   0C9A 82                 4635 	.db #0x82
   0C9B 81                 4636 	.db #0x81
   0C9C 87                 4637 	.db #0x87
   0C9D 87                 4638 	.db #0x87
   0C9E 8A                 4639 	.db #0x8A
   0C9F 84                 4640 	.db #0x84
   0CA0 80                 4641 	.db #0x80
   0CA1 80                 4642 	.db #0x80
   0CA2 84                 4643 	.db #0x84
   0CA3 83                 4644 	.db #0x83
   0CA4 8F                 4645 	.db #0x8F
   0CA5 87                 4646 	.db #0x87
   0CA6 80                 4647 	.db #0x80
   0CA7 8C                 4648 	.db #0x8C
   0CA8 80                 4649 	.db #0x80
   0CA9 8C                 4650 	.db #0x8C
   0CAA 40                 4651 	.db #0x40
   0CAB 80                 4652 	.db #0x80
   0CAC E0                 4653 	.db #0xE0
   0CAD E0                 4654 	.db #0xE0
   0CAE 71                 4655 	.db #0x71
   0CAF 20                 4656 	.db #0x20
   0CB0 31                 4657 	.db #0x31
   0CB1 21                 4658 	.db #0x21
   0CB2 F1                 4659 	.db #0xF1
   0CB3 21                 4660 	.db #0x21
   0CB4 F1                 4661 	.db #0xF1
   0CB5 E1                 4662 	.db #0xE1
   0CB6 71                 4663 	.db #0x71
   0CB7 21                 4664 	.db #0x21
   0CB8 31                 4665 	.db #0x31
   0CB9 20                 4666 	.db #0x20
   0CBA 4B                 4667 	.db #0x4B
   0CBB 32                 4668 	.db #0x32
   0CBC 7F                 4669 	.db #0x7F
   0CBD FE                 4670 	.db #0xFE
   0CBE C7                 4671 	.db #0xC7
   0CBF 82                 4672 	.db #0x82
   0CC0 03                 4673 	.db #0x03
   0CC1 82                 4674 	.db #0x82
   0CC2 80                 4675 	.db #0x80
   0CC3 00                 4676 	.db #0x00
   0CC4 80                 4677 	.db #0x80
   0CC5 00                 4678 	.db #0x00
   0CC6 83                 4679 	.db #0x83
   0CC7 80                 4680 	.db #0x80
   0CC8 87                 4681 	.db #0x87
   0CC9 C2                 4682 	.db #0xC2
   0CCA 11                 4683 	.db #0x11
   0CCB 0E                 4684 	.db #0x0E
   0CCC 3F                 4685 	.db #0x3F
   0CCD 1F                 4686 	.db #0x1F
   0CCE 61                 4687 	.db #0x61
   0CCF 30                 4688 	.db #0x30
   0CD0 20                 4689 	.db #0x20
   0CD1 60                 4690 	.db #0x60
   0CD2 60                 4691 	.db #0x60
   0CD3 40                 4692 	.db #0x40
   0CD4 60                 4693 	.db #0x60
   0CD5 40                 4694 	.db #0x40
   0CD6 60                 4695 	.db #0x60
   0CD7 60                 4696 	.db #0x60
   0CD8 61                 4697 	.db #0x61
   0CD9 30                 4698 	.db #0x30
   0CDA 06                 4699 	.db #0x06
   0CDB 02                 4700 	.db #0x02
   0CDC 87                 4701 	.db #0x87
   0CDD 82                 4702 	.db #0x82
   0CDE 87                 4703 	.db #0x87
   0CDF C3                 4704 	.db #0xC3
   0CE0 E7                 4705 	.db #0xE7
   0CE1 42                 4706 	.db #0x42
   0CE2 66                 4707 	.db #0x66
   0CE3 42                 4708 	.db #0x42
   0CE4 66                 4709 	.db #0x66
   0CE5 42                 4710 	.db #0x42
   0CE6 E7                 4711 	.db #0xE7
   0CE7 42                 4712 	.db #0x42
   0CE8 87                 4713 	.db #0x87
   0CE9 C3                 4714 	.db #0xC3
   0CEA A8                 4715 	.db #0xA8
   0CEB 70                 4716 	.db #0x70
   0CEC FC                 4717 	.db #0xFC
   0CED F8                 4718 	.db #0xF8
   0CEE 86                 4719 	.db #0x86
   0CEF 0C                 4720 	.db #0x0C
   0CF0 04                 4721 	.db #0x04
   0CF1 06                 4722 	.db #0x06
   0CF2 02                 4723 	.db #0x02
   0CF3 06                 4724 	.db #0x06
   0CF4 06                 4725 	.db #0x06
   0CF5 06                 4726 	.db #0x06
   0CF6 06                 4727 	.db #0x06
   0CF7 04                 4728 	.db #0x04
   0CF8 86                 4729 	.db #0x86
   0CF9 0C                 4730 	.db #0x0C
   0CFA 01                 4731 	.db #0x01
   0CFB 03                 4732 	.db #0x03
   0CFC 00                 4733 	.db #0x00
   0CFD 00                 4734 	.db #0x00
   0CFE 00                 4735 	.db #0x00
   0CFF 00                 4736 	.db #0x00
   0D00 00                 4737 	.db #0x00
   0D01 00                 4738 	.db #0x00
   0D02 00                 4739 	.db #0x00
   0D03 00                 4740 	.db #0x00
   0D04 00                 4741 	.db #0x00
   0D05 00                 4742 	.db #0x00
   0D06 00                 4743 	.db #0x00
   0D07 00                 4744 	.db #0x00
   0D08 00                 4745 	.db #0x00
   0D09 00                 4746 	.db #0x00
   0D0A FF                 4747 	.db #0xFF
   0D0B FF                 4748 	.db #0xFF
   0D0C 96                 4749 	.db #0x96
   0D0D 78                 4750 	.db #0x78
   0D0E 00                 4751 	.db #0x00
   0D0F 00                 4752 	.db #0x00
   0D10 00                 4753 	.db #0x00
   0D11 00                 4754 	.db #0x00
   0D12 00                 4755 	.db #0x00
   0D13 00                 4756 	.db #0x00
   0D14 00                 4757 	.db #0x00
   0D15 00                 4758 	.db #0x00
   0D16 00                 4759 	.db #0x00
   0D17 00                 4760 	.db #0x00
   0D18 00                 4761 	.db #0x00
   0D19 00                 4762 	.db #0x00
   0D1A 80                 4763 	.db #0x80
   0D1B 00                 4764 	.db #0x00
   0D1C 00                 4765 	.db #0x00
   0D1D 00                 4766 	.db #0x00
   0D1E 00                 4767 	.db #0x00
   0D1F 00                 4768 	.db #0x00
   0D20 00                 4769 	.db #0x00
   0D21 00                 4770 	.db #0x00
   0D22 00                 4771 	.db #0x00
   0D23 00                 4772 	.db #0x00
   0D24 00                 4773 	.db #0x00
   0D25 00                 4774 	.db #0x00
   0D26 00                 4775 	.db #0x00
   0D27 00                 4776 	.db #0x00
   0D28 00                 4777 	.db #0x00
   0D29 00                 4778 	.db #0x00
   0D2A 7F                 4779 	.db #0x7F
   0D2B FF                 4780 	.db #0xFF
   0D2C 6A                 4781 	.db #0x6A
   0D2D 1C                 4782 	.db #0x1C
   0D2E 00                 4783 	.db #0x00
   0D2F 00                 4784 	.db #0x00
   0D30 00                 4785 	.db #0x00
   0D31 00                 4786 	.db #0x00
   0D32 00                 4787 	.db #0x00
   0D33 00                 4788 	.db #0x00
   0D34 00                 4789 	.db #0x00
   0D35 00                 4790 	.db #0x00
   0D36 00                 4791 	.db #0x00
   0D37 00                 4792 	.db #0x00
   0D38 00                 4793 	.db #0x00
   0D39 00                 4794 	.db #0x00
   0D3A 03                 4795 	.db #0x03
   0D3B 03                 4796 	.db #0x03
   0D3C 01                 4797 	.db #0x01
   0D3D 00                 4798 	.db #0x00
   0D3E 00                 4799 	.db #0x00
   0D3F 00                 4800 	.db #0x00
   0D40 00                 4801 	.db #0x00
   0D41 00                 4802 	.db #0x00
   0D42 00                 4803 	.db #0x00
   0D43 00                 4804 	.db #0x00
   0D44 00                 4805 	.db #0x00
   0D45 00                 4806 	.db #0x00
   0D46 00                 4807 	.db #0x00
   0D47 00                 4808 	.db #0x00
   0D48 00                 4809 	.db #0x00
   0D49 00                 4810 	.db #0x00
   0D4A EF                 4811 	.db #0xEF
   0D4B F7                 4812 	.db #0xF7
   0D4C 2F                 4813 	.db #0x2F
   0D4D C7                 4814 	.db #0xC7
   0D4E 00                 4815 	.db #0x00
   0D4F 00                 4816 	.db #0x00
   0D50 00                 4817 	.db #0x00
   0D51 00                 4818 	.db #0x00
   0D52 00                 4819 	.db #0x00
   0D53 00                 4820 	.db #0x00
   0D54 00                 4821 	.db #0x00
   0D55 00                 4822 	.db #0x00
   0D56 00                 4823 	.db #0x00
   0D57 00                 4824 	.db #0x00
   0D58 00                 4825 	.db #0x00
   0D59 00                 4826 	.db #0x00
   0D5A C1                 4827 	.db #0xC1
   0D5B C3                 4828 	.db #0xC3
   0D5C C1                 4829 	.db #0xC1
   0D5D C0                 4830 	.db #0xC0
   0D5E 00                 4831 	.db #0x00
   0D5F 00                 4832 	.db #0x00
   0D60 00                 4833 	.db #0x00
   0D61 00                 4834 	.db #0x00
   0D62 00                 4835 	.db #0x00
   0D63 00                 4836 	.db #0x00
   0D64 00                 4837 	.db #0x00
   0D65 00                 4838 	.db #0x00
   0D66 00                 4839 	.db #0x00
   0D67 00                 4840 	.db #0x00
   0D68 00                 4841 	.db #0x00
   0D69 00                 4842 	.db #0x00
   0D6A FF                 4843 	.db #0xFF
   0D6B FE                 4844 	.db #0xFE
   0D6C AC                 4845 	.db #0xAC
   0D6D 70                 4846 	.db #0x70
   0D6E 00                 4847 	.db #0x00
   0D6F 00                 4848 	.db #0x00
   0D70 00                 4849 	.db #0x00
   0D71 00                 4850 	.db #0x00
   0D72 00                 4851 	.db #0x00
   0D73 00                 4852 	.db #0x00
   0D74 00                 4853 	.db #0x00
   0D75 00                 4854 	.db #0x00
   0D76 00                 4855 	.db #0x00
   0D77 00                 4856 	.db #0x00
   0D78 00                 4857 	.db #0x00
   0D79 00                 4858 	.db #0x00
   0D7A 1F                 4859 	.db #0x1F
   0D7B 0E                 4860 	.db #0x0E
   0D7C 1F                 4861 	.db #0x1F
   0D7D 0E                 4862 	.db #0x0E
   0D7E 00                 4863 	.db #0x00
   0D7F 00                 4864 	.db #0x00
   0D80 00                 4865 	.db #0x00
   0D81 00                 4866 	.db #0x00
   0D82 00                 4867 	.db #0x00
   0D83 00                 4868 	.db #0x00
   0D84 00                 4869 	.db #0x00
   0D85 00                 4870 	.db #0x00
   0D86 00                 4871 	.db #0x00
   0D87 00                 4872 	.db #0x00
   0D88 00                 4873 	.db #0x00
   0D89 00                 4874 	.db #0x00
   0D8A 01                 4875 	.db #0x01
   0D8B 00                 4876 	.db #0x00
   0D8C 01                 4877 	.db #0x01
   0D8D 00                 4878 	.db #0x00
   0D8E 00                 4879 	.db #0x00
   0D8F 01                 4880 	.db #0x01
   0D90 01                 4881 	.db #0x01
   0D91 01                 4882 	.db #0x01
   0D92 0F                 4883 	.db #0x0F
   0D93 07                 4884 	.db #0x07
   0D94 09                 4885 	.db #0x09
   0D95 06                 4886 	.db #0x06
   0D96 00                 4887 	.db #0x00
   0D97 00                 4888 	.db #0x00
   0D98 00                 4889 	.db #0x00
   0D99 00                 4890 	.db #0x00
   0D9A 8F                 4891 	.db #0x8F
   0D9B 87                 4892 	.db #0x87
   0D9C 84                 4893 	.db #0x84
   0D9D 83                 4894 	.db #0x83
   0D9E 80                 4895 	.db #0x80
   0D9F 80                 4896 	.db #0x80
   0DA0 80                 4897 	.db #0x80
   0DA1 80                 4898 	.db #0x80
   0DA2 80                 4899 	.db #0x80
   0DA3 00                 4900 	.db #0x00
   0DA4 00                 4901 	.db #0x00
   0DA5 00                 4902 	.db #0x00
   0DA6 00                 4903 	.db #0x00
   0DA7 00                 4904 	.db #0x00
   0DA8 00                 4905 	.db #0x00
   0DA9 00                 4906 	.db #0x00
   0DAA F8                 4907 	.db #0xF8
   0DAB F8                 4908 	.db #0xF8
   0DAC 98                 4909 	.db #0x98
   0DAD 38                 4910 	.db #0x38
   0DAE 00                 4911 	.db #0x00
   0DAF 00                 4912 	.db #0x00
   0DB0 00                 4913 	.db #0x00
   0DB1 00                 4914 	.db #0x00
   0DB2 00                 4915 	.db #0x00
   0DB3 00                 4916 	.db #0x00
   0DB4 00                 4917 	.db #0x00
   0DB5 00                 4918 	.db #0x00
   0DB6 00                 4919 	.db #0x00
   0DB7 00                 4920 	.db #0x00
   0DB8 00                 4921 	.db #0x00
   0DB9 00                 4922 	.db #0x00
   0DBA 7E                 4923 	.db #0x7E
   0DBB FC                 4924 	.db #0xFC
   0DBC 54                 4925 	.db #0x54
   0DBD 38                 4926 	.db #0x38
   0DBE 00                 4927 	.db #0x00
   0DBF 00                 4928 	.db #0x00
   0DC0 00                 4929 	.db #0x00
   0DC1 00                 4930 	.db #0x00
   0DC2 00                 4931 	.db #0x00
   0DC3 00                 4932 	.db #0x00
   0DC4 00                 4933 	.db #0x00
   0DC5 00                 4934 	.db #0x00
   0DC6 00                 4935 	.db #0x00
   0DC7 00                 4936 	.db #0x00
   0DC8 00                 4937 	.db #0x00
   0DC9 00                 4938 	.db #0x00
   0DCA 3F                 4939 	.db #0x3F
   0DCB 1F                 4940 	.db #0x1F
   0DCC 15                 4941 	.db #0x15
   0DCD 0E                 4942 	.db #0x0E
   0DCE 00                 4943 	.db #0x00
   0DCF 00                 4944 	.db #0x00
   0DD0 00                 4945 	.db #0x00
   0DD1 00                 4946 	.db #0x00
   0DD2 00                 4947 	.db #0x00
   0DD3 00                 4948 	.db #0x00
   0DD4 00                 4949 	.db #0x00
   0DD5 00                 4950 	.db #0x00
   0DD6 00                 4951 	.db #0x00
   0DD7 00                 4952 	.db #0x00
   0DD8 00                 4953 	.db #0x00
   0DD9 00                 4954 	.db #0x00
   0DDA 9E                 4955 	.db #0x9E
   0DDB 8F                 4956 	.db #0x8F
   0DDC 1E                 4957 	.db #0x1E
   0DDD 0E                 4958 	.db #0x0E
   0DDE 00                 4959 	.db #0x00
   0DDF 00                 4960 	.db #0x00
   0DE0 00                 4961 	.db #0x00
   0DE1 00                 4962 	.db #0x00
   0DE2 00                 4963 	.db #0x00
   0DE3 00                 4964 	.db #0x00
   0DE4 00                 4965 	.db #0x00
   0DE5 00                 4966 	.db #0x00
   0DE6 00                 4967 	.db #0x00
   0DE7 00                 4968 	.db #0x00
   0DE8 00                 4969 	.db #0x00
   0DE9 00                 4970 	.db #0x00
   0DEA FC                 4971 	.db #0xFC
   0DEB F8                 4972 	.db #0xF8
   0DEC A8                 4973 	.db #0xA8
   0DED 70                 4974 	.db #0x70
   0DEE 00                 4975 	.db #0x00
   0DEF 00                 4976 	.db #0x00
   0DF0 00                 4977 	.db #0x00
   0DF1 00                 4978 	.db #0x00
   0DF2 00                 4979 	.db #0x00
   0DF3 00                 4980 	.db #0x00
   0DF4 00                 4981 	.db #0x00
   0DF5 00                 4982 	.db #0x00
   0DF6 00                 4983 	.db #0x00
   0DF7 00                 4984 	.db #0x00
   0DF8 00                 4985 	.db #0x00
   0DF9 00                 4986 	.db #0x00
   0DFA 00                 4987 	.db #0x00
   0DFB 00                 4988 	.db #0x00
   0DFC 00                 4989 	.db #0x00
   0DFD 00                 4990 	.db #0x00
   0DFE 00                 4991 	.db #0x00
   0DFF 00                 4992 	.db #0x00
   0E00 00                 4993 	.db #0x00
   0E01 00                 4994 	.db #0x00
   0E02 00                 4995 	.db #0x00
   0E03 00                 4996 	.db #0x00
   0E04 00                 4997 	.db #0x00
   0E05 00                 4998 	.db #0x00
   0E06 01                 4999 	.db #0x01
   0E07 03                 5000 	.db #0x03
   0E08 01                 5001 	.db #0x01
   0E09 03                 5002 	.db #0x03
   0E0A 00                 5003 	.db #0x00
   0E0B 00                 5004 	.db #0x00
   0E0C 00                 5005 	.db #0x00
   0E0D 00                 5006 	.db #0x00
   0E0E 00                 5007 	.db #0x00
   0E0F 00                 5008 	.db #0x00
   0E10 00                 5009 	.db #0x00
   0E11 00                 5010 	.db #0x00
   0E12 00                 5011 	.db #0x00
   0E13 00                 5012 	.db #0x00
   0E14 00                 5013 	.db #0x00
   0E15 00                 5014 	.db #0x00
   0E16 FF                 5015 	.db #0xFF
   0E17 FF                 5016 	.db #0xFF
   0E18 FF                 5017 	.db #0xFF
   0E19 FF                 5018 	.db #0xFF
   0E1A 00                 5019 	.db #0x00
   0E1B 00                 5020 	.db #0x00
   0E1C 00                 5021 	.db #0x00
   0E1D 00                 5022 	.db #0x00
   0E1E 00                 5023 	.db #0x00
   0E1F 00                 5024 	.db #0x00
   0E20 00                 5025 	.db #0x00
   0E21 00                 5026 	.db #0x00
   0E22 00                 5027 	.db #0x00
   0E23 00                 5028 	.db #0x00
   0E24 00                 5029 	.db #0x00
   0E25 00                 5030 	.db #0x00
   0E26 80                 5031 	.db #0x80
   0E27 80                 5032 	.db #0x80
   0E28 80                 5033 	.db #0x80
   0E29 80                 5034 	.db #0x80
   0E2A 00                 5035 	.db #0x00
   0E2B 00                 5036 	.db #0x00
   0E2C 00                 5037 	.db #0x00
   0E2D 00                 5038 	.db #0x00
   0E2E 00                 5039 	.db #0x00
   0E2F 00                 5040 	.db #0x00
   0E30 00                 5041 	.db #0x00
   0E31 00                 5042 	.db #0x00
   0E32 00                 5043 	.db #0x00
   0E33 00                 5044 	.db #0x00
   0E34 00                 5045 	.db #0x00
   0E35 00                 5046 	.db #0x00
   0E36 02                 5047 	.db #0x02
   0E37 00                 5048 	.db #0x00
   0E38 02                 5049 	.db #0x02
   0E39 04                 5050 	.db #0x04
   0E3A 01                 5051 	.db #0x01
   0E3B 03                 5052 	.db #0x03
   0E3C 00                 5053 	.db #0x00
   0E3D 00                 5054 	.db #0x00
   0E3E 00                 5055 	.db #0x00
   0E3F 00                 5056 	.db #0x00
   0E40 00                 5057 	.db #0x00
   0E41 00                 5058 	.db #0x00
   0E42 01                 5059 	.db #0x01
   0E43 00                 5060 	.db #0x00
   0E44 00                 5061 	.db #0x00
   0E45 01                 5062 	.db #0x01
   0E46 01                 5063 	.db #0x01
   0E47 01                 5064 	.db #0x01
   0E48 03                 5065 	.db #0x03
   0E49 01                 5066 	.db #0x01
   0E4A FF                 5067 	.db #0xFF
   0E4B FF                 5068 	.db #0xFF
   0E4C FE                 5069 	.db #0xFE
   0E4D 7E                 5070 	.db #0x7E
   0E4E EE                 5071 	.db #0xEE
   0E4F FE                 5072 	.db #0xFE
   0E50 CF                 5073 	.db #0xCF
   0E51 EE                 5074 	.db #0xEE
   0E52 E6                 5075 	.db #0xE6
   0E53 CF                 5076 	.db #0xCF
   0E54 CF                 5077 	.db #0xCF
   0E55 C7                 5078 	.db #0xC7
   0E56 87                 5079 	.db #0x87
   0E57 C7                 5080 	.db #0xC7
   0E58 FF                 5081 	.db #0xFF
   0E59 FF                 5082 	.db #0xFF
   0E5A 80                 5083 	.db #0x80
   0E5B 80                 5084 	.db #0x80
   0E5C 00                 5085 	.db #0x00
   0E5D 00                 5086 	.db #0x00
   0E5E 00                 5087 	.db #0x00
   0E5F 00                 5088 	.db #0x00
   0E60 07                 5089 	.db #0x07
   0E61 07                 5090 	.db #0x07
   0E62 07                 5091 	.db #0x07
   0E63 07                 5092 	.db #0x07
   0E64 07                 5093 	.db #0x07
   0E65 07                 5094 	.db #0x07
   0E66 81                 5095 	.db #0x81
   0E67 01                 5096 	.db #0x01
   0E68 01                 5097 	.db #0x01
   0E69 81                 5098 	.db #0x81
   0E6A 00                 5099 	.db #0x00
   0E6B 00                 5100 	.db #0x00
   0E6C 00                 5101 	.db #0x00
   0E6D 00                 5102 	.db #0x00
   0E6E 00                 5103 	.db #0x00
   0E6F 00                 5104 	.db #0x00
   0E70 CA                 5105 	.db #0xCA
   0E71 C6                 5106 	.db #0xC6
   0E72 DE                 5107 	.db #0xDE
   0E73 CE                 5108 	.db #0xCE
   0E74 FE                 5109 	.db #0xFE
   0E75 DE                 5110 	.db #0xDE
   0E76 FE                 5111 	.db #0xFE
   0E77 FE                 5112 	.db #0xFE
   0E78 E0                 5113 	.db #0xE0
   0E79 F0                 5114 	.db #0xF0
   0E7A 06                 5115 	.db #0x06
   0E7B 0C                 5116 	.db #0x0C
   0E7C 1E                 5117 	.db #0x1E
   0E7D 1C                 5118 	.db #0x1C
   0E7E 1E                 5119 	.db #0x1E
   0E7F 1C                 5120 	.db #0x1C
   0E80 7F                 5121 	.db #0x7F
   0E81 3F                 5122 	.db #0x3F
   0E82 7F                 5123 	.db #0x7F
   0E83 3F                 5124 	.db #0x3F
   0E84 7F                 5125 	.db #0x7F
   0E85 3F                 5126 	.db #0x3F
   0E86 1E                 5127 	.db #0x1E
   0E87 1C                 5128 	.db #0x1C
   0E88 1E                 5129 	.db #0x1E
   0E89 1C                 5130 	.db #0x1C
   0E8A 00                 5131 	.db #0x00
   0E8B 00                 5132 	.db #0x00
   0E8C 00                 5133 	.db #0x00
   0E8D 00                 5134 	.db #0x00
   0E8E 00                 5135 	.db #0x00
   0E8F 00                 5136 	.db #0x00
   0E90 0F                 5137 	.db #0x0F
   0E91 87                 5138 	.db #0x87
   0E92 0F                 5139 	.db #0x0F
   0E93 87                 5140 	.db #0x87
   0E94 0F                 5141 	.db #0x0F
   0E95 87                 5142 	.db #0x87
   0E96 0F                 5143 	.db #0x0F
   0E97 07                 5144 	.db #0x07
   0E98 00                 5145 	.db #0x00
   0E99 00                 5146 	.db #0x00
   0E9A 00                 5147 	.db #0x00
   0E9B 00                 5148 	.db #0x00
   0E9C 03                 5149 	.db #0x03
   0E9D 07                 5150 	.db #0x07
   0E9E 03                 5151 	.db #0x03
   0E9F 07                 5152 	.db #0x07
   0EA0 80                 5153 	.db #0x80
   0EA1 01                 5154 	.db #0x01
   0EA2 80                 5155 	.db #0x80
   0EA3 01                 5156 	.db #0x01
   0EA4 80                 5157 	.db #0x80
   0EA5 01                 5158 	.db #0x01
   0EA6 80                 5159 	.db #0x80
   0EA7 01                 5160 	.db #0x01
   0EA8 00                 5161 	.db #0x00
   0EA9 01                 5162 	.db #0x01
   0EAA 00                 5163 	.db #0x00
   0EAB 00                 5164 	.db #0x00
   0EAC 83                 5165 	.db #0x83
   0EAD C3                 5166 	.db #0xC3
   0EAE E3                 5167 	.db #0xE3
   0EAF C3                 5168 	.db #0xC3
   0EB0 60                 5169 	.db #0x60
   0EB1 E0                 5170 	.db #0xE0
   0EB2 F0                 5171 	.db #0xF0
   0EB3 20                 5172 	.db #0x20
   0EB4 90                 5173 	.db #0x90
   0EB5 30                 5174 	.db #0x30
   0EB6 B8                 5175 	.db #0xB8
   0EB7 10                 5176 	.db #0x10
   0EB8 88                 5177 	.db #0x88
   0EB9 18                 5178 	.db #0x18
   0EBA 00                 5179 	.db #0x00
   0EBB 00                 5180 	.db #0x00
   0EBC E2                 5181 	.db #0xE2
   0EBD E4                 5182 	.db #0xE4
   0EBE E2                 5183 	.db #0xE2
   0EBF E4                 5184 	.db #0xE4
   0EC0 80                 5185 	.db #0x80
   0EC1 80                 5186 	.db #0x80
   0EC2 80                 5187 	.db #0x80
   0EC3 80                 5188 	.db #0x80
   0EC4 8C                 5189 	.db #0x8C
   0EC5 8E                 5190 	.db #0x8E
   0EC6 8C                 5191 	.db #0x8C
   0EC7 8E                 5192 	.db #0x8E
   0EC8 80                 5193 	.db #0x80
   0EC9 86                 5194 	.db #0x86
   0ECA 00                 5195 	.db #0x00
   0ECB 00                 5196 	.db #0x00
   0ECC 00                 5197 	.db #0x00
   0ECD 00                 5198 	.db #0x00
   0ECE 00                 5199 	.db #0x00
   0ECF 00                 5200 	.db #0x00
   0ED0 00                 5201 	.db #0x00
   0ED1 00                 5202 	.db #0x00
   0ED2 00                 5203 	.db #0x00
   0ED3 00                 5204 	.db #0x00
   0ED4 09                 5205 	.db #0x09
   0ED5 06                 5206 	.db #0x06
   0ED6 0F                 5207 	.db #0x0F
   0ED7 1F                 5208 	.db #0x1F
   0ED8 38                 5209 	.db #0x38
   0ED9 10                 5210 	.db #0x10
   0EDA 00                 5211 	.db #0x00
   0EDB 00                 5212 	.db #0x00
   0EDC 1E                 5213 	.db #0x1E
   0EDD 0E                 5214 	.db #0x0E
   0EDE 1E                 5215 	.db #0x1E
   0EDF 0E                 5216 	.db #0x0E
   0EE0 06                 5217 	.db #0x06
   0EE1 02                 5218 	.db #0x02
   0EE2 06                 5219 	.db #0x06
   0EE3 02                 5220 	.db #0x02
   0EE4 66                 5221 	.db #0x66
   0EE5 42                 5222 	.db #0x42
   0EE6 E6                 5223 	.db #0xE6
   0EE7 C2                 5224 	.db #0xC2
   0EE8 E6                 5225 	.db #0xE6
   0EE9 42                 5226 	.db #0x42
   0EEA 00                 5227 	.db #0x00
   0EEB 00                 5228 	.db #0x00
   0EEC 00                 5229 	.db #0x00
   0EED 00                 5230 	.db #0x00
   0EEE 00                 5231 	.db #0x00
   0EEF 00                 5232 	.db #0x00
   0EF0 00                 5233 	.db #0x00
   0EF1 00                 5234 	.db #0x00
   0EF2 00                 5235 	.db #0x00
   0EF3 00                 5236 	.db #0x00
   0EF4 7C                 5237 	.db #0x7C
   0EF5 7C                 5238 	.db #0x7C
   0EF6 7C                 5239 	.db #0x7C
   0EF7 7C                 5240 	.db #0x7C
   0EF8 00                 5241 	.db #0x00
   0EF9 30                 5242 	.db #0x30
   0EFA 01                 5243 	.db #0x01
   0EFB 03                 5244 	.db #0x03
   0EFC 03                 5245 	.db #0x03
   0EFD 03                 5246 	.db #0x03
   0EFE 07                 5247 	.db #0x07
   0EFF 03                 5248 	.db #0x03
   0F00 07                 5249 	.db #0x07
   0F01 03                 5250 	.db #0x03
   0F02 1F                 5251 	.db #0x1F
   0F03 1F                 5252 	.db #0x1F
   0F04 1F                 5253 	.db #0x1F
   0F05 1F                 5254 	.db #0x1F
   0F06 1F                 5255 	.db #0x1F
   0F07 1F                 5256 	.db #0x1F
   0F08 00                 5257 	.db #0x00
   0F09 00                 5258 	.db #0x00
   0F0A FF                 5259 	.db #0xFF
   0F0B FF                 5260 	.db #0xFF
   0F0C 03                 5261 	.db #0x03
   0F0D 83                 5262 	.db #0x83
   0F0E 83                 5263 	.db #0x83
   0F0F 03                 5264 	.db #0x03
   0F10 01                 5265 	.db #0x01
   0F11 03                 5266 	.db #0x03
   0F12 E7                 5267 	.db #0xE7
   0F13 CF                 5268 	.db #0xCF
   0F14 E7                 5269 	.db #0xE7
   0F15 CF                 5270 	.db #0xCF
   0F16 E7                 5271 	.db #0xE7
   0F17 CF                 5272 	.db #0xCF
   0F18 00                 5273 	.db #0x00
   0F19 00                 5274 	.db #0x00
   0F1A 81                 5275 	.db #0x81
   0F1B 81                 5276 	.db #0x81
   0F1C C1                 5277 	.db #0xC1
   0F1D 81                 5278 	.db #0x81
   0F1E 81                 5279 	.db #0x81
   0F1F C1                 5280 	.db #0xC1
   0F20 C1                 5281 	.db #0xC1
   0F21 C1                 5282 	.db #0xC1
   0F22 FF                 5283 	.db #0xFF
   0F23 F7                 5284 	.db #0xF7
   0F24 FF                 5285 	.db #0xFF
   0F25 F7                 5286 	.db #0xF7
   0F26 FF                 5287 	.db #0xFF
   0F27 F7                 5288 	.db #0xF7
   0F28 00                 5289 	.db #0x00
   0F29 00                 5290 	.db #0x00
   0F2A E0                 5291 	.db #0xE0
   0F2B E0                 5292 	.db #0xE0
   0F2C E0                 5293 	.db #0xE0
   0F2D C0                 5294 	.db #0xC0
   0F2E E0                 5295 	.db #0xE0
   0F2F C0                 5296 	.db #0xC0
   0F30 E0                 5297 	.db #0xE0
   0F31 C0                 5298 	.db #0xC0
   0F32 F8                 5299 	.db #0xF8
   0F33 F8                 5300 	.db #0xF8
   0F34 F8                 5301 	.db #0xF8
   0F35 F8                 5302 	.db #0xF8
   0F36 F8                 5303 	.db #0xF8
   0F37 F8                 5304 	.db #0xF8
   0F38 00                 5305 	.db #0x00
   0F39 00                 5306 	.db #0x00
   0F3A 1E                 5307 	.db #0x1E
   0F3B 1C                 5308 	.db #0x1C
   0F3C 1E                 5309 	.db #0x1E
   0F3D 1C                 5310 	.db #0x1C
   0F3E 1E                 5311 	.db #0x1E
   0F3F 1C                 5312 	.db #0x1C
   0F40 1C                 5313 	.db #0x1C
   0F41 1E                 5314 	.db #0x1E
   0F42 0F                 5315 	.db #0x0F
   0F43 1F                 5316 	.db #0x1F
   0F44 1F                 5317 	.db #0x1F
   0F45 0F                 5318 	.db #0x0F
   0F46 09                 5319 	.db #0x09
   0F47 06                 5320 	.db #0x06
   0F48 00                 5321 	.db #0x00
   0F49 00                 5322 	.db #0x00
   0F4A 00                 5323 	.db #0x00
   0F4B 00                 5324 	.db #0x00
   0F4C 00                 5325 	.db #0x00
   0F4D 00                 5326 	.db #0x00
   0F4E 00                 5327 	.db #0x00
   0F4F 00                 5328 	.db #0x00
   0F50 0F                 5329 	.db #0x0F
   0F51 07                 5330 	.db #0x07
   0F52 0F                 5331 	.db #0x0F
   0F53 87                 5332 	.db #0x87
   0F54 0F                 5333 	.db #0x0F
   0F55 87                 5334 	.db #0x87
   0F56 8F                 5335 	.db #0x8F
   0F57 07                 5336 	.db #0x07
   0F58 00                 5337 	.db #0x00
   0F59 00                 5338 	.db #0x00
   0F5A 00                 5339 	.db #0x00
   0F5B 01                 5340 	.db #0x01
   0F5C 00                 5341 	.db #0x00
   0F5D 01                 5342 	.db #0x01
   0F5E 00                 5343 	.db #0x00
   0F5F 01                 5344 	.db #0x01
   0F60 80                 5345 	.db #0x80
   0F61 01                 5346 	.db #0x01
   0F62 80                 5347 	.db #0x80
   0F63 01                 5348 	.db #0x01
   0F64 83                 5349 	.db #0x83
   0F65 07                 5350 	.db #0x07
   0F66 83                 5351 	.db #0x83
   0F67 07                 5352 	.db #0x07
   0F68 00                 5353 	.db #0x00
   0F69 00                 5354 	.db #0x00
   0F6A 8C                 5355 	.db #0x8C
   0F6B 08                 5356 	.db #0x08
   0F6C 8C                 5357 	.db #0x8C
   0F6D 04                 5358 	.db #0x04
   0F6E 84                 5359 	.db #0x84
   0F6F 06                 5360 	.db #0x06
   0F70 87                 5361 	.db #0x87
   0F71 02                 5362 	.db #0x02
   0F72 83                 5363 	.db #0x83
   0F73 03                 5364 	.db #0x03
   0F74 E3                 5365 	.db #0xE3
   0F75 C1                 5366 	.db #0xC1
   0F76 E0                 5367 	.db #0xE0
   0F77 C1                 5368 	.db #0xC1
   0F78 00                 5369 	.db #0x00
   0F79 00                 5370 	.db #0x00
   0F7A 80                 5371 	.db #0x80
   0F7B 86                 5372 	.db #0x86
   0F7C 80                 5373 	.db #0x80
   0F7D 86                 5374 	.db #0x86
   0F7E 80                 5375 	.db #0x80
   0F7F 86                 5376 	.db #0x86
   0F80 80                 5377 	.db #0x80
   0F81 86                 5378 	.db #0x86
   0F82 80                 5379 	.db #0x80
   0F83 86                 5380 	.db #0x86
   0F84 8F                 5381 	.db #0x8F
   0F85 8F                 5382 	.db #0x8F
   0F86 8F                 5383 	.db #0x8F
   0F87 8F                 5384 	.db #0x8F
   0F88 00                 5385 	.db #0x00
   0F89 00                 5386 	.db #0x00
   0F8A 20                 5387 	.db #0x20
   0F8B 30                 5388 	.db #0x30
   0F8C 30                 5389 	.db #0x30
   0F8D 20                 5390 	.db #0x20
   0F8E 30                 5391 	.db #0x30
   0F8F 20                 5392 	.db #0x20
   0F90 30                 5393 	.db #0x30
   0F91 30                 5394 	.db #0x30
   0F92 30                 5395 	.db #0x30
   0F93 18                 5396 	.db #0x18
   0F94 8F                 5397 	.db #0x8F
   0F95 1F                 5398 	.db #0x1F
   0F96 8A                 5399 	.db #0x8A
   0F97 07                 5400 	.db #0x07
   0F98 00                 5401 	.db #0x00
   0F99 00                 5402 	.db #0x00
   0F9A 66                 5403 	.db #0x66
   0F9B 42                 5404 	.db #0x42
   0F9C 07                 5405 	.db #0x07
   0F9D 02                 5406 	.db #0x02
   0F9E 07                 5407 	.db #0x07
   0F9F 02                 5408 	.db #0x02
   0FA0 66                 5409 	.db #0x66
   0FA1 02                 5410 	.db #0x02
   0FA2 E6                 5411 	.db #0xE6
   0FA3 42                 5412 	.db #0x42
   0FA4 DF                 5413 	.db #0xDF
   0FA5 8F                 5414 	.db #0x8F
   0FA6 9F                 5415 	.db #0x9F
   0FA7 0F                 5416 	.db #0x0F
   0FA8 00                 5417 	.db #0x00
   0FA9 00                 5418 	.db #0x00
   0FAA E0                 5419 	.db #0xE0
   0FAB 40                 5420 	.db #0x40
   0FAC C0                 5421 	.db #0xC0
   0FAD 80                 5422 	.db #0x80
   0FAE 80                 5423 	.db #0x80
   0FAF C0                 5424 	.db #0xC0
   0FB0 C0                 5425 	.db #0xC0
   0FB1 60                 5426 	.db #0x60
   0FB2 60                 5427 	.db #0x60
   0FB3 30                 5428 	.db #0x30
   0FB4 BC                 5429 	.db #0xBC
   0FB5 1C                 5430 	.db #0x1C
   0FB6 9C                 5431 	.db #0x9C
   0FB7 0C                 5432 	.db #0x0C
   0FB8 00                 5433 	.db #0x00
   0FB9 00                 5434 	.db #0x00
   0FBA 00                 5435 	.db #0x00
   0FBB 00                 5436 	.db #0x00
   0FBC 00                 5437 	.db #0x00
   0FBD 00                 5438 	.db #0x00
   0FBE 00                 5439 	.db #0x00
   0FBF 00                 5440 	.db #0x00
   0FC0 00                 5441 	.db #0x00
   0FC1 00                 5442 	.db #0x00
   0FC2 00                 5443 	.db #0x00
   0FC3 00                 5444 	.db #0x00
   0FC4 00                 5445 	.db #0x00
   0FC5 00                 5446 	.db #0x00
   0FC6 00                 5447 	.db #0x00
   0FC7 00                 5448 	.db #0x00
   0FC8 03                 5449 	.db #0x03
   0FC9 03                 5450 	.db #0x03
   0FCA 00                 5451 	.db #0x00
   0FCB 00                 5452 	.db #0x00
   0FCC 00                 5453 	.db #0x00
   0FCD 00                 5454 	.db #0x00
   0FCE 38                 5455 	.db #0x38
   0FCF 18                 5456 	.db #0x18
   0FD0 30                 5457 	.db #0x30
   0FD1 18                 5458 	.db #0x18
   0FD2 18                 5459 	.db #0x18
   0FD3 30                 5460 	.db #0x30
   0FD4 38                 5461 	.db #0x38
   0FD5 30                 5462 	.db #0x30
   0FD6 30                 5463 	.db #0x30
   0FD7 30                 5464 	.db #0x30
   0FD8 FF                 5465 	.db #0xFF
   0FD9 FF                 5466 	.db #0xFF
   0FDA 00                 5467 	.db #0x00
   0FDB 00                 5468 	.db #0x00
   0FDC 00                 5469 	.db #0x00
   0FDD 00                 5470 	.db #0x00
   0FDE 31                 5471 	.db #0x31
   0FDF 61                 5472 	.db #0x61
   0FE0 71                 5473 	.db #0x71
   0FE1 61                 5474 	.db #0x61
   0FE2 61                 5475 	.db #0x61
   0FE3 61                 5476 	.db #0x61
   0FE4 E0                 5477 	.db #0xE0
   0FE5 60                 5478 	.db #0x60
   0FE6 C0                 5479 	.db #0xC0
   0FE7 60                 5480 	.db #0x60
   0FE8 F8                 5481 	.db #0xF8
   0FE9 F0                 5482 	.db #0xF0
   0FEA 00                 5483 	.db #0x00
   0FEB 00                 5484 	.db #0x00
   0FEC 00                 5485 	.db #0x00
   0FED 00                 5486 	.db #0x00
   0FEE FF                 5487 	.db #0xFF
   0FEF FF                 5488 	.db #0xFF
   0FF0 FF                 5489 	.db #0xFF
   0FF1 FF                 5490 	.db #0xFF
   0FF2 FF                 5491 	.db #0xFF
   0FF3 FF                 5492 	.db #0xFF
   0FF4 3C                 5493 	.db #0x3C
   0FF5 78                 5494 	.db #0x78
   0FF6 3C                 5495 	.db #0x3C
   0FF7 78                 5496 	.db #0x78
   0FF8 3C                 5497 	.db #0x3C
   0FF9 78                 5498 	.db #0x78
   0FFA 00                 5499 	.db #0x00
   0FFB 00                 5500 	.db #0x00
   0FFC 00                 5501 	.db #0x00
   0FFD 00                 5502 	.db #0x00
   0FFE 01                 5503 	.db #0x01
   0FFF 01                 5504 	.db #0x01
   1000 01                 5505 	.db #0x01
   1001 01                 5506 	.db #0x01
   1002 01                 5507 	.db #0x01
   1003 01                 5508 	.db #0x01
   1004 00                 5509 	.db #0x00
   1005 00                 5510 	.db #0x00
   1006 00                 5511 	.db #0x00
   1007 00                 5512 	.db #0x00
   1008 00                 5513 	.db #0x00
   1009 00                 5514 	.db #0x00
   100A 00                 5515 	.db #0x00
   100B 00                 5516 	.db #0x00
   100C 00                 5517 	.db #0x00
   100D 00                 5518 	.db #0x00
   100E FE                 5519 	.db #0xFE
   100F FF                 5520 	.db #0xFF
   1010 FF                 5521 	.db #0xFF
   1011 FF                 5522 	.db #0xFF
   1012 FF                 5523 	.db #0xFF
   1013 FF                 5524 	.db #0xFF
   1014 3C                 5525 	.db #0x3C
   1015 78                 5526 	.db #0x78
   1016 3C                 5527 	.db #0x3C
   1017 78                 5528 	.db #0x78
   1018 3C                 5529 	.db #0x3C
   1019 78                 5530 	.db #0x78
   101A 00                 5531 	.db #0x00
   101B 00                 5532 	.db #0x00
   101C 00                 5533 	.db #0x00
   101D 00                 5534 	.db #0x00
   101E 30                 5535 	.db #0x30
   101F C0                 5536 	.db #0xC0
   1020 F0                 5537 	.db #0xF0
   1021 F8                 5538 	.db #0xF8
   1022 FE                 5539 	.db #0xFE
   1023 FC                 5540 	.db #0xFC
   1024 5E                 5541 	.db #0x5E
   1025 3E                 5542 	.db #0x3E
   1026 0E                 5543 	.db #0x0E
   1027 1F                 5544 	.db #0x1F
   1028 1F                 5545 	.db #0x1F
   1029 0F                 5546 	.db #0x0F
   102A 00                 5547 	.db #0x00
   102B 00                 5548 	.db #0x00
   102C 00                 5549 	.db #0x00
   102D 00                 5550 	.db #0x00
   102E 3F                 5551 	.db #0x3F
   102F 1F                 5552 	.db #0x1F
   1030 3F                 5553 	.db #0x3F
   1031 1F                 5554 	.db #0x1F
   1032 3F                 5555 	.db #0x3F
   1033 1F                 5556 	.db #0x1F
   1034 07                 5557 	.db #0x07
   1035 07                 5558 	.db #0x07
   1036 07                 5559 	.db #0x07
   1037 07                 5560 	.db #0x07
   1038 07                 5561 	.db #0x07
   1039 07                 5562 	.db #0x07
   103A 00                 5563 	.db #0x00
   103B 00                 5564 	.db #0x00
   103C 00                 5565 	.db #0x00
   103D 00                 5566 	.db #0x00
   103E F0                 5567 	.db #0xF0
   103F E1                 5568 	.db #0xE1
   1040 F0                 5569 	.db #0xF0
   1041 E1                 5570 	.db #0xE1
   1042 F0                 5571 	.db #0xF0
   1043 E1                 5572 	.db #0xE1
   1044 80                 5573 	.db #0x80
   1045 80                 5574 	.db #0x80
   1046 80                 5575 	.db #0x80
   1047 80                 5576 	.db #0x80
   1048 80                 5577 	.db #0x80
   1049 80                 5578 	.db #0x80
   104A 00                 5579 	.db #0x00
   104B 00                 5580 	.db #0x00
   104C 00                 5581 	.db #0x00
   104D 00                 5582 	.db #0x00
   104E FF                 5583 	.db #0xFF
   104F FF                 5584 	.db #0xFF
   1050 FF                 5585 	.db #0xFF
   1051 FF                 5586 	.db #0xFF
   1052 FF                 5587 	.db #0xFF
   1053 FF                 5588 	.db #0xFF
   1054 7F                 5589 	.db #0x7F
   1055 3F                 5590 	.db #0x3F
   1056 77                 5591 	.db #0x77
   1057 7F                 5592 	.db #0x7F
   1058 67                 5593 	.db #0x67
   1059 77                 5594 	.db #0x77
   105A 00                 5595 	.db #0x00
   105B 00                 5596 	.db #0x00
   105C 00                 5597 	.db #0x00
   105D 00                 5598 	.db #0x00
   105E C3                 5599 	.db #0xC3
   105F C3                 5600 	.db #0xC3
   1060 C3                 5601 	.db #0xC3
   1061 C3                 5602 	.db #0xC3
   1062 C3                 5603 	.db #0xC3
   1063 C3                 5604 	.db #0xC3
   1064 00                 5605 	.db #0x00
   1065 00                 5606 	.db #0x00
   1066 00                 5607 	.db #0x00
   1067 00                 5608 	.db #0x00
   1068 80                 5609 	.db #0x80
   1069 00                 5610 	.db #0x00
   106A 00                 5611 	.db #0x00
   106B 00                 5612 	.db #0x00
   106C 00                 5613 	.db #0x00
   106D 00                 5614 	.db #0x00
   106E FC                 5615 	.db #0xFC
   106F FC                 5616 	.db #0xFC
   1070 FE                 5617 	.db #0xFE
   1071 FC                 5618 	.db #0xFC
   1072 FE                 5619 	.db #0xFE
   1073 FE                 5620 	.db #0xFE
   1074 FF                 5621 	.db #0xFF
   1075 CE                 5622 	.db #0xCE
   1076 EE                 5623 	.db #0xEE
   1077 CF                 5624 	.db #0xCF
   1078 E7                 5625 	.db #0xE7
   1079 CF                 5626 	.db #0xCF
   107A 00                 5627 	.db #0x00
   107B 00                 5628 	.db #0x00
   107C 00                 5629 	.db #0x00
   107D 00                 5630 	.db #0x00
   107E 07                 5631 	.db #0x07
   107F 03                 5632 	.db #0x03
   1080 03                 5633 	.db #0x03
   1081 07                 5634 	.db #0x07
   1082 07                 5635 	.db #0x07
   1083 07                 5636 	.db #0x07
   1084 0E                 5637 	.db #0x0E
   1085 06                 5638 	.db #0x06
   1086 04                 5639 	.db #0x04
   1087 0E                 5640 	.db #0x0E
   1088 0E                 5641 	.db #0x0E
   1089 0C                 5642 	.db #0x0C
   108A 00                 5643 	.db #0x00
   108B 00                 5644 	.db #0x00
   108C 00                 5645 	.db #0x00
   108D 00                 5646 	.db #0x00
   108E FC                 5647 	.db #0xFC
   108F FC                 5648 	.db #0xFC
   1090 FC                 5649 	.db #0xFC
   1091 FC                 5650 	.db #0xFC
   1092 FC                 5651 	.db #0xFC
   1093 FC                 5652 	.db #0xFC
   1094 F0                 5653 	.db #0xF0
   1095 F0                 5654 	.db #0xF0
   1096 F0                 5655 	.db #0xF0
   1097 F0                 5656 	.db #0xF0
   1098 F0                 5657 	.db #0xF0
   1099 F0                 5658 	.db #0xF0
   109A 00                 5659 	.db #0x00
   109B 00                 5660 	.db #0x00
   109C 00                 5661 	.db #0x00
   109D 00                 5662 	.db #0x00
   109E 03                 5663 	.db #0x03
   109F 01                 5664 	.db #0x01
   10A0 03                 5665 	.db #0x03
   10A1 03                 5666 	.db #0x03
   10A2 03                 5667 	.db #0x03
   10A3 07                 5668 	.db #0x07
   10A4 07                 5669 	.db #0x07
   10A5 0F                 5670 	.db #0x0F
   10A6 1F                 5671 	.db #0x1F
   10A7 0D                 5672 	.db #0x0D
   10A8 3D                 5673 	.db #0x3D
   10A9 19                 5674 	.db #0x19
   10AA 00                 5675 	.db #0x00
   10AB 00                 5676 	.db #0x00
   10AC 00                 5677 	.db #0x00
   10AD 00                 5678 	.db #0x00
   10AE C0                 5679 	.db #0xC0
   10AF C1                 5680 	.db #0xC1
   10B0 C0                 5681 	.db #0xC0
   10B1 C1                 5682 	.db #0xC1
   10B2 C1                 5683 	.db #0xC1
   10B3 C1                 5684 	.db #0xC1
   10B4 C1                 5685 	.db #0xC1
   10B5 C1                 5686 	.db #0xC1
   10B6 C1                 5687 	.db #0xC1
   10B7 C1                 5688 	.db #0xC1
   10B8 C1                 5689 	.db #0xC1
   10B9 C1                 5690 	.db #0xC1
   10BA 00                 5691 	.db #0x00
   10BB 00                 5692 	.db #0x00
   10BC 00                 5693 	.db #0x00
   10BD 00                 5694 	.db #0x00
   10BE FF                 5695 	.db #0xFF
   10BF FF                 5696 	.db #0xFF
   10C0 FF                 5697 	.db #0xFF
   10C1 FF                 5698 	.db #0xFF
   10C2 FF                 5699 	.db #0xFF
   10C3 FF                 5700 	.db #0xFF
   10C4 C1                 5701 	.db #0xC1
   10C5 83                 5702 	.db #0x83
   10C6 C0                 5703 	.db #0xC0
   10C7 80                 5704 	.db #0x80
   10C8 C0                 5705 	.db #0xC0
   10C9 80                 5706 	.db #0x80
   10CA 00                 5707 	.db #0x00
   10CB 00                 5708 	.db #0x00
   10CC 00                 5709 	.db #0x00
   10CD 00                 5710 	.db #0x00
   10CE 80                 5711 	.db #0x80
   10CF 00                 5712 	.db #0x00
   10D0 80                 5713 	.db #0x80
   10D1 00                 5714 	.db #0x00
   10D2 80                 5715 	.db #0x80
   10D3 00                 5716 	.db #0x00
   10D4 80                 5717 	.db #0x80
   10D5 00                 5718 	.db #0x00
   10D6 00                 5719 	.db #0x00
   10D7 00                 5720 	.db #0x00
   10D8 00                 5721 	.db #0x00
   10D9 00                 5722 	.db #0x00
   10DA 03                 5723 	.db #0x03
   10DB 03                 5724 	.db #0x03
   10DC 00                 5725 	.db #0x00
   10DD 00                 5726 	.db #0x00
   10DE 00                 5727 	.db #0x00
   10DF 00                 5728 	.db #0x00
   10E0 00                 5729 	.db #0x00
   10E1 00                 5730 	.db #0x00
   10E2 03                 5731 	.db #0x03
   10E3 03                 5732 	.db #0x03
   10E4 03                 5733 	.db #0x03
   10E5 03                 5734 	.db #0x03
   10E6 00                 5735 	.db #0x00
   10E7 00                 5736 	.db #0x00
   10E8 01                 5737 	.db #0x01
   10E9 00                 5738 	.db #0x00
   10EA FF                 5739 	.db #0xFF
   10EB FF                 5740 	.db #0xFF
   10EC 70                 5741 	.db #0x70
   10ED 60                 5742 	.db #0x60
   10EE 61                 5743 	.db #0x61
   10EF 60                 5744 	.db #0x60
   10F0 E0                 5745 	.db #0xE0
   10F1 61                 5746 	.db #0x61
   10F2 FF                 5747 	.db #0xFF
   10F3 FF                 5748 	.db #0xFF
   10F4 FF                 5749 	.db #0xFF
   10F5 FF                 5750 	.db #0xFF
   10F6 C3                 5751 	.db #0xC3
   10F7 C1                 5752 	.db #0xC1
   10F8 C1                 5753 	.db #0xC1
   10F9 C3                 5754 	.db #0xC3
   10FA F8                 5755 	.db #0xF8
   10FB F0                 5756 	.db #0xF0
   10FC C0                 5757 	.db #0xC0
   10FD C0                 5758 	.db #0xC0
   10FE 80                 5759 	.db #0x80
   10FF C0                 5760 	.db #0xC0
   1100 C0                 5761 	.db #0xC0
   1101 80                 5762 	.db #0x80
   1102 F8                 5763 	.db #0xF8
   1103 F0                 5764 	.db #0xF0
   1104 F8                 5765 	.db #0xF8
   1105 F0                 5766 	.db #0xF0
   1106 00                 5767 	.db #0x00
   1107 80                 5768 	.db #0x80
   1108 80                 5769 	.db #0x80
   1109 00                 5770 	.db #0x00
   110A 3C                 5771 	.db #0x3C
   110B 78                 5772 	.db #0x78
   110C 3C                 5773 	.db #0x3C
   110D 78                 5774 	.db #0x78
   110E 3C                 5775 	.db #0x3C
   110F 78                 5776 	.db #0x78
   1110 3C                 5777 	.db #0x3C
   1111 78                 5778 	.db #0x78
   1112 3C                 5779 	.db #0x3C
   1113 78                 5780 	.db #0x78
   1114 3C                 5781 	.db #0x3C
   1115 78                 5782 	.db #0x78
   1116 3C                 5783 	.db #0x3C
   1117 78                 5784 	.db #0x78
   1118 3C                 5785 	.db #0x3C
   1119 78                 5786 	.db #0x78
   111A 00                 5787 	.db #0x00
   111B 00                 5788 	.db #0x00
   111C 00                 5789 	.db #0x00
   111D 00                 5790 	.db #0x00
   111E 00                 5791 	.db #0x00
   111F 00                 5792 	.db #0x00
   1120 38                 5793 	.db #0x38
   1121 1C                 5794 	.db #0x1C
   1122 38                 5795 	.db #0x38
   1123 1C                 5796 	.db #0x1C
   1124 38                 5797 	.db #0x38
   1125 1C                 5798 	.db #0x1C
   1126 38                 5799 	.db #0x38
   1127 1C                 5800 	.db #0x1C
   1128 38                 5801 	.db #0x38
   1129 1C                 5802 	.db #0x1C
   112A 0F                 5803 	.db #0x0F
   112B 0F                 5804 	.db #0x0F
   112C 07                 5805 	.db #0x07
   112D 0F                 5806 	.db #0x0F
   112E 07                 5807 	.db #0x07
   112F 0F                 5808 	.db #0x0F
   1130 07                 5809 	.db #0x07
   1131 0F                 5810 	.db #0x0F
   1132 0F                 5811 	.db #0x0F
   1133 0F                 5812 	.db #0x0F
   1134 0F                 5813 	.db #0x0F
   1135 0F                 5814 	.db #0x0F
   1136 0E                 5815 	.db #0x0E
   1137 1F                 5816 	.db #0x1F
   1138 5F                 5817 	.db #0x5F
   1139 3E                 5818 	.db #0x3E
   113A 87                 5819 	.db #0x87
   113B 07                 5820 	.db #0x07
   113C 87                 5821 	.db #0x87
   113D 07                 5822 	.db #0x07
   113E 87                 5823 	.db #0x87
   113F 07                 5824 	.db #0x07
   1140 87                 5825 	.db #0x87
   1141 07                 5826 	.db #0x07
   1142 87                 5827 	.db #0x87
   1143 07                 5828 	.db #0x07
   1144 07                 5829 	.db #0x07
   1145 07                 5830 	.db #0x07
   1146 07                 5831 	.db #0x07
   1147 07                 5832 	.db #0x07
   1148 07                 5833 	.db #0x07
   1149 07                 5834 	.db #0x07
   114A 80                 5835 	.db #0x80
   114B 80                 5836 	.db #0x80
   114C 80                 5837 	.db #0x80
   114D 80                 5838 	.db #0x80
   114E 80                 5839 	.db #0x80
   114F 80                 5840 	.db #0x80
   1150 81                 5841 	.db #0x81
   1151 80                 5842 	.db #0x80
   1152 80                 5843 	.db #0x80
   1153 81                 5844 	.db #0x81
   1154 81                 5845 	.db #0x81
   1155 81                 5846 	.db #0x81
   1156 83                 5847 	.db #0x83
   1157 81                 5848 	.db #0x81
   1158 83                 5849 	.db #0x83
   1159 81                 5850 	.db #0x81
   115A F3                 5851 	.db #0xF3
   115B 67                 5852 	.db #0x67
   115C 67                 5853 	.db #0x67
   115D E3                 5854 	.db #0xE3
   115E C3                 5855 	.db #0xC3
   115F E3                 5856 	.db #0xE3
   1160 FF                 5857 	.db #0xFF
   1161 FF                 5858 	.db #0xFF
   1162 FF                 5859 	.db #0xFF
   1163 FF                 5860 	.db #0xFF
   1164 81                 5861 	.db #0x81
   1165 C1                 5862 	.db #0xC1
   1166 C1                 5863 	.db #0xC1
   1167 81                 5864 	.db #0x81
   1168 80                 5865 	.db #0x80
   1169 81                 5866 	.db #0x81
   116A 00                 5867 	.db #0x00
   116B 80                 5868 	.db #0x80
   116C 80                 5869 	.db #0x80
   116D 80                 5870 	.db #0x80
   116E C0                 5871 	.db #0xC0
   116F 80                 5872 	.db #0x80
   1170 80                 5873 	.db #0x80
   1171 C0                 5874 	.db #0xC0
   1172 C0                 5875 	.db #0xC0
   1173 C0                 5876 	.db #0xC0
   1174 E0                 5877 	.db #0xE0
   1175 C0                 5878 	.db #0xC0
   1176 C0                 5879 	.db #0xC0
   1177 E0                 5880 	.db #0xE0
   1178 E0                 5881 	.db #0xE0
   1179 E0                 5882 	.db #0xE0
   117A EF                 5883 	.db #0xEF
   117B C7                 5884 	.db #0xC7
   117C E7                 5885 	.db #0xE7
   117D C7                 5886 	.db #0xC7
   117E E3                 5887 	.db #0xE3
   117F C7                 5888 	.db #0xC7
   1180 E7                 5889 	.db #0xE7
   1181 C3                 5890 	.db #0xC3
   1182 E3                 5891 	.db #0xE3
   1183 C3                 5892 	.db #0xC3
   1184 E3                 5893 	.db #0xE3
   1185 C1                 5894 	.db #0xC1
   1186 E1                 5895 	.db #0xE1
   1187 C1                 5896 	.db #0xC1
   1188 E0                 5897 	.db #0xE0
   1189 C1                 5898 	.db #0xC1
   118A 9C                 5899 	.db #0x9C
   118B 0C                 5900 	.db #0x0C
   118C 1C                 5901 	.db #0x1C
   118D 98                 5902 	.db #0x98
   118E B8                 5903 	.db #0xB8
   118F 98                 5904 	.db #0x98
   1190 D0                 5905 	.db #0xD0
   1191 B8                 5906 	.db #0xB8
   1192 F8                 5907 	.db #0xF8
   1193 F0                 5908 	.db #0xF0
   1194 F0                 5909 	.db #0xF0
   1195 F0                 5910 	.db #0xF0
   1196 E0                 5911 	.db #0xE0
   1197 F0                 5912 	.db #0xF0
   1198 F0                 5913 	.db #0xF0
   1199 E0                 5914 	.db #0xE0
   119A F0                 5915 	.db #0xF0
   119B F0                 5916 	.db #0xF0
   119C F0                 5917 	.db #0xF0
   119D F0                 5918 	.db #0xF0
   119E F0                 5919 	.db #0xF0
   119F F0                 5920 	.db #0xF0
   11A0 F0                 5921 	.db #0xF0
   11A1 F0                 5922 	.db #0xF0
   11A2 F0                 5923 	.db #0xF0
   11A3 F0                 5924 	.db #0xF0
   11A4 F0                 5925 	.db #0xF0
   11A5 F0                 5926 	.db #0xF0
   11A6 F0                 5927 	.db #0xF0
   11A7 F0                 5928 	.db #0xF0
   11A8 F0                 5929 	.db #0xF0
   11A9 F0                 5930 	.db #0xF0
   11AA 39                 5931 	.db #0x39
   11AB 31                 5932 	.db #0x31
   11AC 31                 5933 	.db #0x31
   11AD 61                 5934 	.db #0x61
   11AE E1                 5935 	.db #0xE1
   11AF 41                 5936 	.db #0x41
   11B0 FF                 5937 	.db #0xFF
   11B1 FF                 5938 	.db #0xFF
   11B2 FF                 5939 	.db #0xFF
   11B3 FF                 5940 	.db #0xFF
   11B4 FF                 5941 	.db #0xFF
   11B5 7F                 5942 	.db #0x7F
   11B6 01                 5943 	.db #0x01
   11B7 01                 5944 	.db #0x01
   11B8 01                 5945 	.db #0x01
   11B9 01                 5946 	.db #0x01
   11BA C1                 5947 	.db #0xC1
   11BB C1                 5948 	.db #0xC1
   11BC C1                 5949 	.db #0xC1
   11BD C1                 5950 	.db #0xC1
   11BE C0                 5951 	.db #0xC0
   11BF C1                 5952 	.db #0xC1
   11C0 F0                 5953 	.db #0xF0
   11C1 E0                 5954 	.db #0xE0
   11C2 F0                 5955 	.db #0xF0
   11C3 E0                 5956 	.db #0xE0
   11C4 F0                 5957 	.db #0xF0
   11C5 E0                 5958 	.db #0xE0
   11C6 C3                 5959 	.db #0xC3
   11C7 C0                 5960 	.db #0xC0
   11C8 C3                 5961 	.db #0xC3
   11C9 C1                 5962 	.db #0xC1
   11CA EA                 5963 	.db #0xEA
   11CB 9C                 5964 	.db #0x9C
   11CC FE                 5965 	.db #0xFE
   11CD FF                 5966 	.db #0xFF
   11CE FF                 5967 	.db #0xFF
   11CF FF                 5968 	.db #0xFF
   11D0 C3                 5969 	.db #0xC3
   11D1 07                 5970 	.db #0x07
   11D2 07                 5971 	.db #0x07
   11D3 03                 5972 	.db #0x03
   11D4 03                 5973 	.db #0x03
   11D5 03                 5974 	.db #0x03
   11D6 07                 5975 	.db #0x07
   11D7 83                 5976 	.db #0x83
   11D8 C3                 5977 	.db #0xC3
   11D9 87                 5978 	.db #0x87
   11DA 00                 5979 	.db #0x00
   11DB 00                 5980 	.db #0x00
   11DC 00                 5981 	.db #0x00
   11DD 00                 5982 	.db #0x00
   11DE 80                 5983 	.db #0x80
   11DF 00                 5984 	.db #0x00
   11E0 80                 5985 	.db #0x80
   11E1 80                 5986 	.db #0x80
   11E2 C0                 5987 	.db #0xC0
   11E3 80                 5988 	.db #0x80
   11E4 C0                 5989 	.db #0xC0
   11E5 80                 5990 	.db #0x80
   11E6 80                 5991 	.db #0x80
   11E7 80                 5992 	.db #0x80
   11E8 80                 5993 	.db #0x80
   11E9 80                 5994 	.db #0x80
   11EA 01                 5995 	.db #0x01
   11EB 00                 5996 	.db #0x00
   11EC 00                 5997 	.db #0x00
   11ED 01                 5998 	.db #0x01
   11EE 01                 5999 	.db #0x01
   11EF 01                 6000 	.db #0x01
   11F0 00                 6001 	.db #0x00
   11F1 00                 6002 	.db #0x00
   11F2 00                 6003 	.db #0x00
   11F3 00                 6004 	.db #0x00
   11F4 00                 6005 	.db #0x00
   11F5 00                 6006 	.db #0x00
   11F6 00                 6007 	.db #0x00
   11F7 00                 6008 	.db #0x00
   11F8 00                 6009 	.db #0x00
   11F9 00                 6010 	.db #0x00
   11FA 83                 6011 	.db #0x83
   11FB C3                 6012 	.db #0xC3
   11FC C3                 6013 	.db #0xC3
   11FD 83                 6014 	.db #0x83
   11FE C3                 6015 	.db #0xC3
   11FF 83                 6016 	.db #0x83
   1200 00                 6017 	.db #0x00
   1201 00                 6018 	.db #0x00
   1202 00                 6019 	.db #0x00
   1203 00                 6020 	.db #0x00
   1204 00                 6021 	.db #0x00
   1205 00                 6022 	.db #0x00
   1206 00                 6023 	.db #0x00
   1207 00                 6024 	.db #0x00
   1208 00                 6025 	.db #0x00
   1209 00                 6026 	.db #0x00
   120A 81                 6027 	.db #0x81
   120B 01                 6028 	.db #0x01
   120C 01                 6029 	.db #0x01
   120D 01                 6030 	.db #0x01
   120E 01                 6031 	.db #0x01
   120F 01                 6032 	.db #0x01
   1210 00                 6033 	.db #0x00
   1211 00                 6034 	.db #0x00
   1212 00                 6035 	.db #0x00
   1213 00                 6036 	.db #0x00
   1214 00                 6037 	.db #0x00
   1215 00                 6038 	.db #0x00
   1216 00                 6039 	.db #0x00
   1217 00                 6040 	.db #0x00
   1218 00                 6041 	.db #0x00
   1219 00                 6042 	.db #0x00
   121A FF                 6043 	.db #0xFF
   121B FF                 6044 	.db #0xFF
   121C FF                 6045 	.db #0xFF
   121D FF                 6046 	.db #0xFF
   121E FF                 6047 	.db #0xFF
   121F FF                 6048 	.db #0xFF
   1220 00                 6049 	.db #0x00
   1221 00                 6050 	.db #0x00
   1222 00                 6051 	.db #0x00
   1223 00                 6052 	.db #0x00
   1224 00                 6053 	.db #0x00
   1225 00                 6054 	.db #0x00
   1226 00                 6055 	.db #0x00
   1227 00                 6056 	.db #0x00
   1228 00                 6057 	.db #0x00
   1229 00                 6058 	.db #0x00
   122A F9                 6059 	.db #0xF9
   122B FD                 6060 	.db #0xFD
   122C F9                 6061 	.db #0xF9
   122D FD                 6062 	.db #0xFD
   122E F9                 6063 	.db #0xF9
   122F FD                 6064 	.db #0xFD
   1230 00                 6065 	.db #0x00
   1231 00                 6066 	.db #0x00
   1232 00                 6067 	.db #0x00
   1233 00                 6068 	.db #0x00
   1234 00                 6069 	.db #0x00
   1235 00                 6070 	.db #0x00
   1236 00                 6071 	.db #0x00
   1237 00                 6072 	.db #0x00
   1238 00                 6073 	.db #0x00
   1239 00                 6074 	.db #0x00
   123A FE                 6075 	.db #0xFE
   123B FC                 6076 	.db #0xFC
   123C FC                 6077 	.db #0xFC
   123D F8                 6078 	.db #0xF8
   123E B0                 6079 	.db #0xB0
   123F C0                 6080 	.db #0xC0
   1240 00                 6081 	.db #0x00
   1241 00                 6082 	.db #0x00
   1242 00                 6083 	.db #0x00
   1243 00                 6084 	.db #0x00
   1244 00                 6085 	.db #0x00
   1245 00                 6086 	.db #0x00
   1246 00                 6087 	.db #0x00
   1247 00                 6088 	.db #0x00
   1248 00                 6089 	.db #0x00
   1249 00                 6090 	.db #0x00
   124A 07                 6091 	.db #0x07
   124B 07                 6092 	.db #0x07
   124C 07                 6093 	.db #0x07
   124D 07                 6094 	.db #0x07
   124E 07                 6095 	.db #0x07
   124F 07                 6096 	.db #0x07
   1250 07                 6097 	.db #0x07
   1251 07                 6098 	.db #0x07
   1252 0F                 6099 	.db #0x0F
   1253 07                 6100 	.db #0x07
   1254 3F                 6101 	.db #0x3F
   1255 3F                 6102 	.db #0x3F
   1256 3E                 6103 	.db #0x3E
   1257 3F                 6104 	.db #0x3F
   1258 2A                 6105 	.db #0x2A
   1259 1C                 6106 	.db #0x1C
   125A 8F                 6107 	.db #0x8F
   125B 8F                 6108 	.db #0x8F
   125C 8F                 6109 	.db #0x8F
   125D 8F                 6110 	.db #0x8F
   125E 8F                 6111 	.db #0x8F
   125F 8F                 6112 	.db #0x8F
   1260 80                 6113 	.db #0x80
   1261 80                 6114 	.db #0x80
   1262 80                 6115 	.db #0x80
   1263 80                 6116 	.db #0x80
   1264 80                 6117 	.db #0x80
   1265 00                 6118 	.db #0x00
   1266 00                 6119 	.db #0x00
   1267 00                 6120 	.db #0x00
   1268 00                 6121 	.db #0x00
   1269 00                 6122 	.db #0x00
   126A F3                 6123 	.db #0xF3
   126B E7                 6124 	.db #0xE7
   126C F3                 6125 	.db #0xF3
   126D E7                 6126 	.db #0xE7
   126E F3                 6127 	.db #0xF3
   126F E7                 6128 	.db #0xE7
   1270 00                 6129 	.db #0x00
   1271 00                 6130 	.db #0x00
   1272 00                 6131 	.db #0x00
   1273 00                 6132 	.db #0x00
   1274 00                 6133 	.db #0x00
   1275 00                 6134 	.db #0x00
   1276 00                 6135 	.db #0x00
   1277 00                 6136 	.db #0x00
   1278 00                 6137 	.db #0x00
   1279 00                 6138 	.db #0x00
   127A FF                 6139 	.db #0xFF
   127B FB                 6140 	.db #0xFB
   127C FF                 6141 	.db #0xFF
   127D FB                 6142 	.db #0xFB
   127E FF                 6143 	.db #0xFF
   127F FB                 6144 	.db #0xFB
   1280 00                 6145 	.db #0x00
   1281 00                 6146 	.db #0x00
   1282 00                 6147 	.db #0x00
   1283 00                 6148 	.db #0x00
   1284 00                 6149 	.db #0x00
   1285 00                 6150 	.db #0x00
   1286 00                 6151 	.db #0x00
   1287 00                 6152 	.db #0x00
   1288 00                 6153 	.db #0x00
   1289 00                 6154 	.db #0x00
   128A F1                 6155 	.db #0xF1
   128B F8                 6156 	.db #0xF8
   128C F0                 6157 	.db #0xF0
   128D F8                 6158 	.db #0xF8
   128E F0                 6159 	.db #0xF0
   128F F8                 6160 	.db #0xF8
   1290 00                 6161 	.db #0x00
   1291 00                 6162 	.db #0x00
   1292 00                 6163 	.db #0x00
   1293 00                 6164 	.db #0x00
   1294 00                 6165 	.db #0x00
   1295 00                 6166 	.db #0x00
   1296 00                 6167 	.db #0x00
   1297 00                 6168 	.db #0x00
   1298 00                 6169 	.db #0x00
   1299 00                 6170 	.db #0x00
   129A E3                 6171 	.db #0xE3
   129B E3                 6172 	.db #0xE3
   129C E3                 6173 	.db #0xE3
   129D C3                 6174 	.db #0xC3
   129E 43                 6175 	.db #0x43
   129F C3                 6176 	.db #0xC3
   12A0 00                 6177 	.db #0x00
   12A1 00                 6178 	.db #0x00
   12A2 00                 6179 	.db #0x00
   12A3 00                 6180 	.db #0x00
   12A4 00                 6181 	.db #0x00
   12A5 00                 6182 	.db #0x00
   12A6 00                 6183 	.db #0x00
   12A7 00                 6184 	.db #0x00
   12A8 00                 6185 	.db #0x00
   12A9 00                 6186 	.db #0x00
   12AA FC                 6187 	.db #0xFC
   12AB FC                 6188 	.db #0xFC
   12AC FC                 6189 	.db #0xFC
   12AD FC                 6190 	.db #0xFC
   12AE FC                 6191 	.db #0xFC
   12AF FC                 6192 	.db #0xFC
   12B0 00                 6193 	.db #0x00
   12B1 00                 6194 	.db #0x00
   12B2 00                 6195 	.db #0x00
   12B3 00                 6196 	.db #0x00
   12B4 00                 6197 	.db #0x00
   12B5 00                 6198 	.db #0x00
   12B6 00                 6199 	.db #0x00
   12B7 00                 6200 	.db #0x00
   12B8 00                 6201 	.db #0x00
   12B9 00                 6202 	.db #0x00
   12BA 07                 6203 	.db #0x07
   12BB 07                 6204 	.db #0x07
   12BC 07                 6205 	.db #0x07
   12BD 07                 6206 	.db #0x07
   12BE 07                 6207 	.db #0x07
   12BF 07                 6208 	.db #0x07
   12C0 00                 6209 	.db #0x00
   12C1 00                 6210 	.db #0x00
   12C2 00                 6211 	.db #0x00
   12C3 00                 6212 	.db #0x00
   12C4 00                 6213 	.db #0x00
   12C5 00                 6214 	.db #0x00
   12C6 00                 6215 	.db #0x00
   12C7 00                 6216 	.db #0x00
   12C8 00                 6217 	.db #0x00
   12C9 00                 6218 	.db #0x00
   12CA F1                 6219 	.db #0xF1
   12CB E1                 6220 	.db #0xE1
   12CC F1                 6221 	.db #0xF1
   12CD E0                 6222 	.db #0xE0
   12CE F0                 6223 	.db #0xF0
   12CF E0                 6224 	.db #0xE0
   12D0 00                 6225 	.db #0x00
   12D1 00                 6226 	.db #0x00
   12D2 00                 6227 	.db #0x00
   12D3 00                 6228 	.db #0x00
   12D4 00                 6229 	.db #0x00
   12D5 00                 6230 	.db #0x00
   12D6 00                 6231 	.db #0x00
   12D7 00                 6232 	.db #0x00
   12D8 00                 6233 	.db #0x00
   12D9 00                 6234 	.db #0x00
   12DA FF                 6235 	.db #0xFF
   12DB FF                 6236 	.db #0xFF
   12DC FF                 6237 	.db #0xFF
   12DD FE                 6238 	.db #0xFE
   12DE 56                 6239 	.db #0x56
   12DF 38                 6240 	.db #0x38
   12E0 00                 6241 	.db #0x00
   12E1 00                 6242 	.db #0x00
   12E2 00                 6243 	.db #0x00
   12E3 00                 6244 	.db #0x00
   12E4 00                 6245 	.db #0x00
   12E5 00                 6246 	.db #0x00
   12E6 00                 6247 	.db #0x00
   12E7 00                 6248 	.db #0x00
   12E8 00                 6249 	.db #0x00
   12E9 00                 6250 	.db #0x00
   12EA                    6251 _credits_map:
   12EA 00                 6252 	.db #0x00
   12EB 00                 6253 	.db #0x00
   12EC 00                 6254 	.db #0x00
   12ED 00                 6255 	.db #0x00
   12EE 00                 6256 	.db #0x00
   12EF 00                 6257 	.db #0x00
   12F0 00                 6258 	.db #0x00
   12F1 00                 6259 	.db #0x00
   12F2 00                 6260 	.db #0x00
   12F3 00                 6261 	.db #0x00
   12F4 00                 6262 	.db #0x00
   12F5 00                 6263 	.db #0x00
   12F6 00                 6264 	.db #0x00
   12F7 00                 6265 	.db #0x00
   12F8 00                 6266 	.db #0x00
   12F9 00                 6267 	.db #0x00
   12FA 00                 6268 	.db #0x00
   12FB 00                 6269 	.db #0x00
   12FC 00                 6270 	.db #0x00
   12FD 00                 6271 	.db #0x00
   12FE 00                 6272 	.db #0x00
   12FF 00                 6273 	.db #0x00
   1300 00                 6274 	.db #0x00
   1301 00                 6275 	.db #0x00
   1302 00                 6276 	.db #0x00
   1303 00                 6277 	.db #0x00
   1304 00                 6278 	.db #0x00
   1305 00                 6279 	.db #0x00
   1306 00                 6280 	.db #0x00
   1307 00                 6281 	.db #0x00
   1308 00                 6282 	.db #0x00
   1309 00                 6283 	.db #0x00
   130A 00                 6284 	.db #0x00
   130B 00                 6285 	.db #0x00
   130C 00                 6286 	.db #0x00
   130D 00                 6287 	.db #0x00
   130E 00                 6288 	.db #0x00
   130F 00                 6289 	.db #0x00
   1310 00                 6290 	.db #0x00
   1311 00                 6291 	.db #0x00
   1312 00                 6292 	.db #0x00
   1313 00                 6293 	.db #0x00
   1314 00                 6294 	.db #0x00
   1315 00                 6295 	.db #0x00
   1316 00                 6296 	.db #0x00
   1317 00                 6297 	.db #0x00
   1318 00                 6298 	.db #0x00
   1319 00                 6299 	.db #0x00
   131A 00                 6300 	.db #0x00
   131B 00                 6301 	.db #0x00
   131C 00                 6302 	.db #0x00
   131D 00                 6303 	.db #0x00
   131E 00                 6304 	.db #0x00
   131F 00                 6305 	.db #0x00
   1320 00                 6306 	.db #0x00
   1321 00                 6307 	.db #0x00
   1322 00                 6308 	.db #0x00
   1323 00                 6309 	.db #0x00
   1324 00                 6310 	.db #0x00
   1325 00                 6311 	.db #0x00
   1326 00                 6312 	.db #0x00
   1327 00                 6313 	.db #0x00
   1328 00                 6314 	.db #0x00
   1329 00                 6315 	.db #0x00
   132A 00                 6316 	.db #0x00
   132B 00                 6317 	.db #0x00
   132C 00                 6318 	.db #0x00
   132D 00                 6319 	.db #0x00
   132E 00                 6320 	.db #0x00
   132F 00                 6321 	.db #0x00
   1330 00                 6322 	.db #0x00
   1331 00                 6323 	.db #0x00
   1332 00                 6324 	.db #0x00
   1333 00                 6325 	.db #0x00
   1334 00                 6326 	.db #0x00
   1335 00                 6327 	.db #0x00
   1336 00                 6328 	.db #0x00
   1337 00                 6329 	.db #0x00
   1338 00                 6330 	.db #0x00
   1339 00                 6331 	.db #0x00
   133A 00                 6332 	.db #0x00
   133B 00                 6333 	.db #0x00
   133C 00                 6334 	.db #0x00
   133D 00                 6335 	.db #0x00
   133E 00                 6336 	.db #0x00
   133F 00                 6337 	.db #0x00
   1340 00                 6338 	.db #0x00
   1341 00                 6339 	.db #0x00
   1342 00                 6340 	.db #0x00
   1343 00                 6341 	.db #0x00
   1344 00                 6342 	.db #0x00
   1345 00                 6343 	.db #0x00
   1346 00                 6344 	.db #0x00
   1347 00                 6345 	.db #0x00
   1348 00                 6346 	.db #0x00
   1349 00                 6347 	.db #0x00
   134A 00                 6348 	.db #0x00
   134B 00                 6349 	.db #0x00
   134C 00                 6350 	.db #0x00
   134D 00                 6351 	.db #0x00
   134E 00                 6352 	.db #0x00
   134F 00                 6353 	.db #0x00
   1350 01                 6354 	.db #0x01
   1351 02                 6355 	.db #0x02
   1352 03                 6356 	.db #0x03
   1353 04                 6357 	.db #0x04
   1354 05                 6358 	.db #0x05
   1355 06                 6359 	.db #0x06
   1356 07                 6360 	.db #0x07
   1357 08                 6361 	.db #0x08
   1358 09                 6362 	.db #0x09
   1359 0A                 6363 	.db #0x0A
   135A 0B                 6364 	.db #0x0B
   135B 00                 6365 	.db #0x00
   135C 00                 6366 	.db #0x00
   135D 00                 6367 	.db #0x00
   135E 0C                 6368 	.db #0x0C
   135F 00                 6369 	.db #0x00
   1360 00                 6370 	.db #0x00
   1361 00                 6371 	.db #0x00
   1362 00                 6372 	.db #0x00
   1363 00                 6373 	.db #0x00
   1364 0D                 6374 	.db #0x0D
   1365 0E                 6375 	.db #0x0E
   1366 0F                 6376 	.db #0x0F
   1367 10                 6377 	.db #0x10
   1368 11                 6378 	.db #0x11
   1369 12                 6379 	.db #0x12
   136A 13                 6380 	.db #0x13
   136B 14                 6381 	.db #0x14
   136C 15                 6382 	.db #0x15
   136D 16                 6383 	.db #0x16
   136E 17                 6384 	.db #0x17
   136F 18                 6385 	.db #0x18
   1370 19                 6386 	.db #0x19
   1371 1A                 6387 	.db #0x1A
   1372 1B                 6388 	.db #0x1B
   1373 1C                 6389 	.db #0x1C
   1374 00                 6390 	.db #0x00
   1375 00                 6391 	.db #0x00
   1376 00                 6392 	.db #0x00
   1377 00                 6393 	.db #0x00
   1378 1D                 6394 	.db #0x1D
   1379 1E                 6395 	.db #0x1E
   137A 1F                 6396 	.db #0x1F
   137B 20                 6397 	.db #0x20
   137C 21                 6398 	.db #0x21
   137D 22                 6399 	.db #0x22
   137E 23                 6400 	.db #0x23
   137F 24                 6401 	.db #0x24
   1380 25                 6402 	.db #0x25
   1381 26                 6403 	.db #0x26
   1382 27                 6404 	.db #0x27
   1383 28                 6405 	.db #0x28
   1384 29                 6406 	.db #0x29
   1385 2A                 6407 	.db #0x2A
   1386 2B                 6408 	.db #0x2B
   1387 2C                 6409 	.db #0x2C
   1388 00                 6410 	.db #0x00
   1389 00                 6411 	.db #0x00
   138A 00                 6412 	.db #0x00
   138B 00                 6413 	.db #0x00
   138C 00                 6414 	.db #0x00
   138D 00                 6415 	.db #0x00
   138E 2D                 6416 	.db #0x2D
   138F 2E                 6417 	.db #0x2E
   1390 2F                 6418 	.db #0x2F
   1391 00                 6419 	.db #0x00
   1392 30                 6420 	.db #0x30
   1393 00                 6421 	.db #0x00
   1394 00                 6422 	.db #0x00
   1395 00                 6423 	.db #0x00
   1396 00                 6424 	.db #0x00
   1397 00                 6425 	.db #0x00
   1398 00                 6426 	.db #0x00
   1399 00                 6427 	.db #0x00
   139A 00                 6428 	.db #0x00
   139B 00                 6429 	.db #0x00
   139C 00                 6430 	.db #0x00
   139D 00                 6431 	.db #0x00
   139E 00                 6432 	.db #0x00
   139F 00                 6433 	.db #0x00
   13A0 00                 6434 	.db #0x00
   13A1 00                 6435 	.db #0x00
   13A2 31                 6436 	.db #0x31
   13A3 32                 6437 	.db #0x32
   13A4 33                 6438 	.db #0x33
   13A5 34                 6439 	.db #0x34
   13A6 35                 6440 	.db #0x35
   13A7 36                 6441 	.db #0x36
   13A8 37                 6442 	.db #0x37
   13A9 38                 6443 	.db #0x38
   13AA 39                 6444 	.db #0x39
   13AB 3A                 6445 	.db #0x3A
   13AC 3B                 6446 	.db #0x3B
   13AD 3C                 6447 	.db #0x3C
   13AE 00                 6448 	.db #0x00
   13AF 00                 6449 	.db #0x00
   13B0 00                 6450 	.db #0x00
   13B1 00                 6451 	.db #0x00
   13B2 00                 6452 	.db #0x00
   13B3 00                 6453 	.db #0x00
   13B4 00                 6454 	.db #0x00
   13B5 00                 6455 	.db #0x00
   13B6 3D                 6456 	.db #0x3D
   13B7 3E                 6457 	.db #0x3E
   13B8 3F                 6458 	.db #0x3F
   13B9 40                 6459 	.db #0x40
   13BA 41                 6460 	.db #0x41
   13BB 42                 6461 	.db #0x42
   13BC 43                 6462 	.db #0x43
   13BD 44                 6463 	.db #0x44
   13BE 45                 6464 	.db #0x45
   13BF 46                 6465 	.db #0x46
   13C0 47                 6466 	.db #0x47
   13C1 48                 6467 	.db #0x48
   13C2 00                 6468 	.db #0x00
   13C3 00                 6469 	.db #0x00
   13C4 00                 6470 	.db #0x00
   13C5 00                 6471 	.db #0x00
   13C6 00                 6472 	.db #0x00
   13C7 00                 6473 	.db #0x00
   13C8 00                 6474 	.db #0x00
   13C9 00                 6475 	.db #0x00
   13CA 00                 6476 	.db #0x00
   13CB 00                 6477 	.db #0x00
   13CC 00                 6478 	.db #0x00
   13CD 00                 6479 	.db #0x00
   13CE 00                 6480 	.db #0x00
   13CF 00                 6481 	.db #0x00
   13D0 00                 6482 	.db #0x00
   13D1 00                 6483 	.db #0x00
   13D2 00                 6484 	.db #0x00
   13D3 00                 6485 	.db #0x00
   13D4 00                 6486 	.db #0x00
   13D5 00                 6487 	.db #0x00
   13D6 00                 6488 	.db #0x00
   13D7 00                 6489 	.db #0x00
   13D8 00                 6490 	.db #0x00
   13D9 00                 6491 	.db #0x00
   13DA 00                 6492 	.db #0x00
   13DB 00                 6493 	.db #0x00
   13DC 00                 6494 	.db #0x00
   13DD 00                 6495 	.db #0x00
   13DE 00                 6496 	.db #0x00
   13DF 00                 6497 	.db #0x00
   13E0 00                 6498 	.db #0x00
   13E1 00                 6499 	.db #0x00
   13E2 00                 6500 	.db #0x00
   13E3 00                 6501 	.db #0x00
   13E4 00                 6502 	.db #0x00
   13E5 00                 6503 	.db #0x00
   13E6 00                 6504 	.db #0x00
   13E7 00                 6505 	.db #0x00
   13E8 00                 6506 	.db #0x00
   13E9 00                 6507 	.db #0x00
   13EA 00                 6508 	.db #0x00
   13EB 00                 6509 	.db #0x00
   13EC 00                 6510 	.db #0x00
   13ED 00                 6511 	.db #0x00
   13EE 00                 6512 	.db #0x00
   13EF 00                 6513 	.db #0x00
   13F0 00                 6514 	.db #0x00
   13F1 00                 6515 	.db #0x00
   13F2 00                 6516 	.db #0x00
   13F3 00                 6517 	.db #0x00
   13F4 00                 6518 	.db #0x00
   13F5 00                 6519 	.db #0x00
   13F6 00                 6520 	.db #0x00
   13F7 00                 6521 	.db #0x00
   13F8 00                 6522 	.db #0x00
   13F9 00                 6523 	.db #0x00
   13FA 00                 6524 	.db #0x00
   13FB 00                 6525 	.db #0x00
   13FC 00                 6526 	.db #0x00
   13FD 00                 6527 	.db #0x00
   13FE 00                 6528 	.db #0x00
   13FF 00                 6529 	.db #0x00
   1400 00                 6530 	.db #0x00
   1401 00                 6531 	.db #0x00
   1402 00                 6532 	.db #0x00
   1403 49                 6533 	.db #0x49
   1404 4A                 6534 	.db #0x4A
   1405 4B                 6535 	.db #0x4B
   1406 4C                 6536 	.db #0x4C
   1407 4D                 6537 	.db #0x4D
   1408 4E                 6538 	.db #0x4E
   1409 4F                 6539 	.db #0x4F
   140A 50                 6540 	.db #0x50
   140B 51                 6541 	.db #0x51
   140C 52                 6542 	.db #0x52
   140D 53                 6543 	.db #0x53
   140E 54                 6544 	.db #0x54
   140F 55                 6545 	.db #0x55
   1410 56                 6546 	.db #0x56
   1411 57                 6547 	.db #0x57
   1412 58                 6548 	.db #0x58
   1413 59                 6549 	.db #0x59
   1414 5A                 6550 	.db #0x5A
   1415 00                 6551 	.db #0x00
   1416 00                 6552 	.db #0x00
   1417 5B                 6553 	.db #0x5B
   1418 5C                 6554 	.db #0x5C
   1419 5D                 6555 	.db #0x5D
   141A 5E                 6556 	.db #0x5E
   141B 5F                 6557 	.db #0x5F
   141C 5E                 6558 	.db #0x5E
   141D 60                 6559 	.db #0x60
   141E 61                 6560 	.db #0x61
   141F 62                 6561 	.db #0x62
   1420 63                 6562 	.db #0x63
   1421 64                 6563 	.db #0x64
   1422 65                 6564 	.db #0x65
   1423 66                 6565 	.db #0x66
   1424 67                 6566 	.db #0x67
   1425 68                 6567 	.db #0x68
   1426 69                 6568 	.db #0x69
   1427 6A                 6569 	.db #0x6A
   1428 6B                 6570 	.db #0x6B
   1429 00                 6571 	.db #0x00
   142A 00                 6572 	.db #0x00
   142B 6C                 6573 	.db #0x6C
   142C 6D                 6574 	.db #0x6D
   142D 6E                 6575 	.db #0x6E
   142E 6F                 6576 	.db #0x6F
   142F 70                 6577 	.db #0x70
   1430 6F                 6578 	.db #0x6F
   1431 71                 6579 	.db #0x71
   1432 72                 6580 	.db #0x72
   1433 73                 6581 	.db #0x73
   1434 74                 6582 	.db #0x74
   1435 75                 6583 	.db #0x75
   1436 76                 6584 	.db #0x76
   1437 77                 6585 	.db #0x77
   1438 78                 6586 	.db #0x78
   1439 79                 6587 	.db #0x79
   143A 7A                 6588 	.db #0x7A
   143B 7B                 6589 	.db #0x7B
   143C 1F                 6590 	.db #0x1F
   143D 00                 6591 	.db #0x00
   143E 00                 6592 	.db #0x00
   143F 00                 6593 	.db #0x00
   1440 00                 6594 	.db #0x00
   1441 00                 6595 	.db #0x00
   1442 00                 6596 	.db #0x00
   1443 00                 6597 	.db #0x00
   1444 00                 6598 	.db #0x00
   1445 00                 6599 	.db #0x00
   1446 00                 6600 	.db #0x00
   1447 00                 6601 	.db #0x00
   1448 00                 6602 	.db #0x00
   1449 00                 6603 	.db #0x00
   144A 00                 6604 	.db #0x00
   144B 00                 6605 	.db #0x00
   144C 00                 6606 	.db #0x00
   144D 00                 6607 	.db #0x00
   144E 00                 6608 	.db #0x00
   144F 00                 6609 	.db #0x00
   1450 00                 6610 	.db #0x00
   1451 00                 6611 	.db #0x00
   1452                    6612 _how_to_data:
   1452 00                 6613 	.db #0x00
   1453 00                 6614 	.db #0x00
   1454 00                 6615 	.db #0x00
   1455 00                 6616 	.db #0x00
   1456 00                 6617 	.db #0x00
   1457 00                 6618 	.db #0x00
   1458 00                 6619 	.db #0x00
   1459 00                 6620 	.db #0x00
   145A 00                 6621 	.db #0x00
   145B 00                 6622 	.db #0x00
   145C 00                 6623 	.db #0x00
   145D 00                 6624 	.db #0x00
   145E 00                 6625 	.db #0x00
   145F 00                 6626 	.db #0x00
   1460 00                 6627 	.db #0x00
   1461 00                 6628 	.db #0x00
   1462 00                 6629 	.db #0x00
   1463 00                 6630 	.db #0x00
   1464 0E                 6631 	.db #0x0E
   1465 1F                 6632 	.db #0x1F
   1466 0F                 6633 	.db #0x0F
   1467 1F                 6634 	.db #0x1F
   1468 01                 6635 	.db #0x01
   1469 07                 6636 	.db #0x07
   146A 03                 6637 	.db #0x03
   146B 04                 6638 	.db #0x04
   146C 02                 6639 	.db #0x02
   146D 04                 6640 	.db #0x04
   146E 02                 6641 	.db #0x02
   146F 04                 6642 	.db #0x04
   1470 02                 6643 	.db #0x02
   1471 04                 6644 	.db #0x04
   1472 00                 6645 	.db #0x00
   1473 00                 6646 	.db #0x00
   1474 0F                 6647 	.db #0x0F
   1475 0F                 6648 	.db #0x0F
   1476 8F                 6649 	.db #0x8F
   1477 0F                 6650 	.db #0x0F
   1478 82                 6651 	.db #0x82
   1479 82                 6652 	.db #0x82
   147A C2                 6653 	.db #0xC2
   147B 82                 6654 	.db #0x82
   147C 42                 6655 	.db #0x42
   147D C2                 6656 	.db #0xC2
   147E E2                 6657 	.db #0xE2
   147F 42                 6658 	.db #0x42
   1480 22                 6659 	.db #0x22
   1481 62                 6660 	.db #0x62
   1482 00                 6661 	.db #0x00
   1483 00                 6662 	.db #0x00
   1484 80                 6663 	.db #0x80
   1485 80                 6664 	.db #0x80
   1486 80                 6665 	.db #0x80
   1487 80                 6666 	.db #0x80
   1488 00                 6667 	.db #0x00
   1489 00                 6668 	.db #0x00
   148A 00                 6669 	.db #0x00
   148B 00                 6670 	.db #0x00
   148C 0C                 6671 	.db #0x0C
   148D 03                 6672 	.db #0x03
   148E 1F                 6673 	.db #0x1F
   148F 0F                 6674 	.db #0x0F
   1490 30                 6675 	.db #0x30
   1491 18                 6676 	.db #0x18
   1492 00                 6677 	.db #0x00
   1493 00                 6678 	.db #0x00
   1494 00                 6679 	.db #0x00
   1495 00                 6680 	.db #0x00
   1496 00                 6681 	.db #0x00
   1497 00                 6682 	.db #0x00
   1498 03                 6683 	.db #0x03
   1499 00                 6684 	.db #0x00
   149A 03                 6685 	.db #0x03
   149B 02                 6686 	.db #0x02
   149C 87                 6687 	.db #0x87
   149D 07                 6688 	.db #0x07
   149E C7                 6689 	.db #0xC7
   149F C7                 6690 	.db #0xC7
   14A0 C3                 6691 	.db #0xC3
   14A1 62                 6692 	.db #0x62
   14A2 00                 6693 	.db #0x00
   14A3 00                 6694 	.db #0x00
   14A4 00                 6695 	.db #0x00
   14A5 00                 6696 	.db #0x00
   14A6 00                 6697 	.db #0x00
   14A7 00                 6698 	.db #0x00
   14A8 00                 6699 	.db #0x00
   14A9 00                 6700 	.db #0x00
   14AA 00                 6701 	.db #0x00
   14AB 00                 6702 	.db #0x00
   14AC C0                 6703 	.db #0xC0
   14AD 80                 6704 	.db #0x80
   14AE C0                 6705 	.db #0xC0
   14AF 80                 6706 	.db #0x80
   14B0 00                 6707 	.db #0x00
   14B1 00                 6708 	.db #0x00
   14B2 00                 6709 	.db #0x00
   14B3 00                 6710 	.db #0x00
   14B4 00                 6711 	.db #0x00
   14B5 00                 6712 	.db #0x00
   14B6 00                 6713 	.db #0x00
   14B7 00                 6714 	.db #0x00
   14B8 00                 6715 	.db #0x00
   14B9 00                 6716 	.db #0x00
   14BA 00                 6717 	.db #0x00
   14BB 00                 6718 	.db #0x00
   14BC 2A                 6719 	.db #0x2A
   14BD 1C                 6720 	.db #0x1C
   14BE 7F                 6721 	.db #0x7F
   14BF 3F                 6722 	.db #0x3F
   14C0 E3                 6723 	.db #0xE3
   14C1 41                 6724 	.db #0x41
   14C2 00                 6725 	.db #0x00
   14C3 00                 6726 	.db #0x00
   14C4 00                 6727 	.db #0x00
   14C5 00                 6728 	.db #0x00
   14C6 00                 6729 	.db #0x00
   14C7 00                 6730 	.db #0x00
   14C8 00                 6731 	.db #0x00
   14C9 00                 6732 	.db #0x00
   14CA 00                 6733 	.db #0x00
   14CB 00                 6734 	.db #0x00
   14CC 3D                 6735 	.db #0x3D
   14CD 1C                 6736 	.db #0x1C
   14CE 3D                 6737 	.db #0x3D
   14CF 1F                 6738 	.db #0x1F
   14D0 0C                 6739 	.db #0x0C
   14D1 86                 6740 	.db #0x86
   14D2 00                 6741 	.db #0x00
   14D3 00                 6742 	.db #0x00
   14D4 00                 6743 	.db #0x00
   14D5 00                 6744 	.db #0x00
   14D6 00                 6745 	.db #0x00
   14D7 00                 6746 	.db #0x00
   14D8 00                 6747 	.db #0x00
   14D9 00                 6748 	.db #0x00
   14DA 00                 6749 	.db #0x00
   14DB 00                 6750 	.db #0x00
   14DC 20                 6751 	.db #0x20
   14DD C0                 6752 	.db #0xC0
   14DE F1                 6753 	.db #0xF1
   14DF E0                 6754 	.db #0xE0
   14E0 33                 6755 	.db #0x33
   14E1 21                 6756 	.db #0x21
   14E2 00                 6757 	.db #0x00
   14E3 00                 6758 	.db #0x00
   14E4 00                 6759 	.db #0x00
   14E5 00                 6760 	.db #0x00
   14E6 00                 6761 	.db #0x00
   14E7 00                 6762 	.db #0x00
   14E8 00                 6763 	.db #0x00
   14E9 00                 6764 	.db #0x00
   14EA 00                 6765 	.db #0x00
   14EB 00                 6766 	.db #0x00
   14EC C8                 6767 	.db #0xC8
   14ED 30                 6768 	.db #0x30
   14EE FC                 6769 	.db #0xFC
   14EF FC                 6770 	.db #0xFC
   14F0 0C                 6771 	.db #0x0C
   14F1 86                 6772 	.db #0x86
   14F2 00                 6773 	.db #0x00
   14F3 00                 6774 	.db #0x00
   14F4 00                 6775 	.db #0x00
   14F5 00                 6776 	.db #0x00
   14F6 00                 6777 	.db #0x00
   14F7 00                 6778 	.db #0x00
   14F8 00                 6779 	.db #0x00
   14F9 00                 6780 	.db #0x00
   14FA 00                 6781 	.db #0x00
   14FB 00                 6782 	.db #0x00
   14FC F3                 6783 	.db #0xF3
   14FD 63                 6784 	.db #0x63
   14FE F3                 6785 	.db #0xF3
   14FF 63                 6786 	.db #0x63
   1500 30                 6787 	.db #0x30
   1501 20                 6788 	.db #0x20
   1502 00                 6789 	.db #0x00
   1503 00                 6790 	.db #0x00
   1504 00                 6791 	.db #0x00
   1505 00                 6792 	.db #0x00
   1506 00                 6793 	.db #0x00
   1507 00                 6794 	.db #0x00
   1508 00                 6795 	.db #0x00
   1509 00                 6796 	.db #0x00
   150A 00                 6797 	.db #0x00
   150B 00                 6798 	.db #0x00
   150C C2                 6799 	.db #0xC2
   150D 81                 6800 	.db #0x81
   150E C3                 6801 	.db #0xC3
   150F 87                 6802 	.db #0x87
   1510 CC                 6803 	.db #0xCC
   1511 86                 6804 	.db #0x86
   1512 00                 6805 	.db #0x00
   1513 00                 6806 	.db #0x00
   1514 00                 6807 	.db #0x00
   1515 00                 6808 	.db #0x00
   1516 00                 6809 	.db #0x00
   1517 00                 6810 	.db #0x00
   1518 00                 6811 	.db #0x00
   1519 00                 6812 	.db #0x00
   151A 00                 6813 	.db #0x00
   151B 00                 6814 	.db #0x00
   151C 4E                 6815 	.db #0x4E
   151D 8E                 6816 	.db #0x8E
   151E EE                 6817 	.db #0xEE
   151F FE                 6818 	.db #0xFE
   1520 3C                 6819 	.db #0x3C
   1521 18                 6820 	.db #0x18
   1522 00                 6821 	.db #0x00
   1523 00                 6822 	.db #0x00
   1524 E0                 6823 	.db #0xE0
   1525 70                 6824 	.db #0x70
   1526 E0                 6825 	.db #0xE0
   1527 70                 6826 	.db #0x70
   1528 00                 6827 	.db #0x00
   1529 30                 6828 	.db #0x30
   152A 00                 6829 	.db #0x00
   152B 30                 6830 	.db #0x30
   152C 04                 6831 	.db #0x04
   152D 33                 6832 	.db #0x33
   152E 17                 6833 	.db #0x17
   152F 3F                 6834 	.db #0x3F
   1530 19                 6835 	.db #0x19
   1531 30                 6836 	.db #0x30
   1532 00                 6837 	.db #0x00
   1533 00                 6838 	.db #0x00
   1534 00                 6839 	.db #0x00
   1535 00                 6840 	.db #0x00
   1536 00                 6841 	.db #0x00
   1537 00                 6842 	.db #0x00
   1538 00                 6843 	.db #0x00
   1539 00                 6844 	.db #0x00
   153A 00                 6845 	.db #0x00
   153B 00                 6846 	.db #0x00
   153C 80                 6847 	.db #0x80
   153D 00                 6848 	.db #0x00
   153E C0                 6849 	.db #0xC0
   153F 80                 6850 	.db #0x80
   1540 C0                 6851 	.db #0xC0
   1541 80                 6852 	.db #0x80
   1542 02                 6853 	.db #0x02
   1543 04                 6854 	.db #0x04
   1544 02                 6855 	.db #0x02
   1545 04                 6856 	.db #0x04
   1546 02                 6857 	.db #0x02
   1547 04                 6858 	.db #0x04
   1548 02                 6859 	.db #0x02
   1549 04                 6860 	.db #0x04
   154A 02                 6861 	.db #0x02
   154B 04                 6862 	.db #0x04
   154C 0F                 6863 	.db #0x0F
   154D 1F                 6864 	.db #0x1F
   154E 0F                 6865 	.db #0x0F
   154F 1F                 6866 	.db #0x1F
   1550 00                 6867 	.db #0x00
   1551 00                 6868 	.db #0x00
   1552 32                 6869 	.db #0x32
   1553 22                 6870 	.db #0x22
   1554 32                 6871 	.db #0x32
   1555 12                 6872 	.db #0x12
   1556 12                 6873 	.db #0x12
   1557 1A                 6874 	.db #0x1A
   1558 1E                 6875 	.db #0x1E
   1559 0A                 6876 	.db #0x0A
   155A 0E                 6877 	.db #0x0E
   155B 0E                 6878 	.db #0x0E
   155C 8E                 6879 	.db #0x8E
   155D 06                 6880 	.db #0x06
   155E 82                 6881 	.db #0x82
   155F 06                 6882 	.db #0x06
   1560 00                 6883 	.db #0x00
   1561 00                 6884 	.db #0x00
   1562 10                 6885 	.db #0x10
   1563 30                 6886 	.db #0x30
   1564 30                 6887 	.db #0x30
   1565 20                 6888 	.db #0x20
   1566 30                 6889 	.db #0x30
   1567 20                 6890 	.db #0x20
   1568 30                 6891 	.db #0x30
   1569 30                 6892 	.db #0x30
   156A 30                 6893 	.db #0x30
   156B 18                 6894 	.db #0x18
   156C 1F                 6895 	.db #0x1F
   156D 0F                 6896 	.db #0x0F
   156E 0A                 6897 	.db #0x0A
   156F 07                 6898 	.db #0x07
   1570 00                 6899 	.db #0x00
   1571 00                 6900 	.db #0x00
   1572 73                 6901 	.db #0x73
   1573 22                 6902 	.db #0x22
   1574 33                 6903 	.db #0x33
   1575 22                 6904 	.db #0x22
   1576 33                 6905 	.db #0x33
   1577 22                 6906 	.db #0x22
   1578 73                 6907 	.db #0x73
   1579 22                 6908 	.db #0x22
   157A C3                 6909 	.db #0xC3
   157B 62                 6910 	.db #0x62
   157C C3                 6911 	.db #0xC3
   157D C3                 6912 	.db #0xC3
   157E 82                 6913 	.db #0x82
   157F 01                 6914 	.db #0x01
   1580 00                 6915 	.db #0x00
   1581 00                 6916 	.db #0x00
   1582 81                 6917 	.db #0x81
   1583 C0                 6918 	.db #0xC0
   1584 FF                 6919 	.db #0xFF
   1585 FF                 6920 	.db #0xFF
   1586 80                 6921 	.db #0x80
   1587 C0                 6922 	.db #0xC0
   1588 C0                 6923 	.db #0xC0
   1589 C0                 6924 	.db #0xC0
   158A C0                 6925 	.db #0xC0
   158B 61                 6926 	.db #0x61
   158C 7F                 6927 	.db #0x7F
   158D 3F                 6928 	.db #0x3F
   158E 32                 6929 	.db #0x32
   158F 0C                 6930 	.db #0x0C
   1590 00                 6931 	.db #0x00
   1591 00                 6932 	.db #0x00
   1592 CC                 6933 	.db #0xCC
   1593 84                 6934 	.db #0x84
   1594 CC                 6935 	.db #0xCC
   1595 84                 6936 	.db #0x84
   1596 0C                 6937 	.db #0x0C
   1597 04                 6938 	.db #0x04
   1598 8C                 6939 	.db #0x8C
   1599 04                 6940 	.db #0x04
   159A 8C                 6941 	.db #0x8C
   159B 84                 6942 	.db #0x84
   159C 3F                 6943 	.db #0x3F
   159D 1E                 6944 	.db #0x1E
   159E 3F                 6945 	.db #0x3F
   159F 1E                 6946 	.db #0x1E
   15A0 00                 6947 	.db #0x00
   15A1 00                 6948 	.db #0x00
   15A2 31                 6949 	.db #0x31
   15A3 23                 6950 	.db #0x23
   15A4 33                 6951 	.db #0x33
   15A5 22                 6952 	.db #0x22
   15A6 33                 6953 	.db #0x33
   15A7 22                 6954 	.db #0x22
   15A8 33                 6955 	.db #0x33
   15A9 23                 6956 	.db #0x23
   15AA 33                 6957 	.db #0x33
   15AB 21                 6958 	.db #0x21
   15AC 39                 6959 	.db #0x39
   15AD 38                 6960 	.db #0x38
   15AE 38                 6961 	.db #0x38
   15AF 38                 6962 	.db #0x38
   15B0 00                 6963 	.db #0x00
   15B1 00                 6964 	.db #0x00
   15B2 07                 6965 	.db #0x07
   15B3 02                 6966 	.db #0x02
   15B4 03                 6967 	.db #0x03
   15B5 02                 6968 	.db #0x02
   15B6 03                 6969 	.db #0x03
   15B7 02                 6970 	.db #0x02
   15B8 07                 6971 	.db #0x07
   15B9 02                 6972 	.db #0x02
   15BA 0C                 6973 	.db #0x0C
   15BB 86                 6974 	.db #0x86
   15BC FC                 6975 	.db #0xFC
   15BD FC                 6976 	.db #0xFC
   15BE A8                 6977 	.db #0xA8
   15BF 70                 6978 	.db #0x70
   15C0 00                 6979 	.db #0x00
   15C1 00                 6980 	.db #0x00
   15C2 30                 6981 	.db #0x30
   15C3 20                 6982 	.db #0x20
   15C4 30                 6983 	.db #0x30
   15C5 20                 6984 	.db #0x20
   15C6 30                 6985 	.db #0x30
   15C7 20                 6986 	.db #0x20
   15C8 31                 6987 	.db #0x31
   15C9 20                 6988 	.db #0x20
   15CA 22                 6989 	.db #0x22
   15CB 31                 6990 	.db #0x31
   15CC 1F                 6991 	.db #0x1F
   15CD 3F                 6992 	.db #0x3F
   15CE 1B                 6993 	.db #0x1B
   15CF 0C                 6994 	.db #0x0C
   15D0 00                 6995 	.db #0x00
   15D1 00                 6996 	.db #0x00
   15D2 C8                 6997 	.db #0xC8
   15D3 8C                 6998 	.db #0x8C
   15D4 CC                 6999 	.db #0xCC
   15D5 88                 7000 	.db #0x88
   15D6 CC                 7001 	.db #0xCC
   15D7 88                 7002 	.db #0x88
   15D8 C8                 7003 	.db #0xC8
   15D9 8C                 7004 	.db #0x8C
   15DA CE                 7005 	.db #0xCE
   15DB 84                 7006 	.db #0x84
   15DC E3                 7007 	.db #0xE3
   15DD E7                 7008 	.db #0xE7
   15DE E2                 7009 	.db #0xE2
   15DF E1                 7010 	.db #0xE1
   15E0 00                 7011 	.db #0x00
   15E1 00                 7012 	.db #0x00
   15E2 1C                 7013 	.db #0x1C
   15E3 08                 7014 	.db #0x08
   15E4 0C                 7015 	.db #0x0C
   15E5 08                 7016 	.db #0x08
   15E6 0C                 7017 	.db #0x0C
   15E7 08                 7018 	.db #0x08
   15E8 1C                 7019 	.db #0x1C
   15E9 08                 7020 	.db #0x08
   15EA 3C                 7021 	.db #0x3C
   15EB 18                 7022 	.db #0x18
   15EC EC                 7023 	.db #0xEC
   15ED F8                 7024 	.db #0xF8
   15EE 4C                 7025 	.db #0x4C
   15EF 88                 7026 	.db #0x88
   15F0 1C                 7027 	.db #0x1C
   15F1 08                 7028 	.db #0x08
   15F2 10                 7029 	.db #0x10
   15F3 30                 7030 	.db #0x30
   15F4 00                 7031 	.db #0x00
   15F5 30                 7032 	.db #0x30
   15F6 00                 7033 	.db #0x00
   15F7 30                 7034 	.db #0x30
   15F8 00                 7035 	.db #0x00
   15F9 30                 7036 	.db #0x30
   15FA 00                 7037 	.db #0x00
   15FB 30                 7038 	.db #0x30
   15FC FC                 7039 	.db #0xFC
   15FD 78                 7040 	.db #0x78
   15FE FC                 7041 	.db #0xFC
   15FF 78                 7042 	.db #0x78
   1600 00                 7043 	.db #0x00
   1601 00                 7044 	.db #0x00
   1602 C0                 7045 	.db #0xC0
   1603 80                 7046 	.db #0x80
   1604 C0                 7047 	.db #0xC0
   1605 80                 7048 	.db #0x80
   1606 C0                 7049 	.db #0xC0
   1607 80                 7050 	.db #0x80
   1608 C0                 7051 	.db #0xC0
   1609 80                 7052 	.db #0x80
   160A C0                 7053 	.db #0xC0
   160B 80                 7054 	.db #0x80
   160C E0                 7055 	.db #0xE0
   160D E0                 7056 	.db #0xE0
   160E E0                 7057 	.db #0xE0
   160F E0                 7058 	.db #0xE0
   1610 00                 7059 	.db #0x00
   1611 00                 7060 	.db #0x00
   1612 06                 7061 	.db #0x06
   1613 00                 7062 	.db #0x00
   1614 03                 7063 	.db #0x03
   1615 07                 7064 	.db #0x07
   1616 02                 7065 	.db #0x02
   1617 01                 7066 	.db #0x01
   1618 00                 7067 	.db #0x00
   1619 00                 7068 	.db #0x00
   161A 00                 7069 	.db #0x00
   161B 00                 7070 	.db #0x00
   161C 00                 7071 	.db #0x00
   161D 00                 7072 	.db #0x00
   161E 00                 7073 	.db #0x00
   161F 00                 7074 	.db #0x00
   1620 00                 7075 	.db #0x00
   1621 00                 7076 	.db #0x00
   1622 28                 7077 	.db #0x28
   1623 18                 7078 	.db #0x18
   1624 F8                 7079 	.db #0xF8
   1625 F0                 7080 	.db #0xF0
   1626 A0                 7081 	.db #0xA0
   1627 C0                 7082 	.db #0xC0
   1628 00                 7083 	.db #0x00
   1629 00                 7084 	.db #0x00
   162A 00                 7085 	.db #0x00
   162B 00                 7086 	.db #0x00
   162C 00                 7087 	.db #0x00
   162D 00                 7088 	.db #0x00
   162E 00                 7089 	.db #0x00
   162F 00                 7090 	.db #0x00
   1630 00                 7091 	.db #0x00
   1631 00                 7092 	.db #0x00
   1632 00                 7093 	.db #0x00
   1633 00                 7094 	.db #0x00
   1634 00                 7095 	.db #0x00
   1635 00                 7096 	.db #0x00
   1636 00                 7097 	.db #0x00
   1637 00                 7098 	.db #0x00
   1638 00                 7099 	.db #0x00
   1639 00                 7100 	.db #0x00
   163A 00                 7101 	.db #0x00
   163B 00                 7102 	.db #0x00
   163C 10                 7103 	.db #0x10
   163D 0F                 7104 	.db #0x0F
   163E 3F                 7105 	.db #0x3F
   163F 1F                 7106 	.db #0x1F
   1640 31                 7107 	.db #0x31
   1641 20                 7108 	.db #0x20
   1642 00                 7109 	.db #0x00
   1643 00                 7110 	.db #0x00
   1644 00                 7111 	.db #0x00
   1645 00                 7112 	.db #0x00
   1646 00                 7113 	.db #0x00
   1647 00                 7114 	.db #0x00
   1648 00                 7115 	.db #0x00
   1649 00                 7116 	.db #0x00
   164A 00                 7117 	.db #0x00
   164B 00                 7118 	.db #0x00
   164C BD                 7119 	.db #0xBD
   164D 98                 7120 	.db #0x98
   164E B9                 7121 	.db #0xB9
   164F 9F                 7122 	.db #0x9F
   1650 8C                 7123 	.db #0x8C
   1651 8E                 7124 	.db #0x8E
   1652 00                 7125 	.db #0x00
   1653 00                 7126 	.db #0x00
   1654 00                 7127 	.db #0x00
   1655 00                 7128 	.db #0x00
   1656 00                 7129 	.db #0x00
   1657 00                 7130 	.db #0x00
   1658 00                 7131 	.db #0x00
   1659 00                 7132 	.db #0x00
   165A 00                 7133 	.db #0x00
   165B 00                 7134 	.db #0x00
   165C 20                 7135 	.db #0x20
   165D C0                 7136 	.db #0xC0
   165E F0                 7137 	.db #0xF0
   165F F0                 7138 	.db #0xF0
   1660 38                 7139 	.db #0x38
   1661 18                 7140 	.db #0x18
   1662 00                 7141 	.db #0x00
   1663 00                 7142 	.db #0x00
   1664 00                 7143 	.db #0x00
   1665 00                 7144 	.db #0x00
   1666 00                 7145 	.db #0x00
   1667 00                 7146 	.db #0x00
   1668 00                 7147 	.db #0x00
   1669 00                 7148 	.db #0x00
   166A 00                 7149 	.db #0x00
   166B 00                 7150 	.db #0x00
   166C 24                 7151 	.db #0x24
   166D 18                 7152 	.db #0x18
   166E 7E                 7153 	.db #0x7E
   166F 7E                 7154 	.db #0x7E
   1670 87                 7155 	.db #0x87
   1671 42                 7156 	.db #0x42
   1672 00                 7157 	.db #0x00
   1673 00                 7158 	.db #0x00
   1674 00                 7159 	.db #0x00
   1675 00                 7160 	.db #0x00
   1676 00                 7161 	.db #0x00
   1677 00                 7162 	.db #0x00
   1678 00                 7163 	.db #0x00
   1679 00                 7164 	.db #0x00
   167A 00                 7165 	.db #0x00
   167B 00                 7166 	.db #0x00
   167C 04                 7167 	.db #0x04
   167D 03                 7168 	.db #0x03
   167E 07                 7169 	.db #0x07
   167F 0F                 7170 	.db #0x0F
   1680 1C                 7171 	.db #0x1C
   1681 08                 7172 	.db #0x08
   1682 00                 7173 	.db #0x00
   1683 00                 7174 	.db #0x00
   1684 00                 7175 	.db #0x00
   1685 00                 7176 	.db #0x00
   1686 00                 7177 	.db #0x00
   1687 00                 7178 	.db #0x00
   1688 00                 7179 	.db #0x00
   1689 00                 7180 	.db #0x00
   168A 00                 7181 	.db #0x00
   168B 00                 7182 	.db #0x00
   168C B1                 7183 	.db #0xB1
   168D 20                 7184 	.db #0x20
   168E F3                 7185 	.db #0xF3
   168F E1                 7186 	.db #0xE1
   1690 77                 7187 	.db #0x77
   1691 22                 7188 	.db #0x22
   1692 00                 7189 	.db #0x00
   1693 00                 7190 	.db #0x00
   1694 00                 7191 	.db #0x00
   1695 00                 7192 	.db #0x00
   1696 00                 7193 	.db #0x00
   1697 00                 7194 	.db #0x00
   1698 00                 7195 	.db #0x00
   1699 00                 7196 	.db #0x00
   169A 00                 7197 	.db #0x00
   169B 00                 7198 	.db #0x00
   169C 50                 7199 	.db #0x50
   169D E0                 7200 	.db #0xE0
   169E F8                 7201 	.db #0xF8
   169F F8                 7202 	.db #0xF8
   16A0 18                 7203 	.db #0x18
   16A1 0C                 7204 	.db #0x0C
   16A2 00                 7205 	.db #0x00
   16A3 00                 7206 	.db #0x00
   16A4 01                 7207 	.db #0x01
   16A5 02                 7208 	.db #0x02
   16A6 01                 7209 	.db #0x01
   16A7 02                 7210 	.db #0x02
   16A8 00                 7211 	.db #0x00
   16A9 00                 7212 	.db #0x00
   16AA 00                 7213 	.db #0x00
   16AB 00                 7214 	.db #0x00
   16AC 06                 7215 	.db #0x06
   16AD 07                 7216 	.db #0x07
   16AE 06                 7217 	.db #0x06
   16AF 07                 7218 	.db #0x07
   16B0 00                 7219 	.db #0x00
   16B1 03                 7220 	.db #0x03
   16B2 00                 7221 	.db #0x00
   16B3 00                 7222 	.db #0x00
   16B4 00                 7223 	.db #0x00
   16B5 00                 7224 	.db #0x00
   16B6 00                 7225 	.db #0x00
   16B7 00                 7226 	.db #0x00
   16B8 00                 7227 	.db #0x00
   16B9 00                 7228 	.db #0x00
   16BA 00                 7229 	.db #0x00
   16BB 00                 7230 	.db #0x00
   16BC 3D                 7231 	.db #0x3D
   16BD 1C                 7232 	.db #0x1C
   16BE 3D                 7233 	.db #0x3D
   16BF 1F                 7234 	.db #0x1F
   16C0 0C                 7235 	.db #0x0C
   16C1 06                 7236 	.db #0x06
   16C2 00                 7237 	.db #0x00
   16C3 00                 7238 	.db #0x00
   16C4 00                 7239 	.db #0x00
   16C5 00                 7240 	.db #0x00
   16C6 00                 7241 	.db #0x00
   16C7 00                 7242 	.db #0x00
   16C8 00                 7243 	.db #0x00
   16C9 00                 7244 	.db #0x00
   16CA 00                 7245 	.db #0x00
   16CB 00                 7246 	.db #0x00
   16CC 20                 7247 	.db #0x20
   16CD C0                 7248 	.db #0xC0
   16CE F0                 7249 	.db #0xF0
   16CF E0                 7250 	.db #0xE0
   16D0 30                 7251 	.db #0x30
   16D1 20                 7252 	.db #0x20
   16D2 00                 7253 	.db #0x00
   16D3 00                 7254 	.db #0x00
   16D4 00                 7255 	.db #0x00
   16D5 00                 7256 	.db #0x00
   16D6 00                 7257 	.db #0x00
   16D7 00                 7258 	.db #0x00
   16D8 00                 7259 	.db #0x00
   16D9 00                 7260 	.db #0x00
   16DA 00                 7261 	.db #0x00
   16DB 00                 7262 	.db #0x00
   16DC 1D                 7263 	.db #0x1D
   16DD 1C                 7264 	.db #0x1C
   16DE 1D                 7265 	.db #0x1D
   16DF 1F                 7266 	.db #0x1F
   16E0 0C                 7267 	.db #0x0C
   16E1 06                 7268 	.db #0x06
   16E2 00                 7269 	.db #0x00
   16E3 00                 7270 	.db #0x00
   16E4 00                 7271 	.db #0x00
   16E5 00                 7272 	.db #0x00
   16E6 00                 7273 	.db #0x00
   16E7 00                 7274 	.db #0x00
   16E8 00                 7275 	.db #0x00
   16E9 00                 7276 	.db #0x00
   16EA 00                 7277 	.db #0x00
   16EB 00                 7278 	.db #0x00
   16EC 24                 7279 	.db #0x24
   16ED C3                 7280 	.db #0xC3
   16EE FF                 7281 	.db #0xFF
   16EF EF                 7282 	.db #0xEF
   16F0 39                 7283 	.db #0x39
   16F1 30                 7284 	.db #0x30
   16F2 00                 7285 	.db #0x00
   16F3 00                 7286 	.db #0x00
   16F4 00                 7287 	.db #0x00
   16F5 00                 7288 	.db #0x00
   16F6 00                 7289 	.db #0x00
   16F7 00                 7290 	.db #0x00
   16F8 00                 7291 	.db #0x00
   16F9 00                 7292 	.db #0x00
   16FA 00                 7293 	.db #0x00
   16FB 00                 7294 	.db #0x00
   16FC 82                 7295 	.db #0x82
   16FD 01                 7296 	.db #0x01
   16FE 87                 7297 	.db #0x87
   16FF 83                 7298 	.db #0x83
   1700 CE                 7299 	.db #0xCE
   1701 84                 7300 	.db #0x84
   1702 00                 7301 	.db #0x00
   1703 00                 7302 	.db #0x00
   1704 00                 7303 	.db #0x00
   1705 00                 7304 	.db #0x00
   1706 00                 7305 	.db #0x00
   1707 00                 7306 	.db #0x00
   1708 00                 7307 	.db #0x00
   1709 00                 7308 	.db #0x00
   170A 00                 7309 	.db #0x00
   170B 00                 7310 	.db #0x00
   170C A1                 7311 	.db #0xA1
   170D C1                 7312 	.db #0xC1
   170E F1                 7313 	.db #0xF1
   170F F1                 7314 	.db #0xF1
   1710 30                 7315 	.db #0x30
   1711 18                 7316 	.db #0x18
   1712 00                 7317 	.db #0x00
   1713 00                 7318 	.db #0x00
   1714 00                 7319 	.db #0x00
   1715 00                 7320 	.db #0x00
   1716 00                 7321 	.db #0x00
   1717 00                 7322 	.db #0x00
   1718 00                 7323 	.db #0x00
   1719 00                 7324 	.db #0x00
   171A 00                 7325 	.db #0x00
   171B 00                 7326 	.db #0x00
   171C D2                 7327 	.db #0xD2
   171D CC                 7328 	.db #0xCC
   171E DF                 7329 	.db #0xDF
   171F FE                 7330 	.db #0xFE
   1720 C3                 7331 	.db #0xC3
   1721 63                 7332 	.db #0x63
   1722 00                 7333 	.db #0x00
   1723 00                 7334 	.db #0x00
   1724 00                 7335 	.db #0x00
   1725 00                 7336 	.db #0x00
   1726 00                 7337 	.db #0x00
   1727 00                 7338 	.db #0x00
   1728 00                 7339 	.db #0x00
   1729 00                 7340 	.db #0x00
   172A 00                 7341 	.db #0x00
   172B 00                 7342 	.db #0x00
   172C 48                 7343 	.db #0x48
   172D 30                 7344 	.db #0x30
   172E F8                 7345 	.db #0xF8
   172F F8                 7346 	.db #0xF8
   1730 9C                 7347 	.db #0x9C
   1731 08                 7348 	.db #0x08
   1732 00                 7349 	.db #0x00
   1733 00                 7350 	.db #0x00
   1734 00                 7351 	.db #0x00
   1735 00                 7352 	.db #0x00
   1736 00                 7353 	.db #0x00
   1737 00                 7354 	.db #0x00
   1738 00                 7355 	.db #0x00
   1739 00                 7356 	.db #0x00
   173A 00                 7357 	.db #0x00
   173B 00                 7358 	.db #0x00
   173C 32                 7359 	.db #0x32
   173D 0C                 7360 	.db #0x0C
   173E 7F                 7361 	.db #0x7F
   173F 3F                 7362 	.db #0x3F
   1740 C3                 7363 	.db #0xC3
   1741 61                 7364 	.db #0x61
   1742 00                 7365 	.db #0x00
   1743 00                 7366 	.db #0x00
   1744 00                 7367 	.db #0x00
   1745 00                 7368 	.db #0x00
   1746 00                 7369 	.db #0x00
   1747 00                 7370 	.db #0x00
   1748 00                 7371 	.db #0x00
   1749 00                 7372 	.db #0x00
   174A 00                 7373 	.db #0x00
   174B 00                 7374 	.db #0x00
   174C 3D                 7375 	.db #0x3D
   174D 18                 7376 	.db #0x18
   174E 3B                 7377 	.db #0x3B
   174F 1D                 7378 	.db #0x1D
   1750 0C                 7379 	.db #0x0C
   1751 86                 7380 	.db #0x86
   1752 00                 7381 	.db #0x00
   1753 00                 7382 	.db #0x00
   1754 00                 7383 	.db #0x00
   1755 00                 7384 	.db #0x00
   1756 00                 7385 	.db #0x00
   1757 00                 7386 	.db #0x00
   1758 00                 7387 	.db #0x00
   1759 00                 7388 	.db #0x00
   175A 00                 7389 	.db #0x00
   175B 00                 7390 	.db #0x00
   175C 5C                 7391 	.db #0x5C
   175D FE                 7392 	.db #0xFE
   175E DC                 7393 	.db #0xDC
   175F FE                 7394 	.db #0xFE
   1760 00                 7395 	.db #0x00
   1761 0C                 7396 	.db #0x0C
   1762 00                 7397 	.db #0x00
   1763 00                 7398 	.db #0x00
   1764 00                 7399 	.db #0x00
   1765 00                 7400 	.db #0x00
   1766 00                 7401 	.db #0x00
   1767 00                 7402 	.db #0x00
   1768 00                 7403 	.db #0x00
   1769 00                 7404 	.db #0x00
   176A 00                 7405 	.db #0x00
   176B 00                 7406 	.db #0x00
   176C F8                 7407 	.db #0xF8
   176D 78                 7408 	.db #0x78
   176E F8                 7409 	.db #0xF8
   176F 78                 7410 	.db #0x78
   1770 70                 7411 	.db #0x70
   1771 20                 7412 	.db #0x20
   1772 08                 7413 	.db #0x08
   1773 30                 7414 	.db #0x30
   1774 1F                 7415 	.db #0x1F
   1775 1C                 7416 	.db #0x1C
   1776 0F                 7417 	.db #0x0F
   1777 07                 7418 	.db #0x07
   1778 00                 7419 	.db #0x00
   1779 01                 7420 	.db #0x01
   177A 31                 7421 	.db #0x31
   177B 20                 7422 	.db #0x20
   177C 3F                 7423 	.db #0x3F
   177D 3F                 7424 	.db #0x3F
   177E 39                 7425 	.db #0x39
   177F 26                 7426 	.db #0x26
   1780 00                 7427 	.db #0x00
   1781 00                 7428 	.db #0x00
   1782 0C                 7429 	.db #0x0C
   1783 0C                 7430 	.db #0x0C
   1784 0C                 7431 	.db #0x0C
   1785 08                 7432 	.db #0x08
   1786 0C                 7433 	.db #0x0C
   1787 88                 7434 	.db #0x88
   1788 C8                 7435 	.db #0xC8
   1789 8C                 7436 	.db #0x8C
   178A CE                 7437 	.db #0xCE
   178B 8C                 7438 	.db #0x8C
   178C 8B                 7439 	.db #0x8B
   178D 8F                 7440 	.db #0x8F
   178E 0D                 7441 	.db #0x0D
   178F 08                 7442 	.db #0x08
   1790 0C                 7443 	.db #0x0C
   1791 08                 7444 	.db #0x08
   1792 1C                 7445 	.db #0x1C
   1793 08                 7446 	.db #0x08
   1794 0C                 7447 	.db #0x0C
   1795 08                 7448 	.db #0x08
   1796 0C                 7449 	.db #0x0C
   1797 08                 7450 	.db #0x08
   1798 1C                 7451 	.db #0x1C
   1799 08                 7452 	.db #0x08
   179A 38                 7453 	.db #0x38
   179B 18                 7454 	.db #0x18
   179C F0                 7455 	.db #0xF0
   179D F0                 7456 	.db #0xF0
   179E 20                 7457 	.db #0x20
   179F C0                 7458 	.db #0xC0
   17A0 00                 7459 	.db #0x00
   17A1 00                 7460 	.db #0x00
   17A2 03                 7461 	.db #0x03
   17A3 02                 7462 	.db #0x02
   17A4 4F                 7463 	.db #0x4F
   17A5 32                 7464 	.db #0x32
   17A6 FF                 7465 	.db #0xFF
   17A7 7E                 7466 	.db #0x7E
   17A8 07                 7467 	.db #0x07
   17A9 C2                 7468 	.db #0xC2
   17AA 03                 7469 	.db #0x03
   17AB C2                 7470 	.db #0xC2
   17AC FF                 7471 	.db #0xFF
   17AD 7F                 7472 	.db #0x7F
   17AE 49                 7473 	.db #0x49
   17AF 33                 7474 	.db #0x33
   17B0 00                 7475 	.db #0x00
   17B1 00                 7476 	.db #0x00
   17B2 10                 7477 	.db #0x10
   17B3 18                 7478 	.db #0x18
   17B4 18                 7479 	.db #0x18
   17B5 10                 7480 	.db #0x10
   17B6 18                 7481 	.db #0x18
   17B7 10                 7482 	.db #0x10
   17B8 18                 7483 	.db #0x18
   17B9 18                 7484 	.db #0x18
   17BA 18                 7485 	.db #0x18
   17BB 0C                 7486 	.db #0x0C
   17BC 87                 7487 	.db #0x87
   17BD 8F                 7488 	.db #0x8F
   17BE 85                 7489 	.db #0x85
   17BF 83                 7490 	.db #0x83
   17C0 00                 7491 	.db #0x00
   17C1 00                 7492 	.db #0x00
   17C2 34                 7493 	.db #0x34
   17C3 26                 7494 	.db #0x26
   17C4 07                 7495 	.db #0x07
   17C5 07                 7496 	.db #0x07
   17C6 04                 7497 	.db #0x04
   17C7 06                 7498 	.db #0x06
   17C8 36                 7499 	.db #0x36
   17C9 06                 7500 	.db #0x06
   17CA 76                 7501 	.db #0x76
   17CB 23                 7502 	.db #0x23
   17CC E3                 7503 	.db #0xE3
   17CD C1                 7504 	.db #0xC1
   17CE 41                 7505 	.db #0x41
   17CF 80                 7506 	.db #0x80
   17D0 00                 7507 	.db #0x00
   17D1 00                 7508 	.db #0x00
   17D2 0E                 7509 	.db #0x0E
   17D3 04                 7510 	.db #0x04
   17D4 FE                 7511 	.db #0xFE
   17D5 FC                 7512 	.db #0xFC
   17D6 00                 7513 	.db #0x00
   17D7 00                 7514 	.db #0x00
   17D8 04                 7515 	.db #0x04
   17D9 00                 7516 	.db #0x00
   17DA 04                 7517 	.db #0x04
   17DB 0C                 7518 	.db #0x0C
   17DC F8                 7519 	.db #0xF8
   17DD F8                 7520 	.db #0xF8
   17DE 90                 7521 	.db #0x90
   17DF 60                 7522 	.db #0x60
   17E0 00                 7523 	.db #0x00
   17E1 00                 7524 	.db #0x00
   17E2 00                 7525 	.db #0x00
   17E3 03                 7526 	.db #0x03
   17E4 00                 7527 	.db #0x00
   17E5 03                 7528 	.db #0x03
   17E6 00                 7529 	.db #0x00
   17E7 03                 7530 	.db #0x03
   17E8 00                 7531 	.db #0x00
   17E9 03                 7532 	.db #0x03
   17EA 00                 7533 	.db #0x00
   17EB 03                 7534 	.db #0x03
   17EC 07                 7535 	.db #0x07
   17ED 07                 7536 	.db #0x07
   17EE 07                 7537 	.db #0x07
   17EF 07                 7538 	.db #0x07
   17F0 00                 7539 	.db #0x00
   17F1 00                 7540 	.db #0x00
   17F2 0C                 7541 	.db #0x0C
   17F3 04                 7542 	.db #0x04
   17F4 0C                 7543 	.db #0x0C
   17F5 04                 7544 	.db #0x04
   17F6 0C                 7545 	.db #0x0C
   17F7 04                 7546 	.db #0x04
   17F8 0C                 7547 	.db #0x0C
   17F9 04                 7548 	.db #0x04
   17FA 0C                 7549 	.db #0x0C
   17FB 04                 7550 	.db #0x04
   17FC FF                 7551 	.db #0xFF
   17FD 9E                 7552 	.db #0x9E
   17FE FF                 7553 	.db #0xFF
   17FF 9E                 7554 	.db #0x9E
   1800 00                 7555 	.db #0x00
   1801 00                 7556 	.db #0x00
   1802 30                 7557 	.db #0x30
   1803 20                 7558 	.db #0x20
   1804 30                 7559 	.db #0x30
   1805 20                 7560 	.db #0x20
   1806 30                 7561 	.db #0x30
   1807 20                 7562 	.db #0x20
   1808 30                 7563 	.db #0x30
   1809 20                 7564 	.db #0x20
   180A 30                 7565 	.db #0x30
   180B 20                 7566 	.db #0x20
   180C 38                 7567 	.db #0x38
   180D 38                 7568 	.db #0x38
   180E 38                 7569 	.db #0x38
   180F 38                 7570 	.db #0x38
   1810 00                 7571 	.db #0x00
   1811 00                 7572 	.db #0x00
   1812 0C                 7573 	.db #0x0C
   1813 04                 7574 	.db #0x04
   1814 0C                 7575 	.db #0x0C
   1815 04                 7576 	.db #0x04
   1816 0C                 7577 	.db #0x0C
   1817 04                 7578 	.db #0x04
   1818 0C                 7579 	.db #0x0C
   1819 04                 7580 	.db #0x04
   181A 0C                 7581 	.db #0x0C
   181B 04                 7582 	.db #0x04
   181C 3F                 7583 	.db #0x3F
   181D 1E                 7584 	.db #0x1E
   181E 3F                 7585 	.db #0x3F
   181F 1E                 7586 	.db #0x1E
   1820 00                 7587 	.db #0x00
   1821 00                 7588 	.db #0x00
   1822 20                 7589 	.db #0x20
   1823 30                 7590 	.db #0x30
   1824 30                 7591 	.db #0x30
   1825 20                 7592 	.db #0x20
   1826 30                 7593 	.db #0x30
   1827 20                 7594 	.db #0x20
   1828 30                 7595 	.db #0x30
   1829 20                 7596 	.db #0x20
   182A 30                 7597 	.db #0x30
   182B 20                 7598 	.db #0x20
   182C 3C                 7599 	.db #0x3C
   182D 38                 7600 	.db #0x38
   182E 3C                 7601 	.db #0x3C
   182F 38                 7602 	.db #0x38
   1830 00                 7603 	.db #0x00
   1831 00                 7604 	.db #0x00
   1832 C8                 7605 	.db #0xC8
   1833 8C                 7606 	.db #0x8C
   1834 CF                 7607 	.db #0xCF
   1835 8F                 7608 	.db #0x8F
   1836 C8                 7609 	.db #0xC8
   1837 8C                 7610 	.db #0x8C
   1838 CC                 7611 	.db #0xCC
   1839 8C                 7612 	.db #0x8C
   183A CC                 7613 	.db #0xCC
   183B 86                 7614 	.db #0x86
   183C E7                 7615 	.db #0xE7
   183D E3                 7616 	.db #0xE3
   183E E3                 7617 	.db #0xE3
   183F E0                 7618 	.db #0xE0
   1840 00                 7619 	.db #0x00
   1841 00                 7620 	.db #0x00
   1842 1C                 7621 	.db #0x1C
   1843 08                 7622 	.db #0x08
   1844 FC                 7623 	.db #0xFC
   1845 F8                 7624 	.db #0xF8
   1846 00                 7625 	.db #0x00
   1847 00                 7626 	.db #0x00
   1848 08                 7627 	.db #0x08
   1849 00                 7628 	.db #0x00
   184A 08                 7629 	.db #0x08
   184B 18                 7630 	.db #0x18
   184C F3                 7631 	.db #0xF3
   184D F1                 7632 	.db #0xF1
   184E 23                 7633 	.db #0x23
   184F C1                 7634 	.db #0xC1
   1850 00                 7635 	.db #0x00
   1851 00                 7636 	.db #0x00
   1852 C2                 7637 	.db #0xC2
   1853 43                 7638 	.db #0x43
   1854 C3                 7639 	.db #0xC3
   1855 42                 7640 	.db #0x42
   1856 C3                 7641 	.db #0xC3
   1857 42                 7642 	.db #0x42
   1858 C3                 7643 	.db #0xC3
   1859 42                 7644 	.db #0x42
   185A C3                 7645 	.db #0xC3
   185B 42                 7646 	.db #0x42
   185C F3                 7647 	.db #0xF3
   185D E3                 7648 	.db #0xE3
   185E F3                 7649 	.db #0xF3
   185F E3                 7650 	.db #0xE3
   1860 00                 7651 	.db #0x00
   1861 00                 7652 	.db #0x00
   1862 0C                 7653 	.db #0x0C
   1863 08                 7654 	.db #0x08
   1864 0C                 7655 	.db #0x0C
   1865 08                 7656 	.db #0x08
   1866 0C                 7657 	.db #0x0C
   1867 08                 7658 	.db #0x08
   1868 0C                 7659 	.db #0x0C
   1869 08                 7660 	.db #0x08
   186A 0C                 7661 	.db #0x0C
   186B 08                 7662 	.db #0x08
   186C CE                 7663 	.db #0xCE
   186D 8E                 7664 	.db #0x8E
   186E CE                 7665 	.db #0xCE
   186F 8E                 7666 	.db #0x8E
   1870 00                 7667 	.db #0x00
   1871 00                 7668 	.db #0x00
   1872 41                 7669 	.db #0x41
   1873 C0                 7670 	.db #0xC0
   1874 C0                 7671 	.db #0xC0
   1875 80                 7672 	.db #0x80
   1876 C0                 7673 	.db #0xC0
   1877 80                 7674 	.db #0x80
   1878 C1                 7675 	.db #0xC1
   1879 C0                 7676 	.db #0xC0
   187A C3                 7677 	.db #0xC3
   187B 61                 7678 	.db #0x61
   187C 7F                 7679 	.db #0x7F
   187D 3F                 7680 	.db #0x3F
   187E 2A                 7681 	.db #0x2A
   187F 1C                 7682 	.db #0x1C
   1880 00                 7683 	.db #0x00
   1881 00                 7684 	.db #0x00
   1882 CE                 7685 	.db #0xCE
   1883 84                 7686 	.db #0x84
   1884 CC                 7687 	.db #0xCC
   1885 84                 7688 	.db #0x84
   1886 CC                 7689 	.db #0xCC
   1887 84                 7690 	.db #0x84
   1888 CC                 7691 	.db #0xCC
   1889 84                 7692 	.db #0x84
   188A 0C                 7693 	.db #0x0C
   188B 84                 7694 	.db #0x84
   188C 3F                 7695 	.db #0x3F
   188D 1F                 7696 	.db #0x1F
   188E 3F                 7697 	.db #0x3F
   188F 1F                 7698 	.db #0x1F
   1890 00                 7699 	.db #0x00
   1891 00                 7700 	.db #0x00
   1892 0C                 7701 	.db #0x0C
   1893 04                 7702 	.db #0x04
   1894 06                 7703 	.db #0x06
   1895 04                 7704 	.db #0x04
   1896 06                 7705 	.db #0x06
   1897 02                 7706 	.db #0x02
   1898 03                 7707 	.db #0x03
   1899 02                 7708 	.db #0x02
   189A 01                 7709 	.db #0x01
   189B 03                 7710 	.db #0x03
   189C 03                 7711 	.db #0x03
   189D 01                 7712 	.db #0x01
   189E 01                 7713 	.db #0x01
   189F 01                 7714 	.db #0x01
   18A0 03                 7715 	.db #0x03
   18A1 01                 7716 	.db #0x01
   18A2 20                 7717 	.db #0x20
   18A3 60                 7718 	.db #0x60
   18A4 60                 7719 	.db #0x60
   18A5 40                 7720 	.db #0x40
   18A6 C0                 7721 	.db #0xC0
   18A7 40                 7722 	.db #0x40
   18A8 80                 7723 	.db #0x80
   18A9 C0                 7724 	.db #0xC0
   18AA C0                 7725 	.db #0xC0
   18AB 80                 7726 	.db #0x80
   18AC 80                 7727 	.db #0x80
   18AD 80                 7728 	.db #0x80
   18AE 80                 7729 	.db #0x80
   18AF 00                 7730 	.db #0x00
   18B0 00                 7731 	.db #0x00
   18B1 00                 7732 	.db #0x00
   18B2 0C                 7733 	.db #0x0C
   18B3 08                 7734 	.db #0x08
   18B4 1F                 7735 	.db #0x1F
   18B5 3E                 7736 	.db #0x3E
   18B6 1F                 7737 	.db #0x1F
   18B7 3E                 7738 	.db #0x3E
   18B8 00                 7739 	.db #0x00
   18B9 00                 7740 	.db #0x00
   18BA 00                 7741 	.db #0x00
   18BB 00                 7742 	.db #0x00
   18BC 00                 7743 	.db #0x00
   18BD 00                 7744 	.db #0x00
   18BE 00                 7745 	.db #0x00
   18BF 00                 7746 	.db #0x00
   18C0 00                 7747 	.db #0x00
   18C1 00                 7748 	.db #0x00
   18C2 02                 7749 	.db #0x02
   18C3 03                 7750 	.db #0x03
   18C4 0F                 7751 	.db #0x0F
   18C5 0E                 7752 	.db #0x0E
   18C6 0E                 7753 	.db #0x0E
   18C7 0E                 7754 	.db #0x0E
   18C8 00                 7755 	.db #0x00
   18C9 00                 7756 	.db #0x00
   18CA 00                 7757 	.db #0x00
   18CB 00                 7758 	.db #0x00
   18CC 00                 7759 	.db #0x00
   18CD 00                 7760 	.db #0x00
   18CE 00                 7761 	.db #0x00
   18CF 00                 7762 	.db #0x00
   18D0 00                 7763 	.db #0x00
   18D1 00                 7764 	.db #0x00
   18D2 00                 7765 	.db #0x00
   18D3 00                 7766 	.db #0x00
   18D4 00                 7767 	.db #0x00
   18D5 00                 7768 	.db #0x00
   18D6 00                 7769 	.db #0x00
   18D7 00                 7770 	.db #0x00
   18D8 06                 7771 	.db #0x06
   18D9 00                 7772 	.db #0x00
   18DA 06                 7773 	.db #0x06
   18DB 04                 7774 	.db #0x04
   18DC 0F                 7775 	.db #0x0F
   18DD 0F                 7776 	.db #0x0F
   18DE 0F                 7777 	.db #0x0F
   18DF 0F                 7778 	.db #0x0F
   18E0 06                 7779 	.db #0x06
   18E1 04                 7780 	.db #0x04
   18E2 00                 7781 	.db #0x00
   18E3 00                 7782 	.db #0x00
   18E4 00                 7783 	.db #0x00
   18E5 00                 7784 	.db #0x00
   18E6 00                 7785 	.db #0x00
   18E7 00                 7786 	.db #0x00
   18E8 00                 7787 	.db #0x00
   18E9 00                 7788 	.db #0x00
   18EA 00                 7789 	.db #0x00
   18EB 00                 7790 	.db #0x00
   18EC 8C                 7791 	.db #0x8C
   18ED 03                 7792 	.db #0x03
   18EE 9F                 7793 	.db #0x9F
   18EF 0F                 7794 	.db #0x0F
   18F0 30                 7795 	.db #0x30
   18F1 18                 7796 	.db #0x18
   18F2 00                 7797 	.db #0x00
   18F3 00                 7798 	.db #0x00
   18F4 00                 7799 	.db #0x00
   18F5 00                 7800 	.db #0x00
   18F6 00                 7801 	.db #0x00
   18F7 00                 7802 	.db #0x00
   18F8 00                 7803 	.db #0x00
   18F9 00                 7804 	.db #0x00
   18FA 00                 7805 	.db #0x00
   18FB 00                 7806 	.db #0x00
   18FC 80                 7807 	.db #0x80
   18FD 00                 7808 	.db #0x00
   18FE C0                 7809 	.db #0xC0
   18FF C0                 7810 	.db #0xC0
   1900 C0                 7811 	.db #0xC0
   1901 60                 7812 	.db #0x60
   1902 00                 7813 	.db #0x00
   1903 00                 7814 	.db #0x00
   1904 00                 7815 	.db #0x00
   1905 00                 7816 	.db #0x00
   1906 00                 7817 	.db #0x00
   1907 00                 7818 	.db #0x00
   1908 18                 7819 	.db #0x18
   1909 00                 7820 	.db #0x00
   190A 18                 7821 	.db #0x18
   190B 10                 7822 	.db #0x10
   190C 3E                 7823 	.db #0x3E
   190D 3C                 7824 	.db #0x3C
   190E 3E                 7825 	.db #0x3E
   190F 3C                 7826 	.db #0x3C
   1910 18                 7827 	.db #0x18
   1911 10                 7828 	.db #0x10
   1912 00                 7829 	.db #0x00
   1913 00                 7830 	.db #0x00
   1914 38                 7831 	.db #0x38
   1915 1C                 7832 	.db #0x1C
   1916 38                 7833 	.db #0x38
   1917 1C                 7834 	.db #0x1C
   1918 00                 7835 	.db #0x00
   1919 0C                 7836 	.db #0x0C
   191A 00                 7837 	.db #0x00
   191B 0C                 7838 	.db #0x0C
   191C 00                 7839 	.db #0x00
   191D 0C                 7840 	.db #0x0C
   191E 00                 7841 	.db #0x00
   191F 0C                 7842 	.db #0x0C
   1920 00                 7843 	.db #0x00
   1921 8C                 7844 	.db #0x8C
   1922 00                 7845 	.db #0x00
   1923 00                 7846 	.db #0x00
   1924 E0                 7847 	.db #0xE0
   1925 70                 7848 	.db #0x70
   1926 E0                 7849 	.db #0xE0
   1927 70                 7850 	.db #0x70
   1928 00                 7851 	.db #0x00
   1929 30                 7852 	.db #0x30
   192A 00                 7853 	.db #0x00
   192B 30                 7854 	.db #0x30
   192C 00                 7855 	.db #0x00
   192D 30                 7856 	.db #0x30
   192E 00                 7857 	.db #0x00
   192F 30                 7858 	.db #0x30
   1930 00                 7859 	.db #0x00
   1931 30                 7860 	.db #0x30
   1932 00                 7861 	.db #0x00
   1933 00                 7862 	.db #0x00
   1934 00                 7863 	.db #0x00
   1935 00                 7864 	.db #0x00
   1936 00                 7865 	.db #0x00
   1937 00                 7866 	.db #0x00
   1938 00                 7867 	.db #0x00
   1939 00                 7868 	.db #0x00
   193A 00                 7869 	.db #0x00
   193B 00                 7870 	.db #0x00
   193C 1E                 7871 	.db #0x1E
   193D 0F                 7872 	.db #0x0F
   193E 1E                 7873 	.db #0x1E
   193F 0F                 7874 	.db #0x0F
   1940 00                 7875 	.db #0x00
   1941 06                 7876 	.db #0x06
   1942 00                 7877 	.db #0x00
   1943 00                 7878 	.db #0x00
   1944 00                 7879 	.db #0x00
   1945 00                 7880 	.db #0x00
   1946 00                 7881 	.db #0x00
   1947 00                 7882 	.db #0x00
   1948 00                 7883 	.db #0x00
   1949 00                 7884 	.db #0x00
   194A 00                 7885 	.db #0x00
   194B 00                 7886 	.db #0x00
   194C 7C                 7887 	.db #0x7C
   194D 3C                 7888 	.db #0x3C
   194E 7C                 7889 	.db #0x7C
   194F 3C                 7890 	.db #0x3C
   1950 39                 7891 	.db #0x39
   1951 10                 7892 	.db #0x10
   1952 00                 7893 	.db #0x00
   1953 00                 7894 	.db #0x00
   1954 00                 7895 	.db #0x00
   1955 00                 7896 	.db #0x00
   1956 00                 7897 	.db #0x00
   1957 00                 7898 	.db #0x00
   1958 00                 7899 	.db #0x00
   1959 00                 7900 	.db #0x00
   195A 00                 7901 	.db #0x00
   195B 00                 7902 	.db #0x00
   195C 64                 7903 	.db #0x64
   195D 18                 7904 	.db #0x18
   195E FE                 7905 	.db #0xFE
   195F 7E                 7906 	.db #0x7E
   1960 86                 7907 	.db #0x86
   1961 C3                 7908 	.db #0xC3
   1962 00                 7909 	.db #0x00
   1963 00                 7910 	.db #0x00
   1964 00                 7911 	.db #0x00
   1965 00                 7912 	.db #0x00
   1966 00                 7913 	.db #0x00
   1967 00                 7914 	.db #0x00
   1968 00                 7915 	.db #0x00
   1969 00                 7916 	.db #0x00
   196A 00                 7917 	.db #0x00
   196B 00                 7918 	.db #0x00
   196C 79                 7919 	.db #0x79
   196D 31                 7920 	.db #0x31
   196E 79                 7921 	.db #0x79
   196F 31                 7922 	.db #0x31
   1970 18                 7923 	.db #0x18
   1971 10                 7924 	.db #0x10
   1972 00                 7925 	.db #0x00
   1973 00                 7926 	.db #0x00
   1974 00                 7927 	.db #0x00
   1975 00                 7928 	.db #0x00
   1976 00                 7929 	.db #0x00
   1977 00                 7930 	.db #0x00
   1978 00                 7931 	.db #0x00
   1979 00                 7932 	.db #0x00
   197A 00                 7933 	.db #0x00
   197B 00                 7934 	.db #0x00
   197C E0                 7935 	.db #0xE0
   197D C0                 7936 	.db #0xC0
   197E E0                 7937 	.db #0xE0
   197F C0                 7938 	.db #0xC0
   1980 60                 7939 	.db #0x60
   1981 40                 7940 	.db #0x40
   1982 00                 7941 	.db #0x00
   1983 00                 7942 	.db #0x00
   1984 70                 7943 	.db #0x70
   1985 38                 7944 	.db #0x38
   1986 70                 7945 	.db #0x70
   1987 38                 7946 	.db #0x38
   1988 00                 7947 	.db #0x00
   1989 18                 7948 	.db #0x18
   198A 00                 7949 	.db #0x00
   198B 18                 7950 	.db #0x18
   198C 02                 7951 	.db #0x02
   198D 19                 7952 	.db #0x19
   198E 0B                 7953 	.db #0x0B
   198F 1F                 7954 	.db #0x1F
   1990 0C                 7955 	.db #0x0C
   1991 18                 7956 	.db #0x18
   1992 00                 7957 	.db #0x00
   1993 00                 7958 	.db #0x00
   1994 00                 7959 	.db #0x00
   1995 00                 7960 	.db #0x00
   1996 00                 7961 	.db #0x00
   1997 00                 7962 	.db #0x00
   1998 00                 7963 	.db #0x00
   1999 00                 7964 	.db #0x00
   199A 00                 7965 	.db #0x00
   199B 00                 7966 	.db #0x00
   199C 41                 7967 	.db #0x41
   199D 80                 7968 	.db #0x80
   199E E3                 7969 	.db #0xE3
   199F C1                 7970 	.db #0xC1
   19A0 E6                 7971 	.db #0xE6
   19A1 43                 7972 	.db #0x43
   19A2 00                 7973 	.db #0x00
   19A3 00                 7974 	.db #0x00
   19A4 00                 7975 	.db #0x00
   19A5 00                 7976 	.db #0x00
   19A6 00                 7977 	.db #0x00
   19A7 00                 7978 	.db #0x00
   19A8 00                 7979 	.db #0x00
   19A9 00                 7980 	.db #0x00
   19AA 00                 7981 	.db #0x00
   19AB 00                 7982 	.db #0x00
   19AC 91                 7983 	.db #0x91
   19AD 61                 7984 	.db #0x61
   19AE F9                 7985 	.db #0xF9
   19AF F9                 7986 	.db #0xF9
   19B0 18                 7987 	.db #0x18
   19B1 0C                 7988 	.db #0x0C
   19B2 00                 7989 	.db #0x00
   19B3 00                 7990 	.db #0x00
   19B4 00                 7991 	.db #0x00
   19B5 00                 7992 	.db #0x00
   19B6 00                 7993 	.db #0x00
   19B7 00                 7994 	.db #0x00
   19B8 00                 7995 	.db #0x00
   19B9 00                 7996 	.db #0x00
   19BA 00                 7997 	.db #0x00
   19BB 00                 7998 	.db #0x00
   19BC CF                 7999 	.db #0xCF
   19BD E7                 8000 	.db #0xE7
   19BE CF                 8001 	.db #0xCF
   19BF E7                 8002 	.db #0xE7
   19C0 86                 8003 	.db #0x86
   19C1 43                 8004 	.db #0x43
   19C2 00                 8005 	.db #0x00
   19C3 00                 8006 	.db #0x00
   19C4 00                 8007 	.db #0x00
   19C5 00                 8008 	.db #0x00
   19C6 00                 8009 	.db #0x00
   19C7 00                 8010 	.db #0x00
   19C8 00                 8011 	.db #0x00
   19C9 00                 8012 	.db #0x00
   19CA 00                 8013 	.db #0x00
   19CB 00                 8014 	.db #0x00
   19CC 1C                 8015 	.db #0x1C
   19CD BC                 8016 	.db #0xBC
   19CE 1C                 8017 	.db #0x1C
   19CF BC                 8018 	.db #0xBC
   19D0 10                 8019 	.db #0x10
   19D1 08                 8020 	.db #0x08
   19D2 06                 8021 	.db #0x06
   19D3 04                 8022 	.db #0x04
   19D4 06                 8023 	.db #0x06
   19D5 04                 8024 	.db #0x04
   19D6 06                 8025 	.db #0x06
   19D7 04                 8026 	.db #0x04
   19D8 06                 8027 	.db #0x06
   19D9 04                 8028 	.db #0x04
   19DA 06                 8029 	.db #0x06
   19DB 04                 8030 	.db #0x04
   19DC 07                 8031 	.db #0x07
   19DD 07                 8032 	.db #0x07
   19DE 05                 8033 	.db #0x05
   19DF 03                 8034 	.db #0x03
   19E0 00                 8035 	.db #0x00
   19E1 00                 8036 	.db #0x00
   19E2 10                 8037 	.db #0x10
   19E3 30                 8038 	.db #0x30
   19E4 30                 8039 	.db #0x30
   19E5 20                 8040 	.db #0x20
   19E6 30                 8041 	.db #0x30
   19E7 20                 8042 	.db #0x20
   19E8 30                 8043 	.db #0x30
   19E9 30                 8044 	.db #0x30
   19EA 30                 8045 	.db #0x30
   19EB 18                 8046 	.db #0x18
   19EC 9F                 8047 	.db #0x9F
   19ED 0F                 8048 	.db #0x0F
   19EE 8A                 8049 	.db #0x8A
   19EF 07                 8050 	.db #0x07
   19F0 00                 8051 	.db #0x00
   19F1 00                 8052 	.db #0x00
   19F2 70                 8053 	.db #0x70
   19F3 20                 8054 	.db #0x20
   19F4 30                 8055 	.db #0x30
   19F5 20                 8056 	.db #0x20
   19F6 30                 8057 	.db #0x30
   19F7 20                 8058 	.db #0x20
   19F8 70                 8059 	.db #0x70
   19F9 20                 8060 	.db #0x20
   19FA C0                 8061 	.db #0xC0
   19FB 60                 8062 	.db #0x60
   19FC C0                 8063 	.db #0xC0
   19FD C0                 8064 	.db #0xC0
   19FE 80                 8065 	.db #0x80
   19FF 00                 8066 	.db #0x00
   1A00 00                 8067 	.db #0x00
   1A01 00                 8068 	.db #0x00
   1A02 18                 8069 	.db #0x18
   1A03 10                 8070 	.db #0x10
   1A04 18                 8071 	.db #0x18
   1A05 10                 8072 	.db #0x10
   1A06 18                 8073 	.db #0x18
   1A07 10                 8074 	.db #0x10
   1A08 18                 8075 	.db #0x18
   1A09 10                 8076 	.db #0x10
   1A0A 18                 8077 	.db #0x18
   1A0B 10                 8078 	.db #0x10
   1A0C 1E                 8079 	.db #0x1E
   1A0D 1C                 8080 	.db #0x1C
   1A0E 16                 8081 	.db #0x16
   1A0F 0C                 8082 	.db #0x0C
   1A10 00                 8083 	.db #0x00
   1A11 00                 8084 	.db #0x00
   1A12 C0                 8085 	.db #0xC0
   1A13 8C                 8086 	.db #0x8C
   1A14 C0                 8087 	.db #0xC0
   1A15 8C                 8088 	.db #0x8C
   1A16 00                 8089 	.db #0x00
   1A17 0C                 8090 	.db #0x0C
   1A18 80                 8091 	.db #0x80
   1A19 0C                 8092 	.db #0x0C
   1A1A 80                 8093 	.db #0x80
   1A1B 8C                 8094 	.db #0x8C
   1A1C 3E                 8095 	.db #0x3E
   1A1D 1E                 8096 	.db #0x1E
   1A1E 3E                 8097 	.db #0x3E
   1A1F 1E                 8098 	.db #0x1E
   1A20 00                 8099 	.db #0x00
   1A21 00                 8100 	.db #0x00
   1A22 00                 8101 	.db #0x00
   1A23 30                 8102 	.db #0x30
   1A24 00                 8103 	.db #0x00
   1A25 30                 8104 	.db #0x30
   1A26 00                 8105 	.db #0x00
   1A27 30                 8106 	.db #0x30
   1A28 00                 8107 	.db #0x00
   1A29 30                 8108 	.db #0x30
   1A2A 00                 8109 	.db #0x00
   1A2B 30                 8110 	.db #0x30
   1A2C F8                 8111 	.db #0xF8
   1A2D 78                 8112 	.db #0x78
   1A2E F8                 8113 	.db #0xF8
   1A2F 78                 8114 	.db #0x78
   1A30 00                 8115 	.db #0x00
   1A31 00                 8116 	.db #0x00
   1A32 06                 8117 	.db #0x06
   1A33 02                 8118 	.db #0x02
   1A34 03                 8119 	.db #0x03
   1A35 02                 8120 	.db #0x02
   1A36 03                 8121 	.db #0x03
   1A37 01                 8122 	.db #0x01
   1A38 01                 8123 	.db #0x01
   1A39 01                 8124 	.db #0x01
   1A3A 00                 8125 	.db #0x00
   1A3B 01                 8126 	.db #0x01
   1A3C 01                 8127 	.db #0x01
   1A3D 00                 8128 	.db #0x00
   1A3E 00                 8129 	.db #0x00
   1A3F 00                 8130 	.db #0x00
   1A40 01                 8131 	.db #0x01
   1A41 00                 8132 	.db #0x00
   1A42 10                 8133 	.db #0x10
   1A43 31                 8134 	.db #0x31
   1A44 31                 8135 	.db #0x31
   1A45 21                 8136 	.db #0x21
   1A46 61                 8137 	.db #0x61
   1A47 21                 8138 	.db #0x21
   1A48 C1                 8139 	.db #0xC1
   1A49 61                 8140 	.db #0x61
   1A4A E1                 8141 	.db #0xE1
   1A4B C0                 8142 	.db #0xC0
   1A4C C0                 8143 	.db #0xC0
   1A4D C0                 8144 	.db #0xC0
   1A4E C0                 8145 	.db #0xC0
   1A4F 80                 8146 	.db #0x80
   1A50 80                 8147 	.db #0x80
   1A51 80                 8148 	.db #0x80
   1A52 83                 8149 	.db #0x83
   1A53 81                 8150 	.db #0x81
   1A54 81                 8151 	.db #0x81
   1A55 01                 8152 	.db #0x01
   1A56 81                 8153 	.db #0x81
   1A57 01                 8154 	.db #0x01
   1A58 83                 8155 	.db #0x83
   1A59 81                 8156 	.db #0x81
   1A5A 86                 8157 	.db #0x86
   1A5B C3                 8158 	.db #0xC3
   1A5C FE                 8159 	.db #0xFE
   1A5D 7E                 8160 	.db #0x7E
   1A5E 54                 8161 	.db #0x54
   1A5F 38                 8162 	.db #0x38
   1A60 00                 8163 	.db #0x00
   1A61 00                 8164 	.db #0x00
   1A62 98                 8165 	.db #0x98
   1A63 10                 8166 	.db #0x10
   1A64 98                 8167 	.db #0x98
   1A65 10                 8168 	.db #0x10
   1A66 98                 8169 	.db #0x98
   1A67 10                 8170 	.db #0x10
   1A68 98                 8171 	.db #0x98
   1A69 10                 8172 	.db #0x10
   1A6A 11                 8173 	.db #0x11
   1A6B 18                 8174 	.db #0x18
   1A6C 0F                 8175 	.db #0x0F
   1A6D 1F                 8176 	.db #0x1F
   1A6E 0D                 8177 	.db #0x0D
   1A6F 06                 8178 	.db #0x06
   1A70 00                 8179 	.db #0x00
   1A71 00                 8180 	.db #0x00
   1A72 60                 8181 	.db #0x60
   1A73 40                 8182 	.db #0x40
   1A74 60                 8183 	.db #0x60
   1A75 40                 8184 	.db #0x40
   1A76 60                 8185 	.db #0x60
   1A77 40                 8186 	.db #0x40
   1A78 E0                 8187 	.db #0xE0
   1A79 40                 8188 	.db #0x40
   1A7A 60                 8189 	.db #0x60
   1A7B C0                 8190 	.db #0xC0
   1A7C F0                 8191 	.db #0xF0
   1A7D F0                 8192 	.db #0xF0
   1A7E F0                 8193 	.db #0xF0
   1A7F 70                 8194 	.db #0x70
   1A80 00                 8195 	.db #0x00
   1A81 00                 8196 	.db #0x00
   1A82 08                 8197 	.db #0x08
   1A83 18                 8198 	.db #0x18
   1A84 00                 8199 	.db #0x00
   1A85 18                 8200 	.db #0x18
   1A86 00                 8201 	.db #0x00
   1A87 18                 8202 	.db #0x18
   1A88 00                 8203 	.db #0x00
   1A89 18                 8204 	.db #0x18
   1A8A 00                 8205 	.db #0x00
   1A8B 18                 8206 	.db #0x18
   1A8C 7E                 8207 	.db #0x7E
   1A8D 3C                 8208 	.db #0x3C
   1A8E 7E                 8209 	.db #0x7E
   1A8F 3C                 8210 	.db #0x3C
   1A90 00                 8211 	.db #0x00
   1A91 00                 8212 	.db #0x00
   1A92 62                 8213 	.db #0x62
   1A93 46                 8214 	.db #0x46
   1A94 66                 8215 	.db #0x66
   1A95 44                 8216 	.db #0x44
   1A96 66                 8217 	.db #0x66
   1A97 44                 8218 	.db #0x44
   1A98 66                 8219 	.db #0x66
   1A99 46                 8220 	.db #0x46
   1A9A 66                 8221 	.db #0x66
   1A9B 43                 8222 	.db #0x43
   1A9C 73                 8223 	.db #0x73
   1A9D 71                 8224 	.db #0x71
   1A9E 71                 8225 	.db #0x71
   1A9F 70                 8226 	.db #0x70
   1AA0 00                 8227 	.db #0x00
   1AA1 00                 8228 	.db #0x00
   1AA2 0E                 8229 	.db #0x0E
   1AA3 04                 8230 	.db #0x04
   1AA4 06                 8231 	.db #0x06
   1AA5 04                 8232 	.db #0x04
   1AA6 06                 8233 	.db #0x06
   1AA7 04                 8234 	.db #0x04
   1AA8 0E                 8235 	.db #0x0E
   1AA9 04                 8236 	.db #0x04
   1AAA 18                 8237 	.db #0x18
   1AAB 0C                 8238 	.db #0x0C
   1AAC F8                 8239 	.db #0xF8
   1AAD F8                 8240 	.db #0xF8
   1AAE 50                 8241 	.db #0x50
   1AAF E0                 8242 	.db #0xE0
   1AB0 00                 8243 	.db #0x00
   1AB1 00                 8244 	.db #0x00
   1AB2 47                 8245 	.db #0x47
   1AB3 45                 8246 	.db #0x45
   1AB4 6C                 8247 	.db #0x6C
   1AB5 45                 8248 	.db #0x45
   1AB6 69                 8249 	.db #0x69
   1AB7 04                 8250 	.db #0x04
   1AB8 6C                 8251 	.db #0x6C
   1AB9 28                 8252 	.db #0x28
   1ABA 38                 8253 	.db #0x38
   1ABB 28                 8254 	.db #0x28
   1ABC 30                 8255 	.db #0x30
   1ABD 18                 8256 	.db #0x18
   1ABE 38                 8257 	.db #0x38
   1ABF 10                 8258 	.db #0x10
   1AC0 00                 8259 	.db #0x00
   1AC1 00                 8260 	.db #0x00
   1AC2 08                 8261 	.db #0x08
   1AC3 10                 8262 	.db #0x10
   1AC4 90                 8263 	.db #0x90
   1AC5 10                 8264 	.db #0x10
   1AC6 20                 8265 	.db #0x20
   1AC7 90                 8266 	.db #0x90
   1AC8 90                 8267 	.db #0x90
   1AC9 A0                 8268 	.db #0xA0
   1ACA 60                 8269 	.db #0x60
   1ACB A0                 8270 	.db #0xA0
   1ACC C0                 8271 	.db #0xC0
   1ACD 60                 8272 	.db #0x60
   1ACE 60                 8273 	.db #0x60
   1ACF 40                 8274 	.db #0x40
   1AD0 00                 8275 	.db #0x00
   1AD1 00                 8276 	.db #0x00
   1AD2 01                 8277 	.db #0x01
   1AD3 01                 8278 	.db #0x01
   1AD4 07                 8279 	.db #0x07
   1AD5 07                 8280 	.db #0x07
   1AD6 07                 8281 	.db #0x07
   1AD7 07                 8282 	.db #0x07
   1AD8 00                 8283 	.db #0x00
   1AD9 00                 8284 	.db #0x00
   1ADA 00                 8285 	.db #0x00
   1ADB 00                 8286 	.db #0x00
   1ADC 00                 8287 	.db #0x00
   1ADD 00                 8288 	.db #0x00
   1ADE 00                 8289 	.db #0x00
   1ADF 00                 8290 	.db #0x00
   1AE0 00                 8291 	.db #0x00
   1AE1 00                 8292 	.db #0x00
   1AE2 00                 8293 	.db #0x00
   1AE3 80                 8294 	.db #0x80
   1AE4 80                 8295 	.db #0x80
   1AE5 00                 8296 	.db #0x00
   1AE6 00                 8297 	.db #0x00
   1AE7 00                 8298 	.db #0x00
   1AE8 00                 8299 	.db #0x00
   1AE9 00                 8300 	.db #0x00
   1AEA 00                 8301 	.db #0x00
   1AEB 00                 8302 	.db #0x00
   1AEC 00                 8303 	.db #0x00
   1AED 00                 8304 	.db #0x00
   1AEE 00                 8305 	.db #0x00
   1AEF 00                 8306 	.db #0x00
   1AF0 00                 8307 	.db #0x00
   1AF1 00                 8308 	.db #0x00
   1AF2 00                 8309 	.db #0x00
   1AF3 00                 8310 	.db #0x00
   1AF4 00                 8311 	.db #0x00
   1AF5 00                 8312 	.db #0x00
   1AF6 00                 8313 	.db #0x00
   1AF7 00                 8314 	.db #0x00
   1AF8 00                 8315 	.db #0x00
   1AF9 00                 8316 	.db #0x00
   1AFA 00                 8317 	.db #0x00
   1AFB 00                 8318 	.db #0x00
   1AFC 7A                 8319 	.db #0x7A
   1AFD 31                 8320 	.db #0x31
   1AFE 73                 8321 	.db #0x73
   1AFF 3F                 8322 	.db #0x3F
   1B00 18                 8323 	.db #0x18
   1B01 1C                 8324 	.db #0x1C
   1B02 00                 8325 	.db #0x00
   1B03 00                 8326 	.db #0x00
   1B04 03                 8327 	.db #0x03
   1B05 01                 8328 	.db #0x01
   1B06 03                 8329 	.db #0x03
   1B07 01                 8330 	.db #0x01
   1B08 00                 8331 	.db #0x00
   1B09 00                 8332 	.db #0x00
   1B0A 00                 8333 	.db #0x00
   1B0B 00                 8334 	.db #0x00
   1B0C 40                 8335 	.db #0x40
   1B0D 80                 8336 	.db #0x80
   1B0E E0                 8337 	.db #0xE0
   1B0F E0                 8338 	.db #0xE0
   1B10 70                 8339 	.db #0x70
   1B11 30                 8340 	.db #0x30
   1B12 00                 8341 	.db #0x00
   1B13 00                 8342 	.db #0x00
   1B14 80                 8343 	.db #0x80
   1B15 C0                 8344 	.db #0xC0
   1B16 80                 8345 	.db #0x80
   1B17 C0                 8346 	.db #0xC0
   1B18 00                 8347 	.db #0x00
   1B19 C0                 8348 	.db #0xC0
   1B1A 00                 8349 	.db #0x00
   1B1B C0                 8350 	.db #0xC0
   1B1C 01                 8351 	.db #0x01
   1B1D C0                 8352 	.db #0xC0
   1B1E 03                 8353 	.db #0x03
   1B1F C3                 8354 	.db #0xC3
   1B20 04                 8355 	.db #0x04
   1B21 C2                 8356 	.db #0xC2
   1B22 00                 8357 	.db #0x00
   1B23 00                 8358 	.db #0x00
   1B24 00                 8359 	.db #0x00
   1B25 00                 8360 	.db #0x00
   1B26 00                 8361 	.db #0x00
   1B27 00                 8362 	.db #0x00
   1B28 00                 8363 	.db #0x00
   1B29 00                 8364 	.db #0x00
   1B2A 00                 8365 	.db #0x00
   1B2B 00                 8366 	.db #0x00
   1B2C 21                 8367 	.db #0x21
   1B2D C0                 8368 	.db #0xC0
   1B2E F1                 8369 	.db #0xF1
   1B2F F0                 8370 	.db #0xF0
   1B30 38                 8371 	.db #0x38
   1B31 10                 8372 	.db #0x10
   1B32 00                 8373 	.db #0x00
   1B33 00                 8374 	.db #0x00
   1B34 00                 8375 	.db #0x00
   1B35 00                 8376 	.db #0x00
   1B36 00                 8377 	.db #0x00
   1B37 00                 8378 	.db #0x00
   1B38 00                 8379 	.db #0x00
   1B39 00                 8380 	.db #0x00
   1B3A 00                 8381 	.db #0x00
   1B3B 00                 8382 	.db #0x00
   1B3C E7                 8383 	.db #0xE7
   1B3D F3                 8384 	.db #0xF3
   1B3E E7                 8385 	.db #0xE7
   1B3F F3                 8386 	.db #0xF3
   1B40 03                 8387 	.db #0x03
   1B41 61                 8388 	.db #0x61
   1B42 00                 8389 	.db #0x00
   1B43 00                 8390 	.db #0x00
   1B44 00                 8391 	.db #0x00
   1B45 00                 8392 	.db #0x00
   1B46 00                 8393 	.db #0x00
   1B47 00                 8394 	.db #0x00
   1B48 00                 8395 	.db #0x00
   1B49 00                 8396 	.db #0x00
   1B4A 00                 8397 	.db #0x00
   1B4B 00                 8398 	.db #0x00
   1B4C C0                 8399 	.db #0xC0
   1B4D C0                 8400 	.db #0xC0
   1B4E C0                 8401 	.db #0xC0
   1B4F C0                 8402 	.db #0xC0
   1B50 80                 8403 	.db #0x80
   1B51 00                 8404 	.db #0x00
   1B52 18                 8405 	.db #0x18
   1B53 18                 8406 	.db #0x18
   1B54 18                 8407 	.db #0x18
   1B55 10                 8408 	.db #0x10
   1B56 18                 8409 	.db #0x18
   1B57 10                 8410 	.db #0x10
   1B58 10                 8411 	.db #0x10
   1B59 18                 8412 	.db #0x18
   1B5A 1C                 8413 	.db #0x1C
   1B5B 18                 8414 	.db #0x18
   1B5C 17                 8415 	.db #0x17
   1B5D 1F                 8416 	.db #0x1F
   1B5E 1A                 8417 	.db #0x1A
   1B5F 11                 8418 	.db #0x11
   1B60 18                 8419 	.db #0x18
   1B61 10                 8420 	.db #0x10
   1B62 38                 8421 	.db #0x38
   1B63 10                 8422 	.db #0x10
   1B64 18                 8423 	.db #0x18
   1B65 10                 8424 	.db #0x10
   1B66 18                 8425 	.db #0x18
   1B67 10                 8426 	.db #0x10
   1B68 38                 8427 	.db #0x38
   1B69 10                 8428 	.db #0x10
   1B6A 70                 8429 	.db #0x70
   1B6B 30                 8430 	.db #0x30
   1B6C E3                 8431 	.db #0xE3
   1B6D E1                 8432 	.db #0xE1
   1B6E 43                 8433 	.db #0x43
   1B6F 81                 8434 	.db #0x81
   1B70 00                 8435 	.db #0x00
   1B71 00                 8436 	.db #0x00
   1B72 00                 8437 	.db #0x00
   1B73 C0                 8438 	.db #0xC0
   1B74 02                 8439 	.db #0x02
   1B75 C1                 8440 	.db #0xC1
   1B76 07                 8441 	.db #0x07
   1B77 C3                 8442 	.db #0xC3
   1B78 00                 8443 	.db #0x00
   1B79 C6                 8444 	.db #0xC6
   1B7A 00                 8445 	.db #0x00
   1B7B C6                 8446 	.db #0xC6
   1B7C E7                 8447 	.db #0xE7
   1B7D E3                 8448 	.db #0xE3
   1B7E E2                 8449 	.db #0xE2
   1B7F E1                 8450 	.db #0xE1
   1B80 00                 8451 	.db #0x00
   1B81 00                 8452 	.db #0x00
   1B82 18                 8453 	.db #0x18
   1B83 10                 8454 	.db #0x10
   1B84 78                 8455 	.db #0x78
   1B85 90                 8456 	.db #0x90
   1B86 F8                 8457 	.db #0xF8
   1B87 F0                 8458 	.db #0xF0
   1B88 38                 8459 	.db #0x38
   1B89 10                 8460 	.db #0x10
   1B8A 18                 8461 	.db #0x18
   1B8B 10                 8462 	.db #0x10
   1B8C FC                 8463 	.db #0xFC
   1B8D FC                 8464 	.db #0xFC
   1B8E 4C                 8465 	.db #0x4C
   1B8F 9C                 8466 	.db #0x9C
   1B90 00                 8467 	.db #0x00
   1B91 00                 8468 	.db #0x00
   1B92 61                 8469 	.db #0x61
   1B93 23                 8470 	.db #0x23
   1B94 33                 8471 	.db #0x33
   1B95 22                 8472 	.db #0x22
   1B96 36                 8473 	.db #0x36
   1B97 12                 8474 	.db #0x12
   1B98 1C                 8475 	.db #0x1C
   1B99 16                 8476 	.db #0x16
   1B9A 0E                 8477 	.db #0x0E
   1B9B 1C                 8478 	.db #0x1C
   1B9C 1C                 8479 	.db #0x1C
   1B9D 0C                 8480 	.db #0x0C
   1B9E 0C                 8481 	.db #0x0C
   1B9F 08                 8482 	.db #0x08
   1BA0 18                 8483 	.db #0x18
   1BA1 08                 8484 	.db #0x08
   1BA2 00                 8485 	.db #0x00
   1BA3 00                 8486 	.db #0x00
   1BA4 00                 8487 	.db #0x00
   1BA5 00                 8488 	.db #0x00
   1BA6 00                 8489 	.db #0x00
   1BA7 00                 8490 	.db #0x00
   1BA8 00                 8491 	.db #0x00
   1BA9 00                 8492 	.db #0x00
   1BAA 00                 8493 	.db #0x00
   1BAB 00                 8494 	.db #0x00
   1BAC 30                 8495 	.db #0x30
   1BAD 30                 8496 	.db #0x30
   1BAE 30                 8497 	.db #0x30
   1BAF 30                 8498 	.db #0x30
   1BB0 00                 8499 	.db #0x00
   1BB1 00                 8500 	.db #0x00
   1BB2 18                 8501 	.db #0x18
   1BB3 10                 8502 	.db #0x10
   1BB4 3E                 8503 	.db #0x3E
   1BB5 7C                 8504 	.db #0x7C
   1BB6 3E                 8505 	.db #0x3E
   1BB7 7C                 8506 	.db #0x7C
   1BB8 00                 8507 	.db #0x00
   1BB9 00                 8508 	.db #0x00
   1BBA 00                 8509 	.db #0x00
   1BBB 00                 8510 	.db #0x00
   1BBC 00                 8511 	.db #0x00
   1BBD 00                 8512 	.db #0x00
   1BBE 00                 8513 	.db #0x00
   1BBF 00                 8514 	.db #0x00
   1BC0 00                 8515 	.db #0x00
   1BC1 00                 8516 	.db #0x00
   1BC2 10                 8517 	.db #0x10
   1BC3 18                 8518 	.db #0x18
   1BC4 78                 8519 	.db #0x78
   1BC5 70                 8520 	.db #0x70
   1BC6 70                 8521 	.db #0x70
   1BC7 70                 8522 	.db #0x70
   1BC8 00                 8523 	.db #0x00
   1BC9 00                 8524 	.db #0x00
   1BCA 00                 8525 	.db #0x00
   1BCB 00                 8526 	.db #0x00
   1BCC 00                 8527 	.db #0x00
   1BCD 00                 8528 	.db #0x00
   1BCE 00                 8529 	.db #0x00
   1BCF 00                 8530 	.db #0x00
   1BD0 00                 8531 	.db #0x00
   1BD1 00                 8532 	.db #0x00
   1BD2 00                 8533 	.db #0x00
   1BD3 00                 8534 	.db #0x00
   1BD4 01                 8535 	.db #0x01
   1BD5 00                 8536 	.db #0x00
   1BD6 01                 8537 	.db #0x01
   1BD7 00                 8538 	.db #0x00
   1BD8 00                 8539 	.db #0x00
   1BD9 00                 8540 	.db #0x00
   1BDA 00                 8541 	.db #0x00
   1BDB 00                 8542 	.db #0x00
   1BDC 00                 8543 	.db #0x00
   1BDD 00                 8544 	.db #0x00
   1BDE 00                 8545 	.db #0x00
   1BDF 00                 8546 	.db #0x00
   1BE0 00                 8547 	.db #0x00
   1BE1 00                 8548 	.db #0x00
   1BE2 00                 8549 	.db #0x00
   1BE3 00                 8550 	.db #0x00
   1BE4 F9                 8551 	.db #0xF9
   1BE5 FE                 8552 	.db #0xFE
   1BE6 FF                 8553 	.db #0xFF
   1BE7 FF                 8554 	.db #0xFF
   1BE8 21                 8555 	.db #0x21
   1BE9 60                 8556 	.db #0x60
   1BEA 20                 8557 	.db #0x20
   1BEB 60                 8558 	.db #0x60
   1BEC 21                 8559 	.db #0x21
   1BED 60                 8560 	.db #0x60
   1BEE 3F                 8561 	.db #0x3F
   1BEF 7F                 8562 	.db #0x7F
   1BF0 3F                 8563 	.db #0x3F
   1BF1 7E                 8564 	.db #0x7E
   1BF2 00                 8565 	.db #0x00
   1BF3 00                 8566 	.db #0x00
   1BF4 00                 8567 	.db #0x00
   1BF5 00                 8568 	.db #0x00
   1BF6 80                 8569 	.db #0x80
   1BF7 80                 8570 	.db #0x80
   1BF8 C0                 8571 	.db #0xC0
   1BF9 80                 8572 	.db #0x80
   1BFA C0                 8573 	.db #0xC0
   1BFB 80                 8574 	.db #0x80
   1BFC C2                 8575 	.db #0xC2
   1BFD 81                 8576 	.db #0x81
   1BFE 07                 8577 	.db #0x07
   1BFF 83                 8578 	.db #0x83
   1C00 0E                 8579 	.db #0x0E
   1C01 04                 8580 	.db #0x04
   1C02 00                 8581 	.db #0x00
   1C03 00                 8582 	.db #0x00
   1C04 00                 8583 	.db #0x00
   1C05 00                 8584 	.db #0x00
   1C06 00                 8585 	.db #0x00
   1C07 00                 8586 	.db #0x00
   1C08 00                 8587 	.db #0x00
   1C09 00                 8588 	.db #0x00
   1C0A 00                 8589 	.db #0x00
   1C0B 00                 8590 	.db #0x00
   1C0C A0                 8591 	.db #0xA0
   1C0D C0                 8592 	.db #0xC0
   1C0E F0                 8593 	.db #0xF0
   1C0F F0                 8594 	.db #0xF0
   1C10 31                 8595 	.db #0x31
   1C11 18                 8596 	.db #0x18
   1C12 00                 8597 	.db #0x00
   1C13 00                 8598 	.db #0x00
   1C14 00                 8599 	.db #0x00
   1C15 00                 8600 	.db #0x00
   1C16 00                 8601 	.db #0x00
   1C17 00                 8602 	.db #0x00
   1C18 00                 8603 	.db #0x00
   1C19 00                 8604 	.db #0x00
   1C1A 00                 8605 	.db #0x00
   1C1B 00                 8606 	.db #0x00
   1C1C 48                 8607 	.db #0x48
   1C1D 30                 8608 	.db #0x30
   1C1E FC                 8609 	.db #0xFC
   1C1F FC                 8610 	.db #0xFC
   1C20 0E                 8611 	.db #0x0E
   1C21 84                 8612 	.db #0x84
   1C22 00                 8613 	.db #0x00
   1C23 00                 8614 	.db #0x00
   1C24 00                 8615 	.db #0x00
   1C25 00                 8616 	.db #0x00
   1C26 00                 8617 	.db #0x00
   1C27 00                 8618 	.db #0x00
   1C28 00                 8619 	.db #0x00
   1C29 00                 8620 	.db #0x00
   1C2A 00                 8621 	.db #0x00
   1C2B 00                 8622 	.db #0x00
   1C2C 0A                 8623 	.db #0x0A
   1C2D 07                 8624 	.db #0x07
   1C2E 1F                 8625 	.db #0x1F
   1C2F 0F                 8626 	.db #0x0F
   1C30 30                 8627 	.db #0x30
   1C31 18                 8628 	.db #0x18
   1C32 00                 8629 	.db #0x00
   1C33 00                 8630 	.db #0x00
   1C34 70                 8631 	.db #0x70
   1C35 E0                 8632 	.db #0xE0
   1C36 70                 8633 	.db #0x70
   1C37 E0                 8634 	.db #0xE0
   1C38 30                 8635 	.db #0x30
   1C39 20                 8636 	.db #0x20
   1C3A 30                 8637 	.db #0x30
   1C3B 20                 8638 	.db #0x20
   1C3C B0                 8639 	.db #0xB0
   1C3D 20                 8640 	.db #0x20
   1C3E B0                 8641 	.db #0xB0
   1C3F E0                 8642 	.db #0xE0
   1C40 F0                 8643 	.db #0xF0
   1C41 60                 8644 	.db #0x60
   1C42 00                 8645 	.db #0x00
   1C43 00                 8646 	.db #0x00
   1C44 00                 8647 	.db #0x00
   1C45 00                 8648 	.db #0x00
   1C46 03                 8649 	.db #0x03
   1C47 01                 8650 	.db #0x01
   1C48 07                 8651 	.db #0x07
   1C49 03                 8652 	.db #0x03
   1C4A 07                 8653 	.db #0x07
   1C4B 06                 8654 	.db #0x06
   1C4C 0E                 8655 	.db #0x0E
   1C4D 04                 8656 	.db #0x04
   1C4E 04                 8657 	.db #0x04
   1C4F 0C                 8658 	.db #0x0C
   1C50 04                 8659 	.db #0x04
   1C51 0C                 8660 	.db #0x0C
   1C52 00                 8661 	.db #0x00
   1C53 00                 8662 	.db #0x00
   1C54 84                 8663 	.db #0x84
   1C55 78                 8664 	.db #0x78
   1C56 FF                 8665 	.db #0xFF
   1C57 FE                 8666 	.db #0xFE
   1C58 87                 8667 	.db #0x87
   1C59 03                 8668 	.db #0x03
   1C5A 03                 8669 	.db #0x03
   1C5B 01                 8670 	.db #0x01
   1C5C 01                 8671 	.db #0x01
   1C5D 00                 8672 	.db #0x00
   1C5E 00                 8673 	.db #0x00
   1C5F 00                 8674 	.db #0x00
   1C60 00                 8675 	.db #0x00
   1C61 00                 8676 	.db #0x00
   1C62 00                 8677 	.db #0x00
   1C63 00                 8678 	.db #0x00
   1C64 00                 8679 	.db #0x00
   1C65 00                 8680 	.db #0x00
   1C66 00                 8681 	.db #0x00
   1C67 00                 8682 	.db #0x00
   1C68 80                 8683 	.db #0x80
   1C69 00                 8684 	.db #0x00
   1C6A 80                 8685 	.db #0x80
   1C6B 80                 8686 	.db #0x80
   1C6C DE                 8687 	.db #0xDE
   1C6D 8E                 8688 	.db #0x8E
   1C6E 9E                 8689 	.db #0x9E
   1C6F CF                 8690 	.db #0xCF
   1C70 C6                 8691 	.db #0xC6
   1C71 C3                 8692 	.db #0xC3
   1C72 00                 8693 	.db #0x00
   1C73 00                 8694 	.db #0x00
   1C74 03                 8695 	.db #0x03
   1C75 01                 8696 	.db #0x01
   1C76 03                 8697 	.db #0x03
   1C77 01                 8698 	.db #0x01
   1C78 00                 8699 	.db #0x00
   1C79 00                 8700 	.db #0x00
   1C7A 00                 8701 	.db #0x00
   1C7B 00                 8702 	.db #0x00
   1C7C 90                 8703 	.db #0x90
   1C7D 60                 8704 	.db #0x60
   1C7E F8                 8705 	.db #0xF8
   1C7F F0                 8706 	.db #0xF0
   1C80 18                 8707 	.db #0x18
   1C81 10                 8708 	.db #0x10
   1C82 00                 8709 	.db #0x00
   1C83 00                 8710 	.db #0x00
   1C84 81                 8711 	.db #0x81
   1C85 C2                 8712 	.db #0xC2
   1C86 81                 8713 	.db #0x81
   1C87 C2                 8714 	.db #0xC2
   1C88 00                 8715 	.db #0x00
   1C89 C0                 8716 	.db #0xC0
   1C8A 00                 8717 	.db #0x00
   1C8B C0                 8718 	.db #0xC0
   1C8C 06                 8719 	.db #0x06
   1C8D C7                 8720 	.db #0xC7
   1C8E 06                 8721 	.db #0x06
   1C8F C7                 8722 	.db #0xC7
   1C90 00                 8723 	.db #0x00
   1C91 C3                 8724 	.db #0xC3
   1C92 00                 8725 	.db #0x00
   1C93 00                 8726 	.db #0x00
   1C94 00                 8727 	.db #0x00
   1C95 00                 8728 	.db #0x00
   1C96 00                 8729 	.db #0x00
   1C97 00                 8730 	.db #0x00
   1C98 00                 8731 	.db #0x00
   1C99 00                 8732 	.db #0x00
   1C9A 00                 8733 	.db #0x00
   1C9B 00                 8734 	.db #0x00
   1C9C A8                 8735 	.db #0xA8
   1C9D 70                 8736 	.db #0x70
   1C9E FC                 8737 	.db #0xFC
   1C9F FC                 8738 	.db #0xFC
   1CA0 8C                 8739 	.db #0x8C
   1CA1 06                 8740 	.db #0x06
   1CA2 00                 8741 	.db #0x00
   1CA3 00                 8742 	.db #0x00
   1CA4 00                 8743 	.db #0x00
   1CA5 00                 8744 	.db #0x00
   1CA6 00                 8745 	.db #0x00
   1CA7 00                 8746 	.db #0x00
   1CA8 00                 8747 	.db #0x00
   1CA9 00                 8748 	.db #0x00
   1CAA 00                 8749 	.db #0x00
   1CAB 00                 8750 	.db #0x00
   1CAC 01                 8751 	.db #0x01
   1CAD 00                 8752 	.db #0x00
   1CAE 01                 8753 	.db #0x01
   1CAF 00                 8754 	.db #0x00
   1CB0 00                 8755 	.db #0x00
   1CB1 00                 8756 	.db #0x00
   1CB2 26                 8757 	.db #0x26
   1CB3 62                 8758 	.db #0x62
   1CB4 22                 8759 	.db #0x22
   1CB5 63                 8760 	.db #0x63
   1CB6 23                 8761 	.db #0x23
   1CB7 61                 8762 	.db #0x61
   1CB8 21                 8763 	.db #0x21
   1CB9 61                 8764 	.db #0x61
   1CBA 20                 8765 	.db #0x20
   1CBB 61                 8766 	.db #0x61
   1CBC F1                 8767 	.db #0xF1
   1CBD F8                 8768 	.db #0xF8
   1CBE F0                 8769 	.db #0xF0
   1CBF F8                 8770 	.db #0xF8
   1CC0 00                 8771 	.db #0x00
   1CC1 00                 8772 	.db #0x00
   1CC2 08                 8773 	.db #0x08
   1CC3 0C                 8774 	.db #0x0C
   1CC4 0F                 8775 	.db #0x0F
   1CC5 0F                 8776 	.db #0x0F
   1CC6 08                 8777 	.db #0x08
   1CC7 0C                 8778 	.db #0x0C
   1CC8 8C                 8779 	.db #0x8C
   1CC9 0C                 8780 	.db #0x0C
   1CCA 8C                 8781 	.db #0x8C
   1CCB 86                 8782 	.db #0x86
   1CCC E7                 8783 	.db #0xE7
   1CCD E3                 8784 	.db #0xE3
   1CCE 63                 8785 	.db #0x63
   1CCF E0                 8786 	.db #0xE0
   1CD0 00                 8787 	.db #0x00
   1CD1 00                 8788 	.db #0x00
   1CD2 1C                 8789 	.db #0x1C
   1CD3 08                 8790 	.db #0x08
   1CD4 FC                 8791 	.db #0xFC
   1CD5 F8                 8792 	.db #0xF8
   1CD6 01                 8793 	.db #0x01
   1CD7 00                 8794 	.db #0x00
   1CD8 08                 8795 	.db #0x08
   1CD9 01                 8796 	.db #0x01
   1CDA 08                 8797 	.db #0x08
   1CDB 19                 8798 	.db #0x19
   1CDC F1                 8799 	.db #0xF1
   1CDD F0                 8800 	.db #0xF0
   1CDE 20                 8801 	.db #0x20
   1CDF C0                 8802 	.db #0xC0
   1CE0 00                 8803 	.db #0x00
   1CE1 00                 8804 	.db #0x00
   1CE2 06                 8805 	.db #0x06
   1CE3 04                 8806 	.db #0x04
   1CE4 9E                 8807 	.db #0x9E
   1CE5 64                 8808 	.db #0x64
   1CE6 FE                 8809 	.db #0xFE
   1CE7 FC                 8810 	.db #0xFC
   1CE8 0E                 8811 	.db #0x0E
   1CE9 84                 8812 	.db #0x84
   1CEA 06                 8813 	.db #0x06
   1CEB 84                 8814 	.db #0x84
   1CEC FF                 8815 	.db #0xFF
   1CED FF                 8816 	.db #0xFF
   1CEE 93                 8817 	.db #0x93
   1CEF 67                 8818 	.db #0x67
   1CF0 00                 8819 	.db #0x00
   1CF1 00                 8820 	.db #0x00
   1CF2 10                 8821 	.db #0x10
   1CF3 30                 8822 	.db #0x30
   1CF4 20                 8823 	.db #0x20
   1CF5 30                 8824 	.db #0x30
   1CF6 20                 8825 	.db #0x20
   1CF7 30                 8826 	.db #0x30
   1CF8 10                 8827 	.db #0x10
   1CF9 30                 8828 	.db #0x30
   1CFA 30                 8829 	.db #0x30
   1CFB 18                 8830 	.db #0x18
   1CFC 0F                 8831 	.db #0x0F
   1CFD 1F                 8832 	.db #0x1F
   1CFE 0A                 8833 	.db #0x0A
   1CFF 07                 8834 	.db #0x07
   1D00 00                 8835 	.db #0x00
   1D01 00                 8836 	.db #0x00
   1D02 70                 8837 	.db #0x70
   1D03 20                 8838 	.db #0x20
   1D04 30                 8839 	.db #0x30
   1D05 20                 8840 	.db #0x20
   1D06 30                 8841 	.db #0x30
   1D07 20                 8842 	.db #0x20
   1D08 70                 8843 	.db #0x70
   1D09 20                 8844 	.db #0x20
   1D0A F0                 8845 	.db #0xF0
   1D0B 60                 8846 	.db #0x60
   1D0C BC                 8847 	.db #0xBC
   1D0D F8                 8848 	.db #0xF8
   1D0E BC                 8849 	.db #0xBC
   1D0F 38                 8850 	.db #0x38
   1D10 00                 8851 	.db #0x00
   1D11 00                 8852 	.db #0x00
   1D12 04                 8853 	.db #0x04
   1D13 0C                 8854 	.db #0x0C
   1D14 0E                 8855 	.db #0x0E
   1D15 04                 8856 	.db #0x04
   1D16 0E                 8857 	.db #0x0E
   1D17 04                 8858 	.db #0x04
   1D18 03                 8859 	.db #0x03
   1D19 06                 8860 	.db #0x06
   1D1A 07                 8861 	.db #0x07
   1D1B 03                 8862 	.db #0x03
   1D1C 01                 8863 	.db #0x01
   1D1D 01                 8864 	.db #0x01
   1D1E 00                 8865 	.db #0x00
   1D1F 00                 8866 	.db #0x00
   1D20 00                 8867 	.db #0x00
   1D21 00                 8868 	.db #0x00
   1D22 00                 8869 	.db #0x00
   1D23 00                 8870 	.db #0x00
   1D24 01                 8871 	.db #0x01
   1D25 00                 8872 	.db #0x00
   1D26 00                 8873 	.db #0x00
   1D27 01                 8874 	.db #0x01
   1D28 03                 8875 	.db #0x03
   1D29 01                 8876 	.db #0x01
   1D2A 87                 8877 	.db #0x87
   1D2B 03                 8878 	.db #0x03
   1D2C FF                 8879 	.db #0xFF
   1D2D FE                 8880 	.db #0xFE
   1D2E C4                 8881 	.db #0xC4
   1D2F 38                 8882 	.db #0x38
   1D30 00                 8883 	.db #0x00
   1D31 00                 8884 	.db #0x00
   1D32 C6                 8885 	.db #0xC6
   1D33 C2                 8886 	.db #0xC2
   1D34 86                 8887 	.db #0x86
   1D35 C2                 8888 	.db #0xC2
   1D36 C6                 8889 	.db #0xC6
   1D37 82                 8890 	.db #0x82
   1D38 86                 8891 	.db #0x86
   1D39 82                 8892 	.db #0x82
   1D3A 86                 8893 	.db #0x86
   1D3B 02                 8894 	.db #0x02
   1D3C 1F                 8895 	.db #0x1F
   1D3D 0F                 8896 	.db #0x0F
   1D3E 1F                 8897 	.db #0x1F
   1D3F 0F                 8898 	.db #0x0F
   1D40 00                 8899 	.db #0x00
   1D41 00                 8900 	.db #0x00
   1D42 18                 8901 	.db #0x18
   1D43 10                 8902 	.db #0x10
   1D44 18                 8903 	.db #0x18
   1D45 10                 8904 	.db #0x10
   1D46 18                 8905 	.db #0x18
   1D47 10                 8906 	.db #0x10
   1D48 18                 8907 	.db #0x18
   1D49 10                 8908 	.db #0x10
   1D4A 18                 8909 	.db #0x18
   1D4B 10                 8910 	.db #0x10
   1D4C 9F                 8911 	.db #0x9F
   1D4D 1F                 8912 	.db #0x1F
   1D4E 9F                 8913 	.db #0x9F
   1D4F 1F                 8914 	.db #0x1F
   1D50 00                 8915 	.db #0x00
   1D51 00                 8916 	.db #0x00
   1D52 00                 8917 	.db #0x00
   1D53 C3                 8918 	.db #0xC3
   1D54 00                 8919 	.db #0x00
   1D55 C3                 8920 	.db #0xC3
   1D56 00                 8921 	.db #0x00
   1D57 C3                 8922 	.db #0xC3
   1D58 00                 8923 	.db #0x00
   1D59 C3                 8924 	.db #0xC3
   1D5A 00                 8925 	.db #0x00
   1D5B C3                 8926 	.db #0xC3
   1D5C E7                 8927 	.db #0xE7
   1D5D E7                 8928 	.db #0xE7
   1D5E E7                 8929 	.db #0xE7
   1D5F E7                 8930 	.db #0xE7
   1D60 00                 8931 	.db #0x00
   1D61 00                 8932 	.db #0x00
   1D62 32                 8933 	.db #0x32
   1D63 23                 8934 	.db #0x23
   1D64 33                 8935 	.db #0x33
   1D65 23                 8936 	.db #0x23
   1D66 32                 8937 	.db #0x32
   1D67 23                 8938 	.db #0x23
   1D68 33                 8939 	.db #0x33
   1D69 23                 8940 	.db #0x23
   1D6A 33                 8941 	.db #0x33
   1D6B 21                 8942 	.db #0x21
   1D6C 39                 8943 	.db #0x39
   1D6D 38                 8944 	.db #0x38
   1D6E 38                 8945 	.db #0x38
   1D6F 38                 8946 	.db #0x38
   1D70 00                 8947 	.db #0x00
   1D71 00                 8948 	.db #0x00
   1D72 07                 8949 	.db #0x07
   1D73 02                 8950 	.db #0x02
   1D74 FF                 8951 	.db #0xFF
   1D75 FE                 8952 	.db #0xFE
   1D76 00                 8953 	.db #0x00
   1D77 00                 8954 	.db #0x00
   1D78 02                 8955 	.db #0x02
   1D79 00                 8956 	.db #0x00
   1D7A 02                 8957 	.db #0x02
   1D7B 86                 8958 	.db #0x86
   1D7C FC                 8959 	.db #0xFC
   1D7D FC                 8960 	.db #0xFC
   1D7E C8                 8961 	.db #0xC8
   1D7F 30                 8962 	.db #0x30
   1D80 00                 8963 	.db #0x00
   1D81 00                 8964 	.db #0x00
   1D82                    8965 _how_to_map:
   1D82 00                 8966 	.db #0x00
   1D83 00                 8967 	.db #0x00
   1D84 00                 8968 	.db #0x00
   1D85 00                 8969 	.db #0x00
   1D86 00                 8970 	.db #0x00
   1D87 00                 8971 	.db #0x00
   1D88 00                 8972 	.db #0x00
   1D89 00                 8973 	.db #0x00
   1D8A 00                 8974 	.db #0x00
   1D8B 00                 8975 	.db #0x00
   1D8C 00                 8976 	.db #0x00
   1D8D 00                 8977 	.db #0x00
   1D8E 00                 8978 	.db #0x00
   1D8F 00                 8979 	.db #0x00
   1D90 00                 8980 	.db #0x00
   1D91 00                 8981 	.db #0x00
   1D92 00                 8982 	.db #0x00
   1D93 00                 8983 	.db #0x00
   1D94 00                 8984 	.db #0x00
   1D95 00                 8985 	.db #0x00
   1D96 00                 8986 	.db #0x00
   1D97 00                 8987 	.db #0x00
   1D98 00                 8988 	.db #0x00
   1D99 00                 8989 	.db #0x00
   1D9A 00                 8990 	.db #0x00
   1D9B 00                 8991 	.db #0x00
   1D9C 00                 8992 	.db #0x00
   1D9D 00                 8993 	.db #0x00
   1D9E 00                 8994 	.db #0x00
   1D9F 00                 8995 	.db #0x00
   1DA0 00                 8996 	.db #0x00
   1DA1 00                 8997 	.db #0x00
   1DA2 00                 8998 	.db #0x00
   1DA3 00                 8999 	.db #0x00
   1DA4 00                 9000 	.db #0x00
   1DA5 00                 9001 	.db #0x00
   1DA6 00                 9002 	.db #0x00
   1DA7 00                 9003 	.db #0x00
   1DA8 00                 9004 	.db #0x00
   1DA9 00                 9005 	.db #0x00
   1DAA 00                 9006 	.db #0x00
   1DAB 00                 9007 	.db #0x00
   1DAC 00                 9008 	.db #0x00
   1DAD 01                 9009 	.db #0x01
   1DAE 02                 9010 	.db #0x02
   1DAF 03                 9011 	.db #0x03
   1DB0 04                 9012 	.db #0x04
   1DB1 05                 9013 	.db #0x05
   1DB2 06                 9014 	.db #0x06
   1DB3 07                 9015 	.db #0x07
   1DB4 08                 9016 	.db #0x08
   1DB5 09                 9017 	.db #0x09
   1DB6 0A                 9018 	.db #0x0A
   1DB7 0B                 9019 	.db #0x0B
   1DB8 0C                 9020 	.db #0x0C
   1DB9 0D                 9021 	.db #0x0D
   1DBA 0E                 9022 	.db #0x0E
   1DBB 00                 9023 	.db #0x00
   1DBC 00                 9024 	.db #0x00
   1DBD 00                 9025 	.db #0x00
   1DBE 00                 9026 	.db #0x00
   1DBF 00                 9027 	.db #0x00
   1DC0 00                 9028 	.db #0x00
   1DC1 0F                 9029 	.db #0x0F
   1DC2 10                 9030 	.db #0x10
   1DC3 11                 9031 	.db #0x11
   1DC4 12                 9032 	.db #0x12
   1DC5 05                 9033 	.db #0x05
   1DC6 13                 9034 	.db #0x13
   1DC7 14                 9035 	.db #0x14
   1DC8 15                 9036 	.db #0x15
   1DC9 16                 9037 	.db #0x16
   1DCA 17                 9038 	.db #0x17
   1DCB 18                 9039 	.db #0x18
   1DCC 19                 9040 	.db #0x19
   1DCD 1A                 9041 	.db #0x1A
   1DCE 1B                 9042 	.db #0x1B
   1DCF 00                 9043 	.db #0x00
   1DD0 00                 9044 	.db #0x00
   1DD1 00                 9045 	.db #0x00
   1DD2 00                 9046 	.db #0x00
   1DD3 00                 9047 	.db #0x00
   1DD4 00                 9048 	.db #0x00
   1DD5 00                 9049 	.db #0x00
   1DD6 00                 9050 	.db #0x00
   1DD7 00                 9051 	.db #0x00
   1DD8 00                 9052 	.db #0x00
   1DD9 00                 9053 	.db #0x00
   1DDA 00                 9054 	.db #0x00
   1DDB 00                 9055 	.db #0x00
   1DDC 00                 9056 	.db #0x00
   1DDD 00                 9057 	.db #0x00
   1DDE 00                 9058 	.db #0x00
   1DDF 1C                 9059 	.db #0x1C
   1DE0 1D                 9060 	.db #0x1D
   1DE1 00                 9061 	.db #0x00
   1DE2 00                 9062 	.db #0x00
   1DE3 00                 9063 	.db #0x00
   1DE4 00                 9064 	.db #0x00
   1DE5 00                 9065 	.db #0x00
   1DE6 1E                 9066 	.db #0x1E
   1DE7 1F                 9067 	.db #0x1F
   1DE8 20                 9068 	.db #0x20
   1DE9 21                 9069 	.db #0x21
   1DEA 22                 9070 	.db #0x22
   1DEB 23                 9071 	.db #0x23
   1DEC 24                 9072 	.db #0x24
   1DED 25                 9073 	.db #0x25
   1DEE 26                 9074 	.db #0x26
   1DEF 27                 9075 	.db #0x27
   1DF0 28                 9076 	.db #0x28
   1DF1 29                 9077 	.db #0x29
   1DF2 2A                 9078 	.db #0x2A
   1DF3 2B                 9079 	.db #0x2B
   1DF4 2C                 9080 	.db #0x2C
   1DF5 2D                 9081 	.db #0x2D
   1DF6 2E                 9082 	.db #0x2E
   1DF7 2F                 9083 	.db #0x2F
   1DF8 30                 9084 	.db #0x30
   1DF9 31                 9085 	.db #0x31
   1DFA 32                 9086 	.db #0x32
   1DFB 33                 9087 	.db #0x33
   1DFC 34                 9088 	.db #0x34
   1DFD 35                 9089 	.db #0x35
   1DFE 36                 9090 	.db #0x36
   1DFF 37                 9091 	.db #0x37
   1E00 38                 9092 	.db #0x38
   1E01 39                 9093 	.db #0x39
   1E02 3A                 9094 	.db #0x3A
   1E03 3B                 9095 	.db #0x3B
   1E04 3C                 9096 	.db #0x3C
   1E05 3D                 9097 	.db #0x3D
   1E06 3E                 9098 	.db #0x3E
   1E07 3F                 9099 	.db #0x3F
   1E08 40                 9100 	.db #0x40
   1E09 41                 9101 	.db #0x41
   1E0A 42                 9102 	.db #0x42
   1E0B 43                 9103 	.db #0x43
   1E0C 44                 9104 	.db #0x44
   1E0D 45                 9105 	.db #0x45
   1E0E 00                 9106 	.db #0x00
   1E0F 46                 9107 	.db #0x46
   1E10 00                 9108 	.db #0x00
   1E11 00                 9109 	.db #0x00
   1E12 00                 9110 	.db #0x00
   1E13 00                 9111 	.db #0x00
   1E14 00                 9112 	.db #0x00
   1E15 00                 9113 	.db #0x00
   1E16 00                 9114 	.db #0x00
   1E17 00                 9115 	.db #0x00
   1E18 00                 9116 	.db #0x00
   1E19 00                 9117 	.db #0x00
   1E1A 00                 9118 	.db #0x00
   1E1B 00                 9119 	.db #0x00
   1E1C 00                 9120 	.db #0x00
   1E1D 00                 9121 	.db #0x00
   1E1E 00                 9122 	.db #0x00
   1E1F 00                 9123 	.db #0x00
   1E20 47                 9124 	.db #0x47
   1E21 00                 9125 	.db #0x00
   1E22 48                 9126 	.db #0x48
   1E23 49                 9127 	.db #0x49
   1E24 4A                 9128 	.db #0x4A
   1E25 4B                 9129 	.db #0x4B
   1E26 06                 9130 	.db #0x06
   1E27 4C                 9131 	.db #0x4C
   1E28 4D                 9132 	.db #0x4D
   1E29 4E                 9133 	.db #0x4E
   1E2A 4F                 9134 	.db #0x4F
   1E2B 50                 9135 	.db #0x50
   1E2C 51                 9136 	.db #0x51
   1E2D 52                 9137 	.db #0x52
   1E2E 53                 9138 	.db #0x53
   1E2F 54                 9139 	.db #0x54
   1E30 55                 9140 	.db #0x55
   1E31 56                 9141 	.db #0x56
   1E32 57                 9142 	.db #0x57
   1E33 48                 9143 	.db #0x48
   1E34 49                 9144 	.db #0x49
   1E35 4A                 9145 	.db #0x4A
   1E36 58                 9146 	.db #0x58
   1E37 59                 9147 	.db #0x59
   1E38 5A                 9148 	.db #0x5A
   1E39 5B                 9149 	.db #0x5B
   1E3A 13                 9150 	.db #0x13
   1E3B 5C                 9151 	.db #0x5C
   1E3C 5D                 9152 	.db #0x5D
   1E3D 5E                 9153 	.db #0x5E
   1E3E 5F                 9154 	.db #0x5F
   1E3F 60                 9155 	.db #0x60
   1E40 61                 9156 	.db #0x61
   1E41 62                 9157 	.db #0x62
   1E42 63                 9158 	.db #0x63
   1E43 64                 9159 	.db #0x64
   1E44 65                 9160 	.db #0x65
   1E45 66                 9161 	.db #0x66
   1E46 67                 9162 	.db #0x67
   1E47 58                 9163 	.db #0x58
   1E48 59                 9164 	.db #0x59
   1E49 5A                 9165 	.db #0x5A
   1E4A 00                 9166 	.db #0x00
   1E4B 00                 9167 	.db #0x00
   1E4C 00                 9168 	.db #0x00
   1E4D 00                 9169 	.db #0x00
   1E4E 00                 9170 	.db #0x00
   1E4F 00                 9171 	.db #0x00
   1E50 00                 9172 	.db #0x00
   1E51 68                 9173 	.db #0x68
   1E52 69                 9174 	.db #0x69
   1E53 00                 9175 	.db #0x00
   1E54 00                 9176 	.db #0x00
   1E55 00                 9177 	.db #0x00
   1E56 00                 9178 	.db #0x00
   1E57 00                 9179 	.db #0x00
   1E58 00                 9180 	.db #0x00
   1E59 00                 9181 	.db #0x00
   1E5A 00                 9182 	.db #0x00
   1E5B 00                 9183 	.db #0x00
   1E5C 00                 9184 	.db #0x00
   1E5D 00                 9185 	.db #0x00
   1E5E 00                 9186 	.db #0x00
   1E5F 00                 9187 	.db #0x00
   1E60 00                 9188 	.db #0x00
   1E61 00                 9189 	.db #0x00
   1E62 00                 9190 	.db #0x00
   1E63 00                 9191 	.db #0x00
   1E64 00                 9192 	.db #0x00
   1E65 6A                 9193 	.db #0x6A
   1E66 6B                 9194 	.db #0x6B
   1E67 6C                 9195 	.db #0x6C
   1E68 6D                 9196 	.db #0x6D
   1E69 6E                 9197 	.db #0x6E
   1E6A 6F                 9198 	.db #0x6F
   1E6B 00                 9199 	.db #0x00
   1E6C 00                 9200 	.db #0x00
   1E6D 00                 9201 	.db #0x00
   1E6E 00                 9202 	.db #0x00
   1E6F 00                 9203 	.db #0x00
   1E70 00                 9204 	.db #0x00
   1E71 00                 9205 	.db #0x00
   1E72 00                 9206 	.db #0x00
   1E73 00                 9207 	.db #0x00
   1E74 00                 9208 	.db #0x00
   1E75 00                 9209 	.db #0x00
   1E76 00                 9210 	.db #0x00
   1E77 00                 9211 	.db #0x00
   1E78 00                 9212 	.db #0x00
   1E79 70                 9213 	.db #0x70
   1E7A 71                 9214 	.db #0x71
   1E7B 72                 9215 	.db #0x72
   1E7C 73                 9216 	.db #0x73
   1E7D 74                 9217 	.db #0x74
   1E7E 75                 9218 	.db #0x75
   1E7F 00                 9219 	.db #0x00
   1E80 00                 9220 	.db #0x00
   1E81 00                 9221 	.db #0x00
   1E82 00                 9222 	.db #0x00
   1E83 00                 9223 	.db #0x00
   1E84 00                 9224 	.db #0x00
   1E85 00                 9225 	.db #0x00
   1E86 00                 9226 	.db #0x00
   1E87 00                 9227 	.db #0x00
   1E88 00                 9228 	.db #0x00
   1E89 00                 9229 	.db #0x00
   1E8A 00                 9230 	.db #0x00
   1E8B 00                 9231 	.db #0x00
   1E8C 00                 9232 	.db #0x00
   1E8D 76                 9233 	.db #0x76
   1E8E 00                 9234 	.db #0x00
   1E8F 00                 9235 	.db #0x00
   1E90 00                 9236 	.db #0x00
   1E91 77                 9237 	.db #0x77
   1E92 00                 9238 	.db #0x00
   1E93 00                 9239 	.db #0x00
   1E94 00                 9240 	.db #0x00
   1E95 00                 9241 	.db #0x00
   1E96 00                 9242 	.db #0x00
   1E97 00                 9243 	.db #0x00
   1E98 00                 9244 	.db #0x00
   1E99 00                 9245 	.db #0x00
   1E9A 00                 9246 	.db #0x00
   1E9B 00                 9247 	.db #0x00
   1E9C 78                 9248 	.db #0x78
   1E9D 79                 9249 	.db #0x79
   1E9E 7A                 9250 	.db #0x7A
   1E9F 7B                 9251 	.db #0x7B
   1EA0 7C                 9252 	.db #0x7C
   1EA1 7D                 9253 	.db #0x7D
   1EA2 7E                 9254 	.db #0x7E
   1EA3 7F                 9255 	.db #0x7F
   1EA4 80                 9256 	.db #0x80
   1EA5 81                 9257 	.db #0x81
   1EA6 82                 9258 	.db #0x82
   1EA7 83                 9259 	.db #0x83
   1EA8 26                 9260 	.db #0x26
   1EA9 08                 9261 	.db #0x08
   1EAA 84                 9262 	.db #0x84
   1EAB 00                 9263 	.db #0x00
   1EAC 00                 9264 	.db #0x00
   1EAD 00                 9265 	.db #0x00
   1EAE 00                 9266 	.db #0x00
   1EAF 00                 9267 	.db #0x00
   1EB0 85                 9268 	.db #0x85
   1EB1 86                 9269 	.db #0x86
   1EB2 87                 9270 	.db #0x87
   1EB3 88                 9271 	.db #0x88
   1EB4 89                 9272 	.db #0x89
   1EB5 8A                 9273 	.db #0x8A
   1EB6 8B                 9274 	.db #0x8B
   1EB7 8C                 9275 	.db #0x8C
   1EB8 8D                 9276 	.db #0x8D
   1EB9 8E                 9277 	.db #0x8E
   1EBA 8F                 9278 	.db #0x8F
   1EBB 90                 9279 	.db #0x90
   1EBC 3A                 9280 	.db #0x3A
   1EBD 91                 9281 	.db #0x91
   1EBE 92                 9282 	.db #0x92
   1EBF 00                 9283 	.db #0x00
   1EC0 00                 9284 	.db #0x00
   1EC1 00                 9285 	.db #0x00
   1EC2 00                 9286 	.db #0x00
   1EC3 00                 9287 	.db #0x00
   1EC4 00                 9288 	.db #0x00
   1EC5 00                 9289 	.db #0x00
   1EC6 00                 9290 	.db #0x00
   1EC7 00                 9291 	.db #0x00
   1EC8 00                 9292 	.db #0x00
   1EC9 00                 9293 	.db #0x00
   1ECA 00                 9294 	.db #0x00
   1ECB 00                 9295 	.db #0x00
   1ECC 00                 9296 	.db #0x00
   1ECD 00                 9297 	.db #0x00
   1ECE 00                 9298 	.db #0x00
   1ECF 00                 9299 	.db #0x00
   1ED0 00                 9300 	.db #0x00
   1ED1 00                 9301 	.db #0x00
   1ED2 00                 9302 	.db #0x00
   1ED3 00                 9303 	.db #0x00
   1ED4 00                 9304 	.db #0x00
   1ED5 00                 9305 	.db #0x00
   1ED6 00                 9306 	.db #0x00
   1ED7 00                 9307 	.db #0x00
   1ED8 00                 9308 	.db #0x00
   1ED9 00                 9309 	.db #0x00
   1EDA 00                 9310 	.db #0x00
   1EDB 00                 9311 	.db #0x00
   1EDC 00                 9312 	.db #0x00
   1EDD 00                 9313 	.db #0x00
   1EDE 00                 9314 	.db #0x00
   1EDF 00                 9315 	.db #0x00
   1EE0 00                 9316 	.db #0x00
   1EE1 00                 9317 	.db #0x00
   1EE2 00                 9318 	.db #0x00
   1EE3 00                 9319 	.db #0x00
   1EE4 00                 9320 	.db #0x00
   1EE5 00                 9321 	.db #0x00
   1EE6 00                 9322 	.db #0x00
   1EE7 00                 9323 	.db #0x00
   1EE8 00                 9324 	.db #0x00
   1EE9 00                 9325 	.db #0x00
ASxxxx Assembler V01.75  (GameBoy Z80-like CPU), page 1.

Symbol Table

    _BCPD_REG                          **** GX
    _BCPS_REG                          **** GX
    _BGP_REG                           **** GX
    _DIV_REG                           **** GX
    _DMA_REG                           **** GX
    _HDMA1_REG                         **** GX
    _HDMA2_REG                         **** GX
    _HDMA3_REG                         **** GX
    _HDMA4_REG                         **** GX
    _HDMA5_REG                         **** GX
    _IE_REG                            **** GX
    _IF_REG                            **** GX
    _KEY1_REG                          **** GX
    _LCDC_REG                          **** GX
    _LYC_REG                           **** GX
    _LY_REG                            **** GX
    _NR10_REG                          **** GX
    _NR11_REG                          **** GX
    _NR12_REG                          **** GX
    _NR13_REG                          **** GX
    _NR14_REG                          **** GX
    _NR21_REG                          **** GX
    _NR22_REG                          **** GX
    _NR23_REG                          **** GX
    _NR24_REG                          **** GX
    _NR30_REG                          **** GX
    _NR31_REG                          **** GX
    _NR32_REG                          **** GX
    _NR33_REG                          **** GX
    _NR34_REG                          **** GX
    _NR41_REG                          **** GX
    _NR42_REG                          **** GX
    _NR43_REG                          **** GX
    _NR44_REG                          **** GX
    _NR50_REG                          **** GX
    _NR51_REG                          **** GX
    _NR52_REG                          **** GX
    _OBP0_REG                          **** GX
    _OBP1_REG                          **** GX
    _OCPD_REG                          **** GX
    _OCPS_REG                          **** GX
    _P1_REG                            **** GX
    _RP_REG                            **** GX
    _SB_REG                            **** GX
    _SCX_REG                           **** GX
    _SCY_REG                           **** GX
    _SC_REG                            **** GX
    _STAT_REG                          **** GX
    _SVBK_REG                          **** GX
  1 _SpriteKeys                        0000 GR
    _TAC_REG                           **** GX
    _TIMA_REG                          **** GX
    _TMA_REG                           **** GX
    _VBK_REG                           **** GX
    _WX_REG                            **** GX
    _WY_REG                            **** GX
  0 ___init_numbers_end                0146 R
  0 ___init_numbers_start              0042 R
  0 ___main_end                        0352 R
  0 ___main_start                      0256 R
  0 ___performant_delay_end            0014 R
  0 ___performant_delay_start          0000 R
  0 ___random_number_end               0042 R
  0 ___random_number_start             0014 R
  0 ___set_anger_end                   0256 R
  0 ___set_anger_start                 01CE R
  0 ___set_souls_end                   01CE R
  0 ___set_souls_start                 0146 R
    __cpu                              **** GX
    __divsint                          **** GX
    __io_in                            **** GX
    __io_out                           **** GX
    __io_status                        **** GX
    __modsint                          **** GX
    __mulsint                          **** GX
    _add_LCD                           **** GX
    _add_TIM                           **** GX
    _add_VBL                           **** GX
    _arand                             **** GX
    _cgb_compatibility                 **** GX
    _cpu_fast                          **** GX
    _cpu_slow                          **** GX
  0 _credits_data                      0B2A GR
  0 _credits_map                       12EA GR
    _delay                             **** GX
    _disable_interrupts                **** GX
    _display_off                       **** GX
    _enable_interrupts                 **** GX
    _get_bkg_tiles                     **** GX
    _get_data                          **** GX
    _get_mode                          **** GX
    _get_sprite_data                   **** GX
    _get_sprite_prop                   **** GX
    _get_sprite_tile                   **** GX
    _get_tiles                         **** GX
    _get_win_tiles                     **** GX
    _gets                              **** GX
    _hiramcpy                          **** GX
  0 _how_to_data                       1452 GR
  0 _how_to_map                        1D82 GR
  0 _init_numbers                      0042 GR
    _initarand                         **** GX
    _initrand                          **** GX
    _joypad                            **** GX
  0 _main                              0256 GR
    _memcpy                            **** GX
    _mode                              **** GX
    _move_bkg                          **** GX
    _move_sprite                       **** GX
    _move_win                          **** GX
  0 _performant_delay                  0000 GR
    _printf                            **** GX
    _putchar                           **** GX
    _puts                              **** GX
    _rand                              **** GX
  0 _random_number                     0014 GR
    _randw                             **** GX
    _receive_byte                      **** GX
    _remove_JOY                        **** GX
    _remove_LCD                        **** GX
    _remove_SIO                        **** GX
    _remove_TIM                        **** GX
    _remove_VBL                        **** GX
    _reset                             **** GX
    _reverse                           **** GX
    _scroll_bkg                        **** GX
    _scroll_sprite                     **** GX
    _scroll_win                        **** GX
    _send_byte                         **** GX
  0 _set_anger                         01CE GR
    _set_bkg_data                      **** GX
    _set_bkg_palette                   **** GX
    _set_bkg_palette_entry             **** GX
    _set_bkg_tiles                     **** GX
    _set_data                          **** GX
    _set_interrupts                    **** GX
  0 _set_souls                         0146 GR
    _set_sprite_data                   **** GX
    _set_sprite_palette                **** GX
    _set_sprite_palette_entry          **** GX
    _set_sprite_prop                   **** GX
    _set_sprite_tile                   **** GX
    _set_tiles                         **** GX
    _set_win_data                      **** GX
    _set_win_tiles                     **** GX
    _sgb_check                         **** GX
    _sprintf                           **** GX
    _strcat                            **** GX
    _strcmp                            **** GX
    _strcpy                            **** GX
    _strlen                            **** GX
    _strncat                           **** GX
    _strncmp                           **** GX
    _strncpy                           **** GX
    _sys_time                          **** GX
  0 _temp_splash_data                  0352 GR
  0 _temp_splash_map                   09C2 GR
    _wait_vbl_done                     **** GX
    _waitpad                           **** GX
    _waitpadup                         **** GX

ASxxxx Assembler V01.75  (GameBoy Z80-like CPU), page 2.

Area Table

   0 _CODE                              size 1EEA   flags 0
   1 _DATA                              size   C0   flags 0
   2 _OVERLAY                           size    0   flags 0
   3 _ISEG                              size    0   flags 0
   4 _BSEG                              size    0   flags 0
   5 _XSEG                              size    0   flags 0
   6 _GSINIT                            size  480   flags 0
   7 _GSFINAL                           size    0   flags 0
